

Microchip MPLAB XC8 Assembler V2.41 build 20230208172133 
                                                                                               Mon Apr 24 09:30:32 2023

Microchip MPLAB XC8 C Compiler v2.41 (Free license) build 20230208172133 Og1 
     1                           	processor	18F57Q84
     2                           	fnconf	rparam,??,?,0
     3                           	pagewidth 120
     4                           	opt	flic
     5                           	psect	nvBANK5,global,class=BANK5,space=1,delta=1,lowdata,noexec
     6                           	psect	smallconst,global,reloc=2,class=SMALLCONST,delta=1,noexec
     7                           	psect	cinit,global,reloc=2,class=CODE,delta=1
     8                           	psect	bssCOMRAM,global,class=COMRAM,space=1,delta=1,lowdata,noexec
     9                           	psect	bssBANK5,global,class=BANK5,space=1,delta=1,lowdata,noexec
    10                           	psect	bssBANK6,global,class=BANK6,space=1,delta=1,lowdata,noexec
    11                           	psect	cstackBANK5,global,class=BANK5,space=1,delta=1,lowdata,noexec
    12                           	psect	cstackCOMRAM,global,class=COMRAM,space=1,delta=1,lowdata,noexec
    13                           	psect	text0,global,reloc=2,class=CODE,delta=1
    14                           	psect	text1,global,reloc=2,class=CODE,delta=1
    15                           	psect	text2,global,reloc=2,class=CODE,delta=1
    16                           	psect	text3,global,reloc=2,class=CODE,delta=1
    17                           	psect	text4,global,reloc=2,class=CODE,delta=1
    18                           	psect	text5,global,reloc=2,class=CODE,delta=1
    19                           	psect	text6,global,reloc=2,class=CODE,delta=1
    20                           	psect	text7,global,reloc=2,class=CODE,delta=1
    21                           	psect	text8,global,reloc=2,class=CODE,delta=1
    22                           	psect	text9,global,reloc=2,class=CODE,delta=1
    23                           	psect	text10,global,reloc=2,class=CODE,delta=1
    24                           	psect	text11,global,reloc=2,class=CODE,delta=1
    25                           	psect	text12,global,reloc=2,class=CODE,delta=1
    26                           	psect	text13,global,reloc=2,class=CODE,delta=1
    27                           	psect	text14,global,reloc=2,class=CODE,delta=1
    28                           	psect	text15,global,reloc=2,class=CODE,delta=1
    29                           	psect	text16,global,reloc=2,class=CODE,delta=1
    30                           	psect	text17,global,reloc=2,class=CODE,delta=1
    31                           	psect	text18,global,reloc=2,class=CODE,delta=1
    32                           	psect	text19,global,reloc=2,class=CODE,delta=1,group=3
    33                           	psect	text20,global,reloc=2,class=CODE,delta=1,group=1
    34                           	psect	text21,global,reloc=2,class=CODE,delta=1,group=1
    35                           	psect	text22,global,reloc=2,class=CODE,delta=1,group=1
    36                           	psect	text23,global,reloc=2,class=CODE,delta=1,group=2
    37                           	psect	text24,global,reloc=2,class=CODE,delta=1,group=1
    38                           	psect	text25,global,reloc=2,class=CODE,delta=1,group=3
    39                           	psect	text26,global,reloc=2,class=CODE,delta=1,group=1
    40                           	psect	text27,global,reloc=2,class=CODE,delta=1,group=3
    41                           	psect	text28,global,reloc=2,class=CODE,delta=1,group=3
    42                           	psect	text29,global,reloc=2,class=CODE,delta=1
    43                           	psect	text30,global,reloc=2,class=CODE,delta=1
    44                           	psect	text31,global,reloc=2,class=CODE,delta=1,group=3
    45                           	psect	text32,global,reloc=2,class=CODE,delta=1,group=3
    46                           	psect	text33,global,reloc=2,class=CODE,delta=1,group=3
    47                           	psect	text34,global,reloc=2,class=CODE,delta=1,group=3
    48                           	psect	text35,global,reloc=2,class=CODE,delta=1,group=2
    49                           	psect	text36,global,reloc=2,class=CODE,delta=1,group=2
    50                           	psect	text37,global,reloc=2,class=CODE,delta=1,group=2
    51                           	psect	text38,global,reloc=2,class=CODE,delta=1,group=2
    52                           	psect	text39,global,reloc=2,class=CODE,delta=1,group=2
    53                           	psect	text40,global,reloc=2,class=CODE,delta=1,group=2
    54                           	psect	text41,global,reloc=2,class=CODE,delta=1,group=2
    55                           	psect	text42,global,reloc=2,class=CODE,delta=1,group=2
    56                           	psect	text43,global,reloc=2,class=CODE,delta=1,group=2
    57                           	psect	text44,global,reloc=2,class=CODE,delta=1,group=2
    58                           	psect	text45,global,reloc=2,class=CODE,delta=1,group=2
    59                           	psect	text46,global,reloc=2,class=CODE,delta=1
    60                           	psect	text47,global,reloc=2,class=CODE,delta=1,inline
    61                           	psect	text48,global,reloc=2,class=CODE,delta=1
    62                           	psect	text49,global,reloc=2,class=CODE,delta=1
    63                           	psect	text50,global,reloc=2,class=CODE,delta=1
    64                           	psect	text51,global,reloc=2,class=CODE,delta=1
    65                           	psect	text52,global,reloc=2,class=CODE,delta=1
    66                           	psect	text53,global,reloc=2,class=CODE,delta=1
    67                           	psect	text54,global,reloc=2,class=CODE,delta=1
    68                           	psect	ivt0x8,global,reloc=2,class=CODE,delta=1,noexec,keep,optim=
    69                           	psect	intsave_regs,global,class=BIGRAM,space=1,delta=1,noexec
    70                           	psect	text55,global,reloc=2,class=CODE,delta=1
    71                           	psect	rparam,global,class=COMRAM,space=1,delta=1,noexec
    72                           	psect	idloc,global,abs,ovrld,class=IDLOC,space=5,delta=1,noexec
    73                           	psect	config,global,abs,ovrld,class=CONFIG,space=4,delta=1,noexec
    74   000000                     
    75                           ; Generated 17/06/2022 GMT
    76                           ; 
    77                           ; Copyright © 2022, Microchip Technology Inc. and its subsidiaries ("Microchip")
    78                           ; All rights reserved.
    79                           ; 
    80                           ; This software is developed by Microchip Technology Inc. and its subsidiaries ("Microch
      +                          ip").
    81                           ; 
    82                           ; Redistribution and use in source and binary forms, with or without modification, are
    83                           ; permitted provided that the following conditions are met:
    84                           ; 
    85                           ;     1. Redistributions of source code must retain the above copyright notice, this lis
      +                          t of
    86                           ;        conditions and the following disclaimer.
    87                           ; 
    88                           ;     2. Redistributions in binary form must reproduce the above copyright notice, this 
      +                          list
    89                           ;        of conditions and the following disclaimer in the documentation and/or other
    90                           ;        materials provided with the distribution. Publication is not required when
    91                           ;        this file is used in an embedded application.
    92                           ; 
    93                           ;     3. Microchip's name may not be used to endorse or promote products derived from th
      +                          is
    94                           ;        software without specific prior written permission.
    95                           ; 
    96                           ; THIS SOFTWARE IS PROVIDED BY MICROCHIP "AS IS" AND ANY EXPRESS OR IMPLIED WARRANTIES,
    97                           ; INCLUDING, BUT NOT LIMITED TO, THE IMPLIED WARRANTIES OF MERCHANTABILITY AND FITNESS F
      +                          OR
    98                           ; PURPOSE ARE DISCLAIMED.  IN NO EVENT SHALL MICROCHIP BE LIABLE FOR ANY DIRECT, INDIREC
      +                          T,
    99                           ; INCIDENTAL, SPECIAL, EXEMPLARY, OR CONSEQUENTIAL DAMAGES (INCLUDING BUT NOT LIMITED TO
   100                           ; PROCUREMENT OF SUBSTITUTE GOODS OR SERVICES; LOSS OF USE, DATA OR PROFITS; OR BUSINESS
   101                           ; INTERRUPTION) HOWSOEVER CAUSED AND ON ANY THEORY OF LIABILITY, WHETHER IN CONTRACT, ST
      +                          RICT
   102                           ; LIABILITY, OR TORT (INCLUDING NEGLIGENCE OR OTHERWISE) ARISING IN ANY WAY OUT OF THE U
      +                          SE OF
   103                           ; THIS SOFTWARE, EVEN IF ADVISED OF THE POSSIBILITY OF SUCH DAMAGE.
   104                           ; 
   105                           ; 
   106                           ; Code-generator required, PIC18F57Q84 Definitions
   107                           ; 
   108                           ; SFR Addresses
   109   000000                     
   110 ;; Function _ADC_DefaultADI_ISR is unused but had its address taken
   111   000000                     
   112 ;; Function _ADC_DefaultContext1Threshold_ISR is unused but had its address taken
   113   000000                     
   114 ;; Function _ADC_DefaultActiveClockTuning_ISR is unused but had its address taken
   115   000000                     _OSCTUNE	set	176
   116   000000                     _OSCFRQ	set	177
   117   000000                     _OSCEN	set	179
   118   000000                     _NVMLOCK	set	66
   119   000000                     _ADERRL	set	989
   120   000000                     _ADERRH	set	990
   121   000000                     _ADPREVL	set	1000
   122   000000                     _ADPREVH	set	1001
   123   000000                     _ADFLTRL	set	993
   124   000000                     _ADFLTRH	set	994
   125   000000                     _ADREF	set	1016
   126   000000                     _ADSTAT	set	1015
   127   000000                     _ADCON3	set	1014
   128   000000                     _ADCON2	set	1013
   129   000000                     _ADCON1	set	1012
   130   000000                     _ADCON0	set	1011
   131   000000                     _ADPREH	set	1010
   132   000000                     _ADPREL	set	1009
   133   000000                     _ADCAP	set	1008
   134   000000                     _ADACQH	set	1007
   135   000000                     _ADRESL	set	1002
   136   000000                     _ADRPT	set	999
   137   000000                     _ADCNT	set	998
   138   000000                     _ADACCU	set	997
   139   000000                     _ADACCH	set	996
   140   000000                     _ADACCL	set	995
   141   000000                     _ADSTPTH	set	992
   142   000000                     _ADSTPTL	set	991
   143   000000                     _ADUTHH	set	988
   144   000000                     _ADUTHL	set	987
   145   000000                     _ADLTHH	set	986
   146   000000                     _ADLTHL	set	985
   147   000000                     _TRISD	set	1225
   148   000000                     _TRISC	set	1224
   149   000000                     _TRISB	set	1223
   150   000000                     _LATC	set	1216
   151   000000                     _LATB	set	1215
   152                           
   153                           	psect	nvBANK5
   154   0005A2                     __pnvBANK5:
   155                           	callstack 0
   156   0005A2                     _UART1_ErrorHandler:
   157                           	callstack 0
   158   0005A2                     	ds	3
   159   0005A5                     _UART1_OverrunErrorHandler:
   160                           	callstack 0
   161   0005A5                     	ds	3
   162   0005A8                     _UART1_FramingErrorHandler:
   163                           	callstack 0
   164   0005A8                     	ds	3
   165   0005AB                     _ADC_ActiveClockTuning_ISR:
   166                           	callstack 0
   167   0005AB                     	ds	3
   168   0005AE                     _ADC_Context1Thereshld_ISR:
   169                           	callstack 0
   170   0005AE                     	ds	3
   171   0005B1                     _ADC_ConversionComplete_ISR:
   172                           	callstack 0
   173   0005B1                     	ds	3
   174   0005B4                     _UART1_TxInterruptHandler:
   175                           	callstack 0
   176   0005B4                     	ds	3
   177   0005B7                     _UART1_RxInterruptHandler:
   178                           	callstack 0
   179   0005B7                     	ds	3
   180   0005BA                     _offset:
   181                           	callstack 0
   182   0005BA                     	ds	2
   183   0005BC                     _gain:
   184                           	callstack 0
   185   0005BC                     	ds	2
   186   000000                     _U1ERRIRbits	set	690
   187   000000                     _FVRCONbits	set	983
   188   000000                     _ADCPbits	set	984
   189   000000                     _ADCON1bits	set	1012
   190   000000                     _ADSTATbits	set	1015
   191   000000                     _ADCON2bits	set	1013
   192   000000                     _ADCON3bits	set	1014
   193   000000                     _ADCSEL1bits	set	1020
   194   000000                     _ADCON0bits	set	1011
   195   000000                     _LATFbits	set	1219
   196   000000                     _NVMCON0bits	set	64
   197   000000                     _NVMCON1bits	set	65
   198   000000                     _NVMADRL	set	67
   199   000000                     _NVMADRH	set	68
   200   000000                     _NVMADRU	set	69
   201   000000                     _RF0PPS	set	553
   202   000000                     _ANSELA	set	1024
   203   000000                     _ANSELB	set	1032
   204   000000                     _ANSELC	set	1040
   205   000000                     _ANSELD	set	1048
   206   000000                     _LATA	set	1214
   207   000000                     _LATD	set	1217
   208   000000                     _LATE	set	1218
   209   000000                     _TRISA	set	1222
   210   000000                     _TRISE	set	1226
   211   000000                     _LATF	set	1219
   212   000000                     _INTCON0bits	set	1238
   213   000000                     _TRISF	set	1227
   214   000000                     _INLVLD	set	1052
   215   000000                     _SLRCOND	set	1051
   216   000000                     _ODCOND	set	1050
   217   000000                     _WPUD	set	1049
   218   000000                     _ANSELE	set	1056
   219   000000                     _INLVLC	set	1044
   220   000000                     _SLRCONC	set	1043
   221   000000                     _ODCONC	set	1042
   222   000000                     _WPUC	set	1041
   223   000000                     _INLVLB	set	1036
   224   000000                     _SLRCONB	set	1035
   225   000000                     _ODCONB	set	1034
   226   000000                     _WPUB	set	1033
   227   000000                     _INLVLE	set	1060
   228   000000                     _SLRCONE	set	1059
   229   000000                     _ODCONE	set	1058
   230   000000                     _WPUE	set	1057
   231   000000                     _ANSELF	set	1064
   232   000000                     _PIE4bits	set	1186
   233   000000                     _INLVLF	set	1068
   234   000000                     _SLRCONF	set	1067
   235   000000                     _ODCONF	set	1066
   236   000000                     _WPUF	set	1065
   237   000000                     _INLVLA	set	1028
   238   000000                     _SLRCONA	set	1027
   239   000000                     _ODCONA	set	1026
   240   000000                     _WPUA	set	1025
   241   000000                     _U1RXPPS	set	626
   242   000000                     _U1RXB	set	673
   243   000000                     _U1TXB	set	675
   244   000000                     _U1P1L	set	677
   245   000000                     _ADCP	set	984
   246   000000                     _ADACT	set	1017
   247   000000                     _TABLAT	set	1269
   248   000000                     _TBLPTRL	set	1270
   249   000000                     _TBLPTRH	set	1271
   250   000000                     _TBLPTRU	set	1272
   251   000000                     _PIR1bits	set	1199
   252   000000                     _PIR4bits	set	1202
   253   000000                     _PIR15bits	set	1213
   254   000000                     _ADCSEL1	set	1020
   255   000000                     _ADCTX	set	1019
   256   000000                     _ADCLK	set	1018
   257   000000                     _ADACQL	set	1006
   258   000000                     _ADPCH	set	1004
   259   000000                     _ADRESH	set	1003
   260   000000                     _PIR2bits	set	1200
   261   000000                     _FVRCON	set	983
   262   000000                     _U1ERRIE	set	691
   263   000000                     _U1ERRIR	set	690
   264   000000                     _U1UIR	set	689
   265   000000                     _U1FIFO	set	688
   266   000000                     _U1BRGH	set	687
   267   000000                     _U1BRGL	set	686
   268   000000                     _U1CON2	set	685
   269   000000                     _U1CON1	set	684
   270   000000                     _U1CON0	set	683
   271   000000                     _U1P3H	set	682
   272   000000                     _U1P3L	set	681
   273   000000                     _U1P2H	set	680
   274   000000                     _U1P2L	set	679
   275   000000                     _U1P1H	set	678
   276   000000                     _PMD0	set	96
   277   000000                     _OSCCON1	set	173
   278   000000                     _NVMDATL	set	70
   279   000000                     _OSCCON3	set	175
   280   000000                     _PMD8	set	104
   281   000000                     _PMD7	set	103
   282   000000                     _PMD6	set	102
   283   000000                     _PMD5	set	101
   284   000000                     _PMD4	set	100
   285   000000                     _PMD3	set	99
   286   000000                     _PMD2	set	98
   287   000000                     _PMD1	set	97
   288                           
   289                           	psect	smallconst
   290   004000                     __psmallconst:
   291                           	callstack 0
   292   004000  00                 	db	0
   293   004001                     STR_2:
   294   004001  44                 	db	68	;'D'
   295   004002  65                 	db	101	;'e'
   296   004003  76                 	db	118	;'v'
   297   004004  69                 	db	105	;'i'
   298   004005  63                 	db	99	;'c'
   299   004006  65                 	db	101	;'e'
   300   004007  20                 	db	32
   301   004008  54                 	db	84	;'T'
   302   004009  65                 	db	101	;'e'
   303   00400A  6D                 	db	109	;'m'
   304   00400B  70                 	db	112	;'p'
   305   00400C  65                 	db	101	;'e'
   306   00400D  72                 	db	114	;'r'
   307   00400E  61                 	db	97	;'a'
   308   00400F  74                 	db	116	;'t'
   309   004010  75                 	db	117	;'u'
   310   004011  72                 	db	114	;'r'
   311   004012  65                 	db	101	;'e'
   312   004013  20                 	db	32
   313   004014  69                 	db	105	;'i'
   314   004015  6E                 	db	110	;'n'
   315   004016  20                 	db	32
   316   004017  44                 	db	68	;'D'
   317   004018  65                 	db	101	;'e'
   318   004019  67                 	db	103	;'g'
   319   00401A  43                 	db	67	;'C'
   320   00401B  3A                 	db	58	;':'
   321   00401C  20                 	db	32
   322   00401D  25                 	db	37
   323   00401E  2E                 	db	46
   324   00401F  32                 	db	50	;'2'
   325   004020  66                 	db	102	;'f'
   326   004021  43                 	db	67	;'C'
   327   004022  20                 	db	32
   328   004023  0D                 	db	13
   329   004024  0A                 	db	10
   330   004025  00                 	db	0
   331   004026                     STR_3:
   332   004026  44                 	db	68	;'D'
   333   004027  65                 	db	101	;'e'
   334   004028  76                 	db	118	;'v'
   335   004029  69                 	db	105	;'i'
   336   00402A  63                 	db	99	;'c'
   337   00402B  65                 	db	101	;'e'
   338   00402C  20                 	db	32
   339   00402D  54                 	db	84	;'T'
   340   00402E  65                 	db	101	;'e'
   341   00402F  6D                 	db	109	;'m'
   342   004030  70                 	db	112	;'p'
   343   004031  65                 	db	101	;'e'
   344   004032  72                 	db	114	;'r'
   345   004033  61                 	db	97	;'a'
   346   004034  74                 	db	116	;'t'
   347   004035  75                 	db	117	;'u'
   348   004036  72                 	db	114	;'r'
   349   004037  65                 	db	101	;'e'
   350   004038  20                 	db	32
   351   004039  69                 	db	105	;'i'
   352   00403A  6E                 	db	110	;'n'
   353   00403B  20                 	db	32
   354   00403C  44                 	db	68	;'D'
   355   00403D  65                 	db	101	;'e'
   356   00403E  67                 	db	103	;'g'
   357   00403F  46                 	db	70	;'F'
   358   004040  3A                 	db	58	;':'
   359   004041  20                 	db	32
   360   004042  25                 	db	37
   361   004043  2E                 	db	46
   362   004044  32                 	db	50	;'2'
   363   004045  66                 	db	102	;'f'
   364   004046  46                 	db	70	;'F'
   365   004047  20                 	db	32
   366   004048  0D                 	db	13
   367   004049  0A                 	db	10
   368   00404A  00                 	db	0
   369   00404B                     STR_1:
   370   00404B  53                 	db	83	;'S'
   371   00404C  74                 	db	116	;'t'
   372   00404D  61                 	db	97	;'a'
   373   00404E  72                 	db	114	;'r'
   374   00404F  74                 	db	116	;'t'
   375   004050  20                 	db	32
   376   004051  41                 	db	65	;'A'
   377   004052  44                 	db	68	;'D'
   378   004053  43                 	db	67	;'C'
   379   004054  20                 	db	32
   380   004055  63                 	db	99	;'c'
   381   004056  6F                 	db	111	;'o'
   382   004057  6E                 	db	110	;'n'
   383   004058  76                 	db	118	;'v'
   384   004059  65                 	db	101	;'e'
   385   00405A  72                 	db	114	;'r'
   386   00405B  74                 	db	116	;'t'
   387   00405C  20                 	db	32
   388   00405D  0D                 	db	13
   389   00405E  0A                 	db	10
   390   00405F  00                 	db	0
   391   004060                     STR_4:
   392   004060  2D                 	db	45
   393   004061  2D                 	db	45
   394   004062  2D                 	db	45
   395   004063  2D                 	db	45
   396   004064  2D                 	db	45
   397   004065  20                 	db	32
   398   004066  0D                 	db	13
   399   004067  0A                 	db	10
   400   004068  00                 	db	0
   401   004069                     STR_5:
   402   004069  69                 	db	105	;'i'
   403   00406A  6E                 	db	110	;'n'
   404   00406B  66                 	db	102	;'f'
   405   00406C  00                 	db	0
   406   00406D                     STR_8:
   407   00406D  6E                 	db	110	;'n'
   408   00406E  61                 	db	97	;'a'
   409   00406F  6E                 	db	110	;'n'
   410   004070  00                 	db	0
   411   004071  00                 	db	0	; dummy byte at the end
   412   000000                     
   413                           ; #config settings
   414                           
   415                           	psect	cinit
   416   006C3C                     __pcinit:
   417                           	callstack 0
   418   006C3C                     start_initialization:
   419                           	callstack 0
   420   006C3C                     __initialization:
   421                           	callstack 0
   422                           
   423                           ; Clear objects allocated to BANK6 (80 bytes)
   424   006C3C  EE01  F200         	lfsr	0,__pbssBANK6
   425   006C40  0E50               	movlw	80
   426   006C42                     clear_0:
   427   006C42  6AEE               	clrf	postinc0,c
   428   006C44  06E8               	decf	wreg,f,c
   429   006C46  E1FD               	bnz	clear_0
   430                           
   431                           ; Clear objects allocated to BANK5 (19 bytes)
   432   006C48  EE01  F1BE         	lfsr	0,__pbssBANK5
   433   006C4C  0E13               	movlw	19
   434   006C4E                     clear_1:
   435   006C4E  6AEE               	clrf	postinc0,c
   436   006C50  06E8               	decf	wreg,f,c
   437   006C52  E1FD               	bnz	clear_1
   438                           
   439                           ; Clear objects allocated to COMRAM (14 bytes)
   440   006C54  EE01  F14E         	lfsr	0,__pbssCOMRAM
   441   006C58  0E0E               	movlw	14
   442   006C5A                     clear_2:
   443   006C5A  6AEE               	clrf	postinc0,c
   444   006C5C  06E8               	decf	wreg,f,c
   445   006C5E  E1FD               	bnz	clear_2
   446                           
   447                           ;
   448                           ; Setup IVTBASE
   449                           ;
   450   006C60  0104               	movlb	4
   451   006C62  0E08               	movlw	(ivt0x8_base shr 0)& (0+255)
   452   006C64  6F5D               	movwf	93,b
   453   006C66  0E00               	movlw	(ivt0x8_base shr (0+8))& (0+255)
   454   006C68  6F5E               	movwf	94,b
   455   006C6A  0E00               	movlw	(ivt0x8_base shr (0+16))& (0+255)
   456   006C6C  6F5F               	movwf	95,b
   457   006C6E                     end_of_initialization:
   458                           	callstack 0
   459   006C6E                     __end_of__initialization:
   460                           	callstack 0
   461   006C6E  0100               	movlb	0
   462   006C70  EF85  F034         	goto	_main	;jump to C main() function
   463                           
   464                           	psect	bssCOMRAM
   465   00054E                     __pbssCOMRAM:
   466                           	callstack 0
   467   00054E                     _temp_c:
   468                           	callstack 0
   469   00054E                     	ds	3
   470   000551                     _uart1RxLastError:
   471                           	callstack 0
   472   000551                     	ds	1
   473   000552                     _uart1RxCount:
   474                           	callstack 0
   475   000552                     	ds	1
   476   000553                     _uart1RxStatusBuffer:
   477                           	callstack 0
   478   000553                     	ds	1
   479   000554                     _uart1RxBuffer:
   480                           	callstack 0
   481   000554                     	ds	1
   482   000555                     _uart1RxTail:
   483                           	callstack 0
   484   000555                     	ds	1
   485   000556                     _uart1RxHead:
   486                           	callstack 0
   487   000556                     	ds	1
   488   000557                     _uart1TxBufferRemaining:
   489                           	callstack 0
   490   000557                     	ds	1
   491   000558                     _uart1TxBuffer:
   492                           	callstack 0
   493   000558                     	ds	1
   494   000559                     _uart1TxTail:
   495                           	callstack 0
   496   000559                     	ds	1
   497   00055A                     _uart1TxHead:
   498                           	callstack 0
   499   00055A                     	ds	1
   500   00055B                     _UART_flag:
   501                           	callstack 0
   502   00055B                     	ds	1
   503                           
   504                           	psect	bssBANK5
   505   0005BE                     __pbssBANK5:
   506                           	callstack 0
   507   0005BE                     floorf@F526:
   508                           	callstack 0
   509   0005BE                     	ds	4
   510   0005C2                     ___fpclassifyf@F465:
   511                           	callstack 0
   512   0005C2                     	ds	4
   513   0005C6                     _float_TempC:
   514                           	callstack 0
   515   0005C6                     	ds	4
   516   0005CA                     _width:
   517                           	callstack 0
   518   0005CA                     	ds	2
   519   0005CC                     _prec:
   520                           	callstack 0
   521   0005CC                     	ds	2
   522   0005CE                     _ADC_MEAS:
   523                           	callstack 0
   524   0005CE                     	ds	2
   525   0005D0                     _flags:
   526                           	callstack 0
   527   0005D0                     	ds	1
   528                           
   529                           	psect	bssBANK6
   530   000600                     __pbssBANK6:
   531                           	callstack 0
   532   000600                     _dbuf:
   533                           	callstack 0
   534   000600                     	ds	80
   535                           
   536                           	psect	cstackBANK5
   537   000560                     __pcstackBANK5:
   538                           	callstack 0
   539   000560                     efgtoa@ne:
   540                           	callstack 0
   541                           
   542                           ; 2 bytes @ 0x0
   543   000560                     	ds	2
   544   000562                     efgtoa@p:
   545                           	callstack 0
   546                           
   547                           ; 2 bytes @ 0x2
   548   000562                     	ds	2
   549   000564                     efgtoa@t:
   550                           	callstack 0
   551                           
   552                           ; 2 bytes @ 0x4
   553   000564                     	ds	2
   554   000566                     _efgtoa$1814:
   555                           	callstack 0
   556                           
   557                           ; 2 bytes @ 0x6
   558   000566                     	ds	2
   559   000568                     efgtoa@pp:
   560                           	callstack 0
   561                           
   562                           ; 1 bytes @ 0x8
   563   000568                     	ds	1
   564   000569                     efgtoa@mode:
   565                           	callstack 0
   566                           
   567                           ; 1 bytes @ 0x9
   568   000569                     	ds	1
   569   00056A                     efgtoa@nmode:
   570                           	callstack 0
   571                           
   572                           ; 1 bytes @ 0xA
   573   00056A                     	ds	1
   574   00056B                     efgtoa@d:
   575                           	callstack 0
   576                           
   577                           ; 2 bytes @ 0xB
   578   00056B                     	ds	2
   579   00056D                     efgtoa@m:
   580                           	callstack 0
   581                           
   582                           ; 2 bytes @ 0xD
   583   00056D                     	ds	2
   584   00056F                     efgtoa@e:
   585                           	callstack 0
   586                           
   587                           ; 2 bytes @ 0xF
   588   00056F                     	ds	2
   589   000571                     efgtoa@w:
   590                           	callstack 0
   591                           
   592                           ; 2 bytes @ 0x11
   593   000571                     	ds	2
   594   000573                     efgtoa@ou:
   595                           	callstack 0
   596                           
   597                           ; 4 bytes @ 0x13
   598   000573                     	ds	4
   599   000577                     efgtoa@i:
   600                           	callstack 0
   601                           
   602                           ; 2 bytes @ 0x17
   603   000577                     	ds	2
   604   000579                     efgtoa@h:
   605                           	callstack 0
   606                           
   607                           ; 4 bytes @ 0x19
   608   000579                     	ds	4
   609   00057D                     efgtoa@l:
   610                           	callstack 0
   611                           
   612                           ; 4 bytes @ 0x1D
   613   00057D                     	ds	4
   614   000581                     efgtoa@sign:
   615                           	callstack 0
   616                           
   617                           ; 1 bytes @ 0x21
   618   000581                     	ds	1
   619   000582                     efgtoa@g:
   620                           	callstack 0
   621                           
   622                           ; 4 bytes @ 0x22
   623   000582                     	ds	4
   624   000586                     efgtoa@n:
   625                           	callstack 0
   626                           
   627                           ; 2 bytes @ 0x26
   628   000586                     	ds	2
   629   000588                     efgtoa@u:
   630                           	callstack 0
   631                           
   632                           ; 4 bytes @ 0x28
   633   000588                     	ds	4
   634   00058C                     vfpfcnvrt@fp:
   635                           	callstack 0
   636                           
   637                           ; 2 bytes @ 0x2C
   638   00058C                     	ds	2
   639   00058E                     vfpfcnvrt@fmt:
   640                           	callstack 0
   641                           
   642                           ; 2 bytes @ 0x2E
   643   00058E                     	ds	2
   644   000590                     vfpfcnvrt@ap:
   645                           	callstack 0
   646                           
   647                           ; 2 bytes @ 0x30
   648   000590                     	ds	2
   649   000592                     ?_vfprintf:
   650                           	callstack 0
   651   000592                     vfprintf@fp:
   652                           	callstack 0
   653                           
   654                           ; 2 bytes @ 0x32
   655   000592                     	ds	2
   656   000594                     vfprintf@fmt:
   657                           	callstack 0
   658                           
   659                           ; 2 bytes @ 0x34
   660   000594                     	ds	2
   661   000596                     vfprintf@ap:
   662                           	callstack 0
   663                           
   664                           ; 2 bytes @ 0x36
   665   000596                     	ds	2
   666   000598                     ?_printf:
   667                           	callstack 0
   668   000598                     printf@fmt:
   669                           	callstack 0
   670                           
   671                           ; 2 bytes @ 0x38
   672   000598                     	ds	6
   673   00059E                     _ADC_Temp_routine$2281:
   674                           	callstack 0
   675                           
   676                           ; 4 bytes @ 0x3E
   677   00059E                     	ds	4
   678                           
   679                           	psect	cstackCOMRAM
   680   000501                     __pcstackCOMRAM:
   681                           	callstack 0
   682   000501                     ??_INTERRUPT_InterruptManager:
   683   000501                     
   684                           ; 1 bytes @ 0x0
   685   000501                     	ds	2
   686   000503                     ?___fpclassifyf:
   687                           	callstack 0
   688   000503                     ?_ADC_GetSingleConversion:
   689                           	callstack 0
   690   000503                     ?_FLASH_ReadWord:
   691                           	callstack 0
   692   000503                     ?___wmul:
   693                           	callstack 0
   694   000503                     ?___tmul:
   695                           	callstack 0
   696   000503                     ?___atdiv:
   697                           	callstack 0
   698   000503                     ?___fldiv:
   699                           	callstack 0
   700   000503                     ?___flmul:
   701                           	callstack 0
   702   000503                     ?_labs:
   703                           	callstack 0
   704   000503                     ?___flneg:
   705                           	callstack 0
   706   000503                     ?___fltol:
   707                           	callstack 0
   708   000503                     ?___xxtofl:
   709                           	callstack 0
   710   000503                     UART1_Write@txData:
   711                           	callstack 0
   712   000503                     ___wmul@multiplier:
   713                           	callstack 0
   714   000503                     memcpy@d1:
   715                           	callstack 0
   716   000503                     strcpy@dest:
   717                           	callstack 0
   718   000503                     ADC_SetADIInterruptHandler@InterruptHandler:
   719                           	callstack 0
   720   000503                     ADC_SetContext1ThresholdInterruptHandler@InterruptHandler:
   721                           	callstack 0
   722   000503                     ADC_SetActiveClockTuningInterruptHandler@InterruptHandler:
   723                           	callstack 0
   724   000503                     UART1_SetFramingErrorHandler@interruptHandler:
   725                           	callstack 0
   726   000503                     UART1_SetOverrunErrorHandler@interruptHandler:
   727                           	callstack 0
   728   000503                     UART1_SetErrorHandler@interruptHandler:
   729                           	callstack 0
   730   000503                     UART1_SetRxInterruptHandler@InterruptHandler:
   731                           	callstack 0
   732   000503                     UART1_SetTxInterruptHandler@InterruptHandler:
   733                           	callstack 0
   734   000503                     ___tmul@multiplier:
   735                           	callstack 0
   736   000503                     ___atdiv@dividend:
   737                           	callstack 0
   738   000503                     FLASH_ReadWord@flashAddr:
   739                           	callstack 0
   740   000503                     ___fleq@ff1:
   741                           	callstack 0
   742   000503                     ___flneg@f1:
   743                           	callstack 0
   744   000503                     ___fltol@f1:
   745                           	callstack 0
   746   000503                     ___fldiv@b:
   747                           	callstack 0
   748   000503                     ___flmul@b:
   749                           	callstack 0
   750   000503                     ___xxtofl@val:
   751                           	callstack 0
   752   000503                     ___fpclassifyf@x:
   753                           	callstack 0
   754   000503                     labs@a:
   755                           	callstack 0
   756                           
   757                           ; 4 bytes @ 0x2
   758   000503                     	ds	1
   759   000504                     putch@txData:
   760                           	callstack 0
   761                           
   762                           ; 1 bytes @ 0x3
   763   000504                     	ds	1
   764   000505                     ??_ADC_GetSingleConversion:
   765   000505                     ___wmul@multiplicand:
   766                           	callstack 0
   767   000505                     memcpy@s1:
   768                           	callstack 0
   769   000505                     fputc@c:
   770                           	callstack 0
   771   000505                     strcpy@src:
   772                           	callstack 0
   773                           
   774                           ; 2 bytes @ 0x4
   775   000505                     	ds	1
   776   000506                     ___tmul@multiplicand:
   777                           	callstack 0
   778   000506                     ___atdiv@divisor:
   779                           	callstack 0
   780                           
   781                           ; 3 bytes @ 0x5
   782   000506                     	ds	1
   783   000507                     ??___fpclassifyf:
   784   000507                     ??_labs:
   785   000507                     ??_FLASH_ReadWord:
   786   000507                     ??___fltol:
   787   000507                     ??___xxtofl:
   788   000507                     ADC_GetSingleConversion@channel:
   789                           	callstack 0
   790   000507                     ___wmul@product:
   791                           	callstack 0
   792   000507                     memcpy@n:
   793                           	callstack 0
   794   000507                     fputc@fp:
   795                           	callstack 0
   796   000507                     strcpy@s:
   797                           	callstack 0
   798   000507                     ___fleq@ff2:
   799                           	callstack 0
   800   000507                     ___fldiv@a:
   801                           	callstack 0
   802   000507                     ___flmul@a:
   803                           	callstack 0
   804                           
   805                           ; 4 bytes @ 0x6
   806   000507                     	ds	2
   807   000509                     ??_fputc:
   808   000509                     ?_read_prec_or_width:
   809                           	callstack 0
   810   000509                     FLASH_ReadWord@readWordL:
   811                           	callstack 0
   812   000509                     ___atdiv@counter:
   813                           	callstack 0
   814   000509                     memcpy@tmp:
   815                           	callstack 0
   816   000509                     read_prec_or_width@fmt:
   817                           	callstack 0
   818   000509                     strcpy@d:
   819                           	callstack 0
   820   000509                     ___tmul@product:
   821                           	callstack 0
   822                           
   823                           ; 3 bytes @ 0x8
   824   000509                     	ds	1
   825   00050A                     FLASH_ReadWord@readWordH:
   826                           	callstack 0
   827   00050A                     ___atdiv@sign:
   828                           	callstack 0
   829   00050A                     memcpy@d:
   830                           	callstack 0
   831                           
   832                           ; 2 bytes @ 0x9
   833   00050A                     	ds	1
   834   00050B                     ??___fldiv:
   835   00050B                     ??___flmul:
   836   00050B                     ??___fleq:
   837   00050B                     ___fltol@sign1:
   838                           	callstack 0
   839   00050B                     ___xxtofl@sign:
   840                           	callstack 0
   841   00050B                     read_prec_or_width@ap:
   842                           	callstack 0
   843   00050B                     ___fpclassifyf@e:
   844                           	callstack 0
   845   00050B                     ___atdiv@quotient:
   846                           	callstack 0
   847                           
   848                           ; 3 bytes @ 0xA
   849   00050B                     	ds	1
   850   00050C                     ___fltol@exp1:
   851                           	callstack 0
   852   00050C                     ___xxtofl@exp:
   853                           	callstack 0
   854   00050C                     memcpy@s:
   855                           	callstack 0
   856                           
   857                           ; 2 bytes @ 0xB
   858   00050C                     	ds	1
   859   00050D                     ??_read_prec_or_width:
   860   00050D                     ___xxtofl@arg:
   861                           	callstack 0
   862   00050D                     ___fpclassifyf@u:
   863                           	callstack 0
   864                           
   865                           ; 4 bytes @ 0xC
   866   00050D                     	ds	1
   867   00050E                     fputs@s:
   868                           	callstack 0
   869                           
   870                           ; 2 bytes @ 0xD
   871   00050E                     	ds	1
   872   00050F                     ___flmul@sign:
   873                           	callstack 0
   874   00050F                     read_prec_or_width@c:
   875                           	callstack 0
   876   00050F                     ___fldiv@rem:
   877                           	callstack 0
   878                           
   879                           ; 4 bytes @ 0xE
   880   00050F                     	ds	1
   881   000510                     ___flmul@aexp:
   882                           	callstack 0
   883   000510                     read_prec_or_width@n:
   884                           	callstack 0
   885   000510                     fputs@fp:
   886                           	callstack 0
   887                           
   888                           ; 2 bytes @ 0xF
   889   000510                     	ds	1
   890   000511                     ___flmul@grs:
   891                           	callstack 0
   892                           
   893                           ; 4 bytes @ 0x10
   894   000511                     	ds	1
   895   000512                     fputs@c:
   896                           	callstack 0
   897                           
   898                           ; 1 bytes @ 0x11
   899   000512                     	ds	1
   900   000513                     ___fldiv@sign:
   901                           	callstack 0
   902   000513                     fputs@i:
   903                           	callstack 0
   904                           
   905                           ; 2 bytes @ 0x12
   906   000513                     	ds	1
   907   000514                     ___fldiv@new_exp:
   908                           	callstack 0
   909                           
   910                           ; 2 bytes @ 0x13
   911   000514                     	ds	1
   912   000515                     ___flmul@bexp:
   913                           	callstack 0
   914   000515                     pad@fp:
   915                           	callstack 0
   916                           
   917                           ; 2 bytes @ 0x14
   918   000515                     	ds	1
   919   000516                     ___fldiv@grs:
   920                           	callstack 0
   921   000516                     ___flmul@prod:
   922                           	callstack 0
   923                           
   924                           ; 4 bytes @ 0x15
   925   000516                     	ds	1
   926   000517                     pad@buf:
   927                           	callstack 0
   928                           
   929                           ; 2 bytes @ 0x16
   930   000517                     	ds	2
   931   000519                     pad@p:
   932                           	callstack 0
   933                           
   934                           ; 2 bytes @ 0x18
   935   000519                     	ds	1
   936   00051A                     ___fldiv@bexp:
   937                           	callstack 0
   938   00051A                     ___flmul@temp:
   939                           	callstack 0
   940                           
   941                           ; 2 bytes @ 0x19
   942   00051A                     	ds	1
   943   00051B                     ??_pad:
   944   00051B                     ___fldiv@aexp:
   945                           	callstack 0
   946                           
   947                           ; 1 bytes @ 0x1A
   948   00051B                     	ds	1
   949   00051C                     ?___fladd:
   950                           	callstack 0
   951   00051C                     ?_floorf:
   952                           	callstack 0
   953   00051C                     pad@i:
   954                           	callstack 0
   955   00051C                     ___flge@ff1:
   956                           	callstack 0
   957   00051C                     ___fladd@b:
   958                           	callstack 0
   959   00051C                     floorf@x:
   960                           	callstack 0
   961                           
   962                           ; 4 bytes @ 0x1B
   963   00051C                     	ds	2
   964   00051E                     pad@w:
   965                           	callstack 0
   966                           
   967                           ; 2 bytes @ 0x1D
   968   00051E                     	ds	2
   969   000520                     ??_floorf:
   970   000520                     ___flge@ff2:
   971                           	callstack 0
   972   000520                     ___fladd@a:
   973                           	callstack 0
   974                           
   975                           ; 4 bytes @ 0x1F
   976   000520                     	ds	4
   977   000524                     ??___fladd:
   978   000524                     ??___flge:
   979                           
   980                           ; 1 bytes @ 0x23
   981   000524                     	ds	2
   982   000526                     floorf@m:
   983                           	callstack 0
   984                           
   985                           ; 4 bytes @ 0x25
   986   000526                     	ds	2
   987   000528                     ___fladd@signs:
   988                           	callstack 0
   989                           
   990                           ; 1 bytes @ 0x27
   991   000528                     	ds	1
   992   000529                     ___fladd@aexp:
   993                           	callstack 0
   994                           
   995                           ; 1 bytes @ 0x28
   996   000529                     	ds	1
   997   00052A                     ___fladd@bexp:
   998                           	callstack 0
   999   00052A                     floorf@e:
  1000                           	callstack 0
  1001                           
  1002                           ; 2 bytes @ 0x29
  1003   00052A                     	ds	1
  1004   00052B                     ___fladd@grs:
  1005                           	callstack 0
  1006                           
  1007                           ; 1 bytes @ 0x2A
  1008   00052B                     	ds	1
  1009   00052C                     ?___flsub:
  1010                           	callstack 0
  1011   00052C                     ___flsub@b:
  1012                           	callstack 0
  1013   00052C                     floorf@u:
  1014                           	callstack 0
  1015                           
  1016                           ; 4 bytes @ 0x2B
  1017   00052C                     	ds	4
  1018   000530                     ___flsub@a:
  1019                           	callstack 0
  1020                           
  1021                           ; 4 bytes @ 0x2F
  1022   000530                     	ds	4
  1023   000534                     efgtoa@fp:
  1024                           	callstack 0
  1025                           
  1026                           ; 2 bytes @ 0x33
  1027   000534                     	ds	2
  1028   000536                     efgtoa@f:
  1029                           	callstack 0
  1030                           
  1031                           ; 4 bytes @ 0x35
  1032   000536                     	ds	4
  1033   00053A                     efgtoa@c:
  1034                           	callstack 0
  1035                           
  1036                           ; 1 bytes @ 0x39
  1037   00053A                     	ds	1
  1038   00053B                     ??_efgtoa:
  1039                           
  1040                           ; 1 bytes @ 0x3A
  1041   00053B                     	ds	2
  1042   00053D                     ??_vfpfcnvrt:
  1043                           
  1044                           ; 1 bytes @ 0x3C
  1045   00053D                     	ds	2
  1046   00053F                     vfpfcnvrt@convarg:
  1047                           	callstack 0
  1048                           
  1049                           ; 4 bytes @ 0x3E
  1050   00053F                     	ds	4
  1051   000543                     vfpfcnvrt@c:
  1052                           	callstack 0
  1053                           
  1054                           ; 1 bytes @ 0x42
  1055   000543                     	ds	1
  1056   000544                     vfpfcnvrt@cp:
  1057                           	callstack 0
  1058                           
  1059                           ; 2 bytes @ 0x43
  1060   000544                     	ds	2
  1061   000546                     vfprintf@cfmt:
  1062                           	callstack 0
  1063                           
  1064                           ; 2 bytes @ 0x45
  1065   000546                     	ds	2
  1066   000548                     printf@ap:
  1067                           	callstack 0
  1068                           
  1069                           ; 2 bytes @ 0x47
  1070   000548                     	ds	2
  1071   00054A                     ??_ADC_Temp_routine:
  1072                           
  1073                           ; 1 bytes @ 0x49
  1074   00054A                     	ds	4
  1075   00054E                     
  1076                           ; 1 bytes @ 0x4D
  1077 ;;
  1078 ;;Main: autosize = 0, tempsize = 0, incstack = 0, save=0
  1079 ;;
  1080 ;; *************** function _main *****************
  1081 ;; Defined at:
  1082 ;;		line 113 in file "main.c"
  1083 ;; Parameters:    Size  Location     Type
  1084 ;;		None
  1085 ;; Auto vars:     Size  Location     Type
  1086 ;;		None
  1087 ;; Return value:  Size  Location     Type
  1088 ;;                  1    wreg      void 
  1089 ;; Registers used:
  1090 ;;		wreg, fsr1l, fsr1h, fsr2l, fsr2h, status,2, status,0, tblptrl, tblptrh, tblptru, prodl, prodh, cstack
  1091 ;; Tracked objects:
  1092 ;;		On entry : 0/0
  1093 ;;		On exit  : 0/0
  1094 ;;		Unchanged: 0/0
  1095 ;; Data sizes:     COMRAM   BANK5   BANK6   BANK7   BANK8   BANK9  BANK10  BANK11  BANK12  BANK13  BANK14  BANK15  BANK1
      +6  BANK17  BANK18  BANK19  BANK20  BANK21  BANK22  BANK23  BANK24  BANK25  BANK26  BANK27  BANK28  BANK29  BANK30  BANK3
      +1  BANK32  BANK33  BANK34  BANK35  BANK36  BANK37  BANK38  BANK39  BANK40  BANK41  BANK42  BANK43  BANK44  BANK45  BANK4
      +6  BANK47  BANK48  BANK49  BANK50  BANK51  BANK52  BANK53  BANK54
  1096 ;;      Params:         0       0       0       0       0       0       0       0       0       0       0       0       
      +0       0       0       0       0       0       0       0       0       0       0       0       0       0       0       
      +0       0       0       0       0       0       0       0       0       0       0       0       0       0       0       
      +0       0       0       0       0       0       0       0       0
  1097 ;;      Locals:         0       0       0       0       0       0       0       0       0       0       0       0       
      +0       0       0       0       0       0       0       0       0       0       0       0       0       0       0       
      +0       0       0       0       0       0       0       0       0       0       0       0       0       0       0       
      +0       0       0       0       0       0       0       0       0
  1098 ;;      Temps:          0       0       0       0       0       0       0       0       0       0       0       0       
      +0       0       0       0       0       0       0       0       0       0       0       0       0       0       0       
      +0       0       0       0       0       0       0       0       0       0       0       0       0       0       0       
      +0       0       0       0       0       0       0       0       0
  1099 ;;      Totals:         0       0       0       0       0       0       0       0       0       0       0       0       
      +0       0       0       0       0       0       0       0       0       0       0       0       0       0       0       
      +0       0       0       0       0       0       0       0       0       0       0       0       0       0       0       
      +0       0       0       0       0       0       0       0       0
  1100 ;;Total ram usage:        0 bytes
  1101 ;; Hardware stack levels required when called: 14
  1102 ;; This function calls:
  1103 ;;		_ADC_Temp_routine
  1104 ;;		_FLASH_ReadWord
  1105 ;;		_SYSTEM_Initialize
  1106 ;; This function is called by:
  1107 ;;		Startup code after reset
  1108 ;; This function uses a non-reentrant model
  1109 ;;
  1110                           
  1111                           	psect	text0
  1112   00690A                     __ptext0:
  1113                           	callstack 0
  1114   00690A                     _main:
  1115                           	callstack 113
  1116   00690A                     
  1117                           ;main.c: 116:     SYSTEM_Initialize();
  1118   00690A  ECD1  F036         	call	_SYSTEM_Initialize	;wreg free
  1119   00690E                     
  1120                           ;main.c: 123:     (INTCON0bits.GIE = 1);
  1121   00690E  8ED6               	bsf	214,7,c	;volatile
  1122   006910                     
  1123                           ;main.c: 130:     gain = FLASH_ReadWord(0x2C002A);
  1124   006910  0E2A               	movlw	42
  1125   006912  6E03               	movwf	FLASH_ReadWord@flashAddr^(0+1280),c
  1126   006914  0E00               	movlw	0
  1127   006916  6E04               	movwf	(FLASH_ReadWord@flashAddr+1)^(0+1280),c
  1128   006918  0E2C               	movlw	44
  1129   00691A  6E05               	movwf	(FLASH_ReadWord@flashAddr+2)^(0+1280),c
  1130   00691C  0E00               	movlw	0
  1131   00691E  6E06               	movwf	(FLASH_ReadWord@flashAddr+3)^(0+1280),c
  1132   006920  ECAB  F036         	call	_FLASH_ReadWord	;wreg free
  1133   006924  C503  F5BC         	movff	?_FLASH_ReadWord,_gain
  1134   006928  C504  F5BD         	movff	?_FLASH_ReadWord+1,_gain+1
  1135   00692C                     
  1136                           ;main.c: 131:     offset = FLASH_ReadWord(0x2C002E);
  1137   00692C  0E2E               	movlw	46
  1138   00692E  6E03               	movwf	FLASH_ReadWord@flashAddr^(0+1280),c
  1139   006930  0E00               	movlw	0
  1140   006932  6E04               	movwf	(FLASH_ReadWord@flashAddr+1)^(0+1280),c
  1141   006934  0E2C               	movlw	44
  1142   006936  6E05               	movwf	(FLASH_ReadWord@flashAddr+2)^(0+1280),c
  1143   006938  0E00               	movlw	0
  1144   00693A  6E06               	movwf	(FLASH_ReadWord@flashAddr+3)^(0+1280),c
  1145   00693C  ECAB  F036         	call	_FLASH_ReadWord	;wreg free
  1146   006940  C503  F5BA         	movff	?_FLASH_ReadWord,_offset
  1147   006944  C504  F5BB         	movff	?_FLASH_ReadWord+1,_offset+1
  1148   006948                     
  1149                           ;main.c: 133:     (INTCON0bits.GIE = 1);
  1150   006948  8ED6               	bsf	214,7,c	;volatile
  1151   00694A                     
  1152                           ;main.c: 135:     UART_flag = 0;
  1153   00694A  0E00               	movlw	0
  1154   00694C  6E5B               	movwf	_UART_flag^(0+1280),c
  1155   00694E                     l6110:
  1156                           
  1157                           ;main.c: 138:     {;main.c: 141:         if(UART_flag == 1){
  1158   00694E  045B               	decf	_UART_flag^(0+1280),w,c
  1159   006950  A4D8               	btfss	status,2,c
  1160   006952  EFAD  F034         	goto	u6081
  1161   006956  EFAF  F034         	goto	u6080
  1162   00695A                     u6081:
  1163   00695A  EFB4  F034         	goto	l725
  1164   00695E                     u6080:
  1165   00695E  96C3               	bcf	195,3,c	;volatile
  1166   006960                     
  1167                           ;main.c: 143:             ADC_Temp_routine();
  1168   006960  ECD4  F02D         	call	_ADC_Temp_routine	;wreg free
  1169                           
  1170                           ;main.c: 144:         }else{
  1171   006964  EFA7  F034         	goto	l6110
  1172   006968                     l725:
  1173   006968  86C3               	bsf	195,3,c	;volatile
  1174   00696A  EFA7  F034         	goto	l6110
  1175   00696E  EF0D  F000         	goto	start
  1176   006972                     __end_of_main:
  1177                           	callstack 0
  1178                           
  1179 ;; *************** function _SYSTEM_Initialize *****************
  1180 ;; Defined at:
  1181 ;;		line 50 in file "mcc_generated_files/mcc.c"
  1182 ;; Parameters:    Size  Location     Type
  1183 ;;		None
  1184 ;; Auto vars:     Size  Location     Type
  1185 ;;		None
  1186 ;; Return value:  Size  Location     Type
  1187 ;;                  1    wreg      void 
  1188 ;; Registers used:
  1189 ;;		wreg, status,2, status,0, cstack
  1190 ;; Tracked objects:
  1191 ;;		On entry : 0/0
  1192 ;;		On exit  : 0/0
  1193 ;;		Unchanged: 0/0
  1194 ;; Data sizes:     COMRAM   BANK5   BANK6   BANK7   BANK8   BANK9  BANK10  BANK11  BANK12  BANK13  BANK14  BANK15  BANK1
      +6  BANK17  BANK18  BANK19  BANK20  BANK21  BANK22  BANK23  BANK24  BANK25  BANK26  BANK27  BANK28  BANK29  BANK30  BANK3
      +1  BANK32  BANK33  BANK34  BANK35  BANK36  BANK37  BANK38  BANK39  BANK40  BANK41  BANK42  BANK43  BANK44  BANK45  BANK4
      +6  BANK47  BANK48  BANK49  BANK50  BANK51  BANK52  BANK53  BANK54
  1195 ;;      Params:         0       0       0       0       0       0       0       0       0       0       0       0       
      +0       0       0       0       0       0       0       0       0       0       0       0       0       0       0       
      +0       0       0       0       0       0       0       0       0       0       0       0       0       0       0       
      +0       0       0       0       0       0       0       0       0
  1196 ;;      Locals:         0       0       0       0       0       0       0       0       0       0       0       0       
      +0       0       0       0       0       0       0       0       0       0       0       0       0       0       0       
      +0       0       0       0       0       0       0       0       0       0       0       0       0       0       0       
      +0       0       0       0       0       0       0       0       0
  1197 ;;      Temps:          0       0       0       0       0       0       0       0       0       0       0       0       
      +0       0       0       0       0       0       0       0       0       0       0       0       0       0       0       
      +0       0       0       0       0       0       0       0       0       0       0       0       0       0       0       
      +0       0       0       0       0       0       0       0       0
  1198 ;;      Totals:         0       0       0       0       0       0       0       0       0       0       0       0       
      +0       0       0       0       0       0       0       0       0       0       0       0       0       0       0       
      +0       0       0       0       0       0       0       0       0       0       0       0       0       0       0       
      +0       0       0       0       0       0       0       0       0
  1199 ;;Total ram usage:        0 bytes
  1200 ;; Hardware stack levels used: 1
  1201 ;; Hardware stack levels required when called: 6
  1202 ;; This function calls:
  1203 ;;		_ADC_Initialize
  1204 ;;		_FVR_Initialize
  1205 ;;		_INTERRUPT_Initialize
  1206 ;;		_OSCILLATOR_Initialize
  1207 ;;		_PIN_MANAGER_Initialize
  1208 ;;		_PMD_Initialize
  1209 ;;		_UART1_Initialize
  1210 ;; This function is called by:
  1211 ;;		_main
  1212 ;; This function uses a non-reentrant model
  1213 ;;
  1214                           
  1215                           	psect	text1
  1216   006DA2                     __ptext1:
  1217                           	callstack 0
  1218   006DA2                     _SYSTEM_Initialize:
  1219                           	callstack 120
  1220   006DA2                     
  1221                           ;mcc_generated_files/mcc.c: 52:     INTERRUPT_Initialize();
  1222   006DA2  EC34  F037         	call	_INTERRUPT_Initialize	;wreg free
  1223   006DA6                     
  1224                           ;mcc_generated_files/mcc.c: 53:     PMD_Initialize();
  1225   006DA6  EC83  F036         	call	_PMD_Initialize	;wreg free
  1226   006DAA                     
  1227                           ;mcc_generated_files/mcc.c: 54:     PIN_MANAGER_Initialize();
  1228   006DAA  ECBC  F033         	call	_PIN_MANAGER_Initialize	;wreg free
  1229   006DAE                     
  1230                           ;mcc_generated_files/mcc.c: 55:     ADC_Initialize();
  1231   006DAE  ECB2  F032         	call	_ADC_Initialize	;wreg free
  1232   006DB2                     
  1233                           ;mcc_generated_files/mcc.c: 56:     OSCILLATOR_Initialize();
  1234   006DB2  ECE0  F036         	call	_OSCILLATOR_Initialize	;wreg free
  1235   006DB6                     
  1236                           ;mcc_generated_files/mcc.c: 57:     FVR_Initialize();
  1237   006DB6  EC29  F037         	call	_FVR_Initialize	;wreg free
  1238   006DBA                     
  1239                           ;mcc_generated_files/mcc.c: 58:     UART1_Initialize();
  1240   006DBA  EC0E  F033         	call	_UART1_Initialize	;wreg free
  1241   006DBE  0012               	return		;funcret
  1242   006DC0                     __end_of_SYSTEM_Initialize:
  1243                           	callstack 0
  1244                           
  1245 ;; *************** function _UART1_Initialize *****************
  1246 ;; Defined at:
  1247 ;;		line 87 in file "mcc_generated_files/uart1.c"
  1248 ;; Parameters:    Size  Location     Type
  1249 ;;		None
  1250 ;; Auto vars:     Size  Location     Type
  1251 ;;		None
  1252 ;; Return value:  Size  Location     Type
  1253 ;;                  1    wreg      void 
  1254 ;; Registers used:
  1255 ;;		wreg, status,2, status,0, cstack
  1256 ;; Tracked objects:
  1257 ;;		On entry : 0/0
  1258 ;;		On exit  : 0/0
  1259 ;;		Unchanged: 0/0
  1260 ;; Data sizes:     COMRAM   BANK5   BANK6   BANK7   BANK8   BANK9  BANK10  BANK11  BANK12  BANK13  BANK14  BANK15  BANK1
      +6  BANK17  BANK18  BANK19  BANK20  BANK21  BANK22  BANK23  BANK24  BANK25  BANK26  BANK27  BANK28  BANK29  BANK30  BANK3
      +1  BANK32  BANK33  BANK34  BANK35  BANK36  BANK37  BANK38  BANK39  BANK40  BANK41  BANK42  BANK43  BANK44  BANK45  BANK4
      +6  BANK47  BANK48  BANK49  BANK50  BANK51  BANK52  BANK53  BANK54
  1261 ;;      Params:         0       0       0       0       0       0       0       0       0       0       0       0       
      +0       0       0       0       0       0       0       0       0       0       0       0       0       0       0       
      +0       0       0       0       0       0       0       0       0       0       0       0       0       0       0       
      +0       0       0       0       0       0       0       0       0
  1262 ;;      Locals:         0       0       0       0       0       0       0       0       0       0       0       0       
      +0       0       0       0       0       0       0       0       0       0       0       0       0       0       0       
      +0       0       0       0       0       0       0       0       0       0       0       0       0       0       0       
      +0       0       0       0       0       0       0       0       0
  1263 ;;      Temps:          0       0       0       0       0       0       0       0       0       0       0       0       
      +0       0       0       0       0       0       0       0       0       0       0       0       0       0       0       
      +0       0       0       0       0       0       0       0       0       0       0       0       0       0       0       
      +0       0       0       0       0       0       0       0       0
  1264 ;;      Totals:         0       0       0       0       0       0       0       0       0       0       0       0       
      +0       0       0       0       0       0       0       0       0       0       0       0       0       0       0       
      +0       0       0       0       0       0       0       0       0       0       0       0       0       0       0       
      +0       0       0       0       0       0       0       0       0
  1265 ;;Total ram usage:        0 bytes
  1266 ;; Hardware stack levels used: 1
  1267 ;; Hardware stack levels required when called: 5
  1268 ;; This function calls:
  1269 ;;		_UART1_SetErrorHandler
  1270 ;;		_UART1_SetFramingErrorHandler
  1271 ;;		_UART1_SetOverrunErrorHandler
  1272 ;;		_UART1_SetRxInterruptHandler
  1273 ;;		_UART1_SetTxInterruptHandler
  1274 ;; This function is called by:
  1275 ;;		_SYSTEM_Initialize
  1276 ;; This function uses a non-reentrant model
  1277 ;;
  1278                           
  1279                           	psect	text2
  1280   00661C                     __ptext2:
  1281                           	callstack 0
  1282   00661C                     _UART1_Initialize:
  1283                           	callstack 120
  1284   00661C                     
  1285                           ;mcc_generated_files/uart1.c: 90:     PIE4bits.U1RXIE = 0;
  1286   00661C  90A2               	bcf	162,0,c	;volatile
  1287   00661E                     
  1288                           ;mcc_generated_files/uart1.c: 91:     UART1_SetRxInterruptHandler(UART1_Receive_ISR);
  1289   00661E  0E9A               	movlw	low _UART1_Receive_ISR
  1290   006620  6E03               	movwf	UART1_SetRxInterruptHandler@InterruptHandler^(0+1280),c
  1291   006622  0E64               	movlw	high _UART1_Receive_ISR
  1292   006624  6E04               	movwf	(UART1_SetRxInterruptHandler@InterruptHandler+1)^(0+1280),c
  1293   006626  0E00               	movlw	low (_UART1_Receive_ISR shr (0+16))
  1294   006628  6E05               	movwf	(UART1_SetRxInterruptHandler@InterruptHandler+2)^(0+1280),c
  1295   00662A  ECF3  F036         	call	_UART1_SetRxInterruptHandler	;wreg free
  1296   00662E                     
  1297                           ;mcc_generated_files/uart1.c: 92:     PIE4bits.U1TXIE = 0;
  1298   00662E  92A2               	bcf	162,1,c	;volatile
  1299                           
  1300                           ;mcc_generated_files/uart1.c: 93:     UART1_SetTxInterruptHandler(UART1_Transmit_ISR);
  1301   006630  0EFA               	movlw	low _UART1_Transmit_ISR
  1302   006632  6E03               	movwf	UART1_SetTxInterruptHandler@InterruptHandler^(0+1280),c
  1303   006634  0E6B               	movlw	high _UART1_Transmit_ISR
  1304   006636  6E04               	movwf	(UART1_SetTxInterruptHandler@InterruptHandler+1)^(0+1280),c
  1305   006638  0E00               	movlw	low (_UART1_Transmit_ISR shr (0+16))
  1306   00663A  6E05               	movwf	(UART1_SetTxInterruptHandler@InterruptHandler+2)^(0+1280),c
  1307   00663C  ECEC  F036         	call	_UART1_SetTxInterruptHandler	;wreg free
  1308   006640                     
  1309                           ;mcc_generated_files/uart1.c: 98:     U1P1L = 0x00;
  1310   006640  0E00               	movlw	0
  1311   006642  0102               	movlb	2	; () banked
  1312   006644  6FA5               	movwf	165,b	;volatile
  1313   006646                     
  1314                           ; BSR set to: 2
  1315                           ;mcc_generated_files/uart1.c: 101:     U1P1H = 0x00;
  1316   006646  0E00               	movlw	0
  1317   006648  6FA6               	movwf	166,b	;volatile
  1318   00664A                     
  1319                           ; BSR set to: 2
  1320                           ;mcc_generated_files/uart1.c: 104:     U1P2L = 0x00;
  1321   00664A  0E00               	movlw	0
  1322   00664C  6FA7               	movwf	167,b	;volatile
  1323   00664E                     
  1324                           ; BSR set to: 2
  1325                           ;mcc_generated_files/uart1.c: 107:     U1P2H = 0x00;
  1326   00664E  0E00               	movlw	0
  1327   006650  6FA8               	movwf	168,b	;volatile
  1328   006652                     
  1329                           ; BSR set to: 2
  1330                           ;mcc_generated_files/uart1.c: 110:     U1P3L = 0x00;
  1331   006652  0E00               	movlw	0
  1332   006654  6FA9               	movwf	169,b	;volatile
  1333   006656                     
  1334                           ; BSR set to: 2
  1335                           ;mcc_generated_files/uart1.c: 113:     U1P3H = 0x00;
  1336   006656  0E00               	movlw	0
  1337   006658  6FAA               	movwf	170,b	;volatile
  1338   00665A                     
  1339                           ; BSR set to: 2
  1340                           ;mcc_generated_files/uart1.c: 116:     U1CON0 = 0xB0;
  1341   00665A  0EB0               	movlw	176
  1342   00665C  6FAB               	movwf	171,b	;volatile
  1343   00665E                     
  1344                           ; BSR set to: 2
  1345                           ;mcc_generated_files/uart1.c: 119:     U1CON1 = 0x80;
  1346   00665E  0E80               	movlw	128
  1347   006660  6FAC               	movwf	172,b	;volatile
  1348   006662                     
  1349                           ; BSR set to: 2
  1350                           ;mcc_generated_files/uart1.c: 122:     U1CON2 = 0x00;
  1351   006662  0E00               	movlw	0
  1352   006664  6FAD               	movwf	173,b	;volatile
  1353   006666                     
  1354                           ; BSR set to: 2
  1355                           ;mcc_generated_files/uart1.c: 125:     U1BRGL = 0xCF;
  1356   006666  0ECF               	movlw	207
  1357   006668  6FAE               	movwf	174,b	;volatile
  1358   00666A                     
  1359                           ; BSR set to: 2
  1360                           ;mcc_generated_files/uart1.c: 128:     U1BRGH = 0x00;
  1361   00666A  0E00               	movlw	0
  1362   00666C  6FAF               	movwf	175,b	;volatile
  1363   00666E                     
  1364                           ; BSR set to: 2
  1365                           ;mcc_generated_files/uart1.c: 131:     U1FIFO = 0x00;
  1366   00666E  0E00               	movlw	0
  1367   006670  6FB0               	movwf	176,b	;volatile
  1368   006672                     
  1369                           ; BSR set to: 2
  1370                           ;mcc_generated_files/uart1.c: 134:     U1UIR = 0x00;
  1371   006672  0E00               	movlw	0
  1372   006674  6FB1               	movwf	177,b	;volatile
  1373   006676                     
  1374                           ; BSR set to: 2
  1375                           ;mcc_generated_files/uart1.c: 137:     U1ERRIR = 0x00;
  1376   006676  0E00               	movlw	0
  1377   006678  6FB2               	movwf	178,b	;volatile
  1378   00667A                     
  1379                           ; BSR set to: 2
  1380                           ;mcc_generated_files/uart1.c: 140:     U1ERRIE = 0x00;
  1381   00667A  0E00               	movlw	0
  1382   00667C  6FB3               	movwf	179,b	;volatile
  1383   00667E                     
  1384                           ; BSR set to: 2
  1385                           ;mcc_generated_files/uart1.c: 143:     UART1_SetFramingErrorHandler(UART1_DefaultFraming
      +                          ErrorHandler);
  1386   00667E  0E6E               	movlw	low _UART1_DefaultFramingErrorHandler
  1387   006680  6E03               	movwf	UART1_SetFramingErrorHandler@interruptHandler^(0+1280),c
  1388   006682  0E6E               	movlw	high _UART1_DefaultFramingErrorHandler
  1389   006684  6E04               	movwf	(UART1_SetFramingErrorHandler@interruptHandler+1)^(0+1280),c
  1390   006686  0E00               	movlw	low (_UART1_DefaultFramingErrorHandler shr (0+16))
  1391   006688  6E05               	movwf	(UART1_SetFramingErrorHandler@interruptHandler+2)^(0+1280),c
  1392   00668A  EC01  F037         	call	_UART1_SetFramingErrorHandler	;wreg free
  1393   00668E                     
  1394                           ;mcc_generated_files/uart1.c: 144:     UART1_SetOverrunErrorHandler(UART1_DefaultOverrun
      +                          ErrorHandler);
  1395   00668E  0E6C               	movlw	low _UART1_DefaultOverrunErrorHandler
  1396   006690  6E03               	movwf	UART1_SetOverrunErrorHandler@interruptHandler^(0+1280),c
  1397   006692  0E6E               	movlw	high _UART1_DefaultOverrunErrorHandler
  1398   006694  6E04               	movwf	(UART1_SetOverrunErrorHandler@interruptHandler+1)^(0+1280),c
  1399   006696  0E00               	movlw	low (_UART1_DefaultOverrunErrorHandler shr (0+16))
  1400   006698  6E05               	movwf	(UART1_SetOverrunErrorHandler@interruptHandler+2)^(0+1280),c
  1401   00669A  ECFA  F036         	call	_UART1_SetOverrunErrorHandler	;wreg free
  1402   00669E                     
  1403                           ;mcc_generated_files/uart1.c: 145:     UART1_SetErrorHandler(UART1_DefaultErrorHandler);
  1404   00669E  0E62               	movlw	low _UART1_DefaultErrorHandler
  1405   0066A0  6E03               	movwf	UART1_SetErrorHandler@interruptHandler^(0+1280),c
  1406   0066A2  0E6E               	movlw	high _UART1_DefaultErrorHandler
  1407   0066A4  6E04               	movwf	(UART1_SetErrorHandler@interruptHandler+1)^(0+1280),c
  1408   0066A6  0E00               	movlw	low (_UART1_DefaultErrorHandler shr (0+16))
  1409   0066A8  6E05               	movwf	(UART1_SetErrorHandler@interruptHandler+2)^(0+1280),c
  1410   0066AA  EC08  F037         	call	_UART1_SetErrorHandler	;wreg free
  1411                           
  1412                           ;mcc_generated_files/uart1.c: 147:     uart1RxLastError.status = 0;
  1413   0066AE  0E00               	movlw	0
  1414   0066B0  6E51               	movwf	_uart1RxLastError^(0+1280),c	;volatile
  1415                           
  1416                           ;mcc_generated_files/uart1.c: 150:     uart1TxHead = 0;
  1417   0066B2  0E00               	movlw	0
  1418   0066B4  6E5A               	movwf	_uart1TxHead^(0+1280),c	;volatile
  1419                           
  1420                           ;mcc_generated_files/uart1.c: 151:     uart1TxTail = 0;
  1421   0066B6  0E00               	movlw	0
  1422   0066B8  6E59               	movwf	_uart1TxTail^(0+1280),c	;volatile
  1423                           
  1424                           ;mcc_generated_files/uart1.c: 152:     uart1TxBufferRemaining = sizeof(uart1TxBuffer);
  1425   0066BA  0E01               	movlw	1
  1426   0066BC  6E57               	movwf	_uart1TxBufferRemaining^(0+1280),c	;volatile
  1427                           
  1428                           ;mcc_generated_files/uart1.c: 153:     uart1RxHead = 0;
  1429   0066BE  0E00               	movlw	0
  1430   0066C0  6E56               	movwf	_uart1RxHead^(0+1280),c	;volatile
  1431                           
  1432                           ;mcc_generated_files/uart1.c: 154:     uart1RxTail = 0;
  1433   0066C2  0E00               	movlw	0
  1434   0066C4  6E55               	movwf	_uart1RxTail^(0+1280),c	;volatile
  1435                           
  1436                           ;mcc_generated_files/uart1.c: 155:     uart1RxCount = 0;
  1437   0066C6  0E00               	movlw	0
  1438   0066C8  6E52               	movwf	_uart1RxCount^(0+1280),c	;volatile
  1439   0066CA                     
  1440                           ;mcc_generated_files/uart1.c: 158:     PIE4bits.U1RXIE = 1;
  1441   0066CA  80A2               	bsf	162,0,c	;volatile
  1442   0066CC  0012               	return		;funcret
  1443   0066CE                     __end_of_UART1_Initialize:
  1444                           	callstack 0
  1445                           
  1446 ;; *************** function _UART1_SetTxInterruptHandler *****************
  1447 ;; Defined at:
  1448 ;;		line 321 in file "mcc_generated_files/uart1.c"
  1449 ;; Parameters:    Size  Location     Type
  1450 ;;  InterruptHan    3    2[COMRAM] PTR FTN()void 
  1451 ;;		 -> UART1_Transmit_ISR(1), 
  1452 ;; Auto vars:     Size  Location     Type
  1453 ;;		None
  1454 ;; Return value:  Size  Location     Type
  1455 ;;                  1    wreg      void 
  1456 ;; Registers used:
  1457 ;;		wreg, status,2, status,0
  1458 ;; Tracked objects:
  1459 ;;		On entry : 0/0
  1460 ;;		On exit  : 0/0
  1461 ;;		Unchanged: 0/0
  1462 ;; Data sizes:     COMRAM   BANK5   BANK6   BANK7   BANK8   BANK9  BANK10  BANK11  BANK12  BANK13  BANK14  BANK15  BANK1
      +6  BANK17  BANK18  BANK19  BANK20  BANK21  BANK22  BANK23  BANK24  BANK25  BANK26  BANK27  BANK28  BANK29  BANK30  BANK3
      +1  BANK32  BANK33  BANK34  BANK35  BANK36  BANK37  BANK38  BANK39  BANK40  BANK41  BANK42  BANK43  BANK44  BANK45  BANK4
      +6  BANK47  BANK48  BANK49  BANK50  BANK51  BANK52  BANK53  BANK54
  1463 ;;      Params:         3       0       0       0       0       0       0       0       0       0       0       0       
      +0       0       0       0       0       0       0       0       0       0       0       0       0       0       0       
      +0       0       0       0       0       0       0       0       0       0       0       0       0       0       0       
      +0       0       0       0       0       0       0       0       0
  1464 ;;      Locals:         0       0       0       0       0       0       0       0       0       0       0       0       
      +0       0       0       0       0       0       0       0       0       0       0       0       0       0       0       
      +0       0       0       0       0       0       0       0       0       0       0       0       0       0       0       
      +0       0       0       0       0       0       0       0       0
  1465 ;;      Temps:          0       0       0       0       0       0       0       0       0       0       0       0       
      +0       0       0       0       0       0       0       0       0       0       0       0       0       0       0       
      +0       0       0       0       0       0       0       0       0       0       0       0       0       0       0       
      +0       0       0       0       0       0       0       0       0
  1466 ;;      Totals:         3       0       0       0       0       0       0       0       0       0       0       0       
      +0       0       0       0       0       0       0       0       0       0       0       0       0       0       0       
      +0       0       0       0       0       0       0       0       0       0       0       0       0       0       0       
      +0       0       0       0       0       0       0       0       0
  1467 ;;Total ram usage:        3 bytes
  1468 ;; Hardware stack levels used: 1
  1469 ;; Hardware stack levels required when called: 4
  1470 ;; This function calls:
  1471 ;;		Nothing
  1472 ;; This function is called by:
  1473 ;;		_UART1_Initialize
  1474 ;; This function uses a non-reentrant model
  1475 ;;
  1476                           
  1477                           	psect	text3
  1478   006DD8                     __ptext3:
  1479                           	callstack 0
  1480   006DD8                     _UART1_SetTxInterruptHandler:
  1481                           	callstack 120
  1482   006DD8                     
  1483                           ;mcc_generated_files/uart1.c: 322:     UART1_TxInterruptHandler = InterruptHandler;
  1484   006DD8  C503  F5B4         	movff	UART1_SetTxInterruptHandler@InterruptHandler,_UART1_TxInterruptHandler
  1485   006DDC  C504  F5B5         	movff	UART1_SetTxInterruptHandler@InterruptHandler+1,_UART1_TxInterruptHandler+1
  1486   006DE0  C505  F5B6         	movff	UART1_SetTxInterruptHandler@InterruptHandler+2,_UART1_TxInterruptHandler+2
  1487   006DE4  0012               	return		;funcret
  1488   006DE6                     __end_of_UART1_SetTxInterruptHandler:
  1489                           	callstack 0
  1490                           
  1491 ;; *************** function _UART1_SetRxInterruptHandler *****************
  1492 ;; Defined at:
  1493 ;;		line 317 in file "mcc_generated_files/uart1.c"
  1494 ;; Parameters:    Size  Location     Type
  1495 ;;  InterruptHan    3    2[COMRAM] PTR FTN()void 
  1496 ;;		 -> UART1_Receive_ISR(1), 
  1497 ;; Auto vars:     Size  Location     Type
  1498 ;;		None
  1499 ;; Return value:  Size  Location     Type
  1500 ;;                  1    wreg      void 
  1501 ;; Registers used:
  1502 ;;		wreg, status,2, status,0
  1503 ;; Tracked objects:
  1504 ;;		On entry : 0/0
  1505 ;;		On exit  : 0/0
  1506 ;;		Unchanged: 0/0
  1507 ;; Data sizes:     COMRAM   BANK5   BANK6   BANK7   BANK8   BANK9  BANK10  BANK11  BANK12  BANK13  BANK14  BANK15  BANK1
      +6  BANK17  BANK18  BANK19  BANK20  BANK21  BANK22  BANK23  BANK24  BANK25  BANK26  BANK27  BANK28  BANK29  BANK30  BANK3
      +1  BANK32  BANK33  BANK34  BANK35  BANK36  BANK37  BANK38  BANK39  BANK40  BANK41  BANK42  BANK43  BANK44  BANK45  BANK4
      +6  BANK47  BANK48  BANK49  BANK50  BANK51  BANK52  BANK53  BANK54
  1508 ;;      Params:         3       0       0       0       0       0       0       0       0       0       0       0       
      +0       0       0       0       0       0       0       0       0       0       0       0       0       0       0       
      +0       0       0       0       0       0       0       0       0       0       0       0       0       0       0       
      +0       0       0       0       0       0       0       0       0
  1509 ;;      Locals:         0       0       0       0       0       0       0       0       0       0       0       0       
      +0       0       0       0       0       0       0       0       0       0       0       0       0       0       0       
      +0       0       0       0       0       0       0       0       0       0       0       0       0       0       0       
      +0       0       0       0       0       0       0       0       0
  1510 ;;      Temps:          0       0       0       0       0       0       0       0       0       0       0       0       
      +0       0       0       0       0       0       0       0       0       0       0       0       0       0       0       
      +0       0       0       0       0       0       0       0       0       0       0       0       0       0       0       
      +0       0       0       0       0       0       0       0       0
  1511 ;;      Totals:         3       0       0       0       0       0       0       0       0       0       0       0       
      +0       0       0       0       0       0       0       0       0       0       0       0       0       0       0       
      +0       0       0       0       0       0       0       0       0       0       0       0       0       0       0       
      +0       0       0       0       0       0       0       0       0
  1512 ;;Total ram usage:        3 bytes
  1513 ;; Hardware stack levels used: 1
  1514 ;; Hardware stack levels required when called: 4
  1515 ;; This function calls:
  1516 ;;		Nothing
  1517 ;; This function is called by:
  1518 ;;		_UART1_Initialize
  1519 ;; This function uses a non-reentrant model
  1520 ;;
  1521                           
  1522                           	psect	text4
  1523   006DE6                     __ptext4:
  1524                           	callstack 0
  1525   006DE6                     _UART1_SetRxInterruptHandler:
  1526                           	callstack 120
  1527   006DE6                     
  1528                           ;mcc_generated_files/uart1.c: 318:     UART1_RxInterruptHandler = InterruptHandler;
  1529   006DE6  C503  F5B7         	movff	UART1_SetRxInterruptHandler@InterruptHandler,_UART1_RxInterruptHandler
  1530   006DEA  C504  F5B8         	movff	UART1_SetRxInterruptHandler@InterruptHandler+1,_UART1_RxInterruptHandler+1
  1531   006DEE  C505  F5B9         	movff	UART1_SetRxInterruptHandler@InterruptHandler+2,_UART1_RxInterruptHandler+2
  1532   006DF2  0012               	return		;funcret
  1533   006DF4                     __end_of_UART1_SetRxInterruptHandler:
  1534                           	callstack 0
  1535                           
  1536 ;; *************** function _UART1_SetOverrunErrorHandler *****************
  1537 ;; Defined at:
  1538 ;;		line 307 in file "mcc_generated_files/uart1.c"
  1539 ;; Parameters:    Size  Location     Type
  1540 ;;  interruptHan    3    2[COMRAM] PTR FTN()void 
  1541 ;;		 -> UART1_DefaultOverrunErrorHandler(1), 
  1542 ;; Auto vars:     Size  Location     Type
  1543 ;;		None
  1544 ;; Return value:  Size  Location     Type
  1545 ;;                  1    wreg      void 
  1546 ;; Registers used:
  1547 ;;		wreg, status,2, status,0
  1548 ;; Tracked objects:
  1549 ;;		On entry : 0/0
  1550 ;;		On exit  : 0/0
  1551 ;;		Unchanged: 0/0
  1552 ;; Data sizes:     COMRAM   BANK5   BANK6   BANK7   BANK8   BANK9  BANK10  BANK11  BANK12  BANK13  BANK14  BANK15  BANK1
      +6  BANK17  BANK18  BANK19  BANK20  BANK21  BANK22  BANK23  BANK24  BANK25  BANK26  BANK27  BANK28  BANK29  BANK30  BANK3
      +1  BANK32  BANK33  BANK34  BANK35  BANK36  BANK37  BANK38  BANK39  BANK40  BANK41  BANK42  BANK43  BANK44  BANK45  BANK4
      +6  BANK47  BANK48  BANK49  BANK50  BANK51  BANK52  BANK53  BANK54
  1553 ;;      Params:         3       0       0       0       0       0       0       0       0       0       0       0       
      +0       0       0       0       0       0       0       0       0       0       0       0       0       0       0       
      +0       0       0       0       0       0       0       0       0       0       0       0       0       0       0       
      +0       0       0       0       0       0       0       0       0
  1554 ;;      Locals:         0       0       0       0       0       0       0       0       0       0       0       0       
      +0       0       0       0       0       0       0       0       0       0       0       0       0       0       0       
      +0       0       0       0       0       0       0       0       0       0       0       0       0       0       0       
      +0       0       0       0       0       0       0       0       0
  1555 ;;      Temps:          0       0       0       0       0       0       0       0       0       0       0       0       
      +0       0       0       0       0       0       0       0       0       0       0       0       0       0       0       
      +0       0       0       0       0       0       0       0       0       0       0       0       0       0       0       
      +0       0       0       0       0       0       0       0       0
  1556 ;;      Totals:         3       0       0       0       0       0       0       0       0       0       0       0       
      +0       0       0       0       0       0       0       0       0       0       0       0       0       0       0       
      +0       0       0       0       0       0       0       0       0       0       0       0       0       0       0       
      +0       0       0       0       0       0       0       0       0
  1557 ;;Total ram usage:        3 bytes
  1558 ;; Hardware stack levels used: 1
  1559 ;; Hardware stack levels required when called: 4
  1560 ;; This function calls:
  1561 ;;		Nothing
  1562 ;; This function is called by:
  1563 ;;		_UART1_Initialize
  1564 ;; This function uses a non-reentrant model
  1565 ;;
  1566                           
  1567                           	psect	text5
  1568   006DF4                     __ptext5:
  1569                           	callstack 0
  1570   006DF4                     _UART1_SetOverrunErrorHandler:
  1571                           	callstack 120
  1572   006DF4                     
  1573                           ;mcc_generated_files/uart1.c: 308:     UART1_OverrunErrorHandler = interruptHandler;
  1574   006DF4  C503  F5A5         	movff	UART1_SetOverrunErrorHandler@interruptHandler,_UART1_OverrunErrorHandler
  1575   006DF8  C504  F5A6         	movff	UART1_SetOverrunErrorHandler@interruptHandler+1,_UART1_OverrunErrorHandler+1
  1576   006DFC  C505  F5A7         	movff	UART1_SetOverrunErrorHandler@interruptHandler+2,_UART1_OverrunErrorHandler+2
  1577   006E00  0012               	return		;funcret
  1578   006E02                     __end_of_UART1_SetOverrunErrorHandler:
  1579                           	callstack 0
  1580                           
  1581 ;; *************** function _UART1_SetFramingErrorHandler *****************
  1582 ;; Defined at:
  1583 ;;		line 303 in file "mcc_generated_files/uart1.c"
  1584 ;; Parameters:    Size  Location     Type
  1585 ;;  interruptHan    3    2[COMRAM] PTR FTN()void 
  1586 ;;		 -> UART1_DefaultFramingErrorHandler(1), 
  1587 ;; Auto vars:     Size  Location     Type
  1588 ;;		None
  1589 ;; Return value:  Size  Location     Type
  1590 ;;                  1    wreg      void 
  1591 ;; Registers used:
  1592 ;;		wreg, status,2, status,0
  1593 ;; Tracked objects:
  1594 ;;		On entry : 0/0
  1595 ;;		On exit  : 0/0
  1596 ;;		Unchanged: 0/0
  1597 ;; Data sizes:     COMRAM   BANK5   BANK6   BANK7   BANK8   BANK9  BANK10  BANK11  BANK12  BANK13  BANK14  BANK15  BANK1
      +6  BANK17  BANK18  BANK19  BANK20  BANK21  BANK22  BANK23  BANK24  BANK25  BANK26  BANK27  BANK28  BANK29  BANK30  BANK3
      +1  BANK32  BANK33  BANK34  BANK35  BANK36  BANK37  BANK38  BANK39  BANK40  BANK41  BANK42  BANK43  BANK44  BANK45  BANK4
      +6  BANK47  BANK48  BANK49  BANK50  BANK51  BANK52  BANK53  BANK54
  1598 ;;      Params:         3       0       0       0       0       0       0       0       0       0       0       0       
      +0       0       0       0       0       0       0       0       0       0       0       0       0       0       0       
      +0       0       0       0       0       0       0       0       0       0       0       0       0       0       0       
      +0       0       0       0       0       0       0       0       0
  1599 ;;      Locals:         0       0       0       0       0       0       0       0       0       0       0       0       
      +0       0       0       0       0       0       0       0       0       0       0       0       0       0       0       
      +0       0       0       0       0       0       0       0       0       0       0       0       0       0       0       
      +0       0       0       0       0       0       0       0       0
  1600 ;;      Temps:          0       0       0       0       0       0       0       0       0       0       0       0       
      +0       0       0       0       0       0       0       0       0       0       0       0       0       0       0       
      +0       0       0       0       0       0       0       0       0       0       0       0       0       0       0       
      +0       0       0       0       0       0       0       0       0
  1601 ;;      Totals:         3       0       0       0       0       0       0       0       0       0       0       0       
      +0       0       0       0       0       0       0       0       0       0       0       0       0       0       0       
      +0       0       0       0       0       0       0       0       0       0       0       0       0       0       0       
      +0       0       0       0       0       0       0       0       0
  1602 ;;Total ram usage:        3 bytes
  1603 ;; Hardware stack levels used: 1
  1604 ;; Hardware stack levels required when called: 4
  1605 ;; This function calls:
  1606 ;;		Nothing
  1607 ;; This function is called by:
  1608 ;;		_UART1_Initialize
  1609 ;; This function uses a non-reentrant model
  1610 ;;
  1611                           
  1612                           	psect	text6
  1613   006E02                     __ptext6:
  1614                           	callstack 0
  1615   006E02                     _UART1_SetFramingErrorHandler:
  1616                           	callstack 120
  1617   006E02                     
  1618                           ;mcc_generated_files/uart1.c: 304:     UART1_FramingErrorHandler = interruptHandler;
  1619   006E02  C503  F5A8         	movff	UART1_SetFramingErrorHandler@interruptHandler,_UART1_FramingErrorHandler
  1620   006E06  C504  F5A9         	movff	UART1_SetFramingErrorHandler@interruptHandler+1,_UART1_FramingErrorHandler+1
  1621   006E0A  C505  F5AA         	movff	UART1_SetFramingErrorHandler@interruptHandler+2,_UART1_FramingErrorHandler+2
  1622   006E0E  0012               	return		;funcret
  1623   006E10                     __end_of_UART1_SetFramingErrorHandler:
  1624                           	callstack 0
  1625                           
  1626 ;; *************** function _UART1_SetErrorHandler *****************
  1627 ;; Defined at:
  1628 ;;		line 311 in file "mcc_generated_files/uart1.c"
  1629 ;; Parameters:    Size  Location     Type
  1630 ;;  interruptHan    3    2[COMRAM] PTR FTN()void 
  1631 ;;		 -> UART1_DefaultErrorHandler(1), 
  1632 ;; Auto vars:     Size  Location     Type
  1633 ;;		None
  1634 ;; Return value:  Size  Location     Type
  1635 ;;                  1    wreg      void 
  1636 ;; Registers used:
  1637 ;;		wreg, status,2, status,0
  1638 ;; Tracked objects:
  1639 ;;		On entry : 0/0
  1640 ;;		On exit  : 0/0
  1641 ;;		Unchanged: 0/0
  1642 ;; Data sizes:     COMRAM   BANK5   BANK6   BANK7   BANK8   BANK9  BANK10  BANK11  BANK12  BANK13  BANK14  BANK15  BANK1
      +6  BANK17  BANK18  BANK19  BANK20  BANK21  BANK22  BANK23  BANK24  BANK25  BANK26  BANK27  BANK28  BANK29  BANK30  BANK3
      +1  BANK32  BANK33  BANK34  BANK35  BANK36  BANK37  BANK38  BANK39  BANK40  BANK41  BANK42  BANK43  BANK44  BANK45  BANK4
      +6  BANK47  BANK48  BANK49  BANK50  BANK51  BANK52  BANK53  BANK54
  1643 ;;      Params:         3       0       0       0       0       0       0       0       0       0       0       0       
      +0       0       0       0       0       0       0       0       0       0       0       0       0       0       0       
      +0       0       0       0       0       0       0       0       0       0       0       0       0       0       0       
      +0       0       0       0       0       0       0       0       0
  1644 ;;      Locals:         0       0       0       0       0       0       0       0       0       0       0       0       
      +0       0       0       0       0       0       0       0       0       0       0       0       0       0       0       
      +0       0       0       0       0       0       0       0       0       0       0       0       0       0       0       
      +0       0       0       0       0       0       0       0       0
  1645 ;;      Temps:          0       0       0       0       0       0       0       0       0       0       0       0       
      +0       0       0       0       0       0       0       0       0       0       0       0       0       0       0       
      +0       0       0       0       0       0       0       0       0       0       0       0       0       0       0       
      +0       0       0       0       0       0       0       0       0
  1646 ;;      Totals:         3       0       0       0       0       0       0       0       0       0       0       0       
      +0       0       0       0       0       0       0       0       0       0       0       0       0       0       0       
      +0       0       0       0       0       0       0       0       0       0       0       0       0       0       0       
      +0       0       0       0       0       0       0       0       0
  1647 ;;Total ram usage:        3 bytes
  1648 ;; Hardware stack levels used: 1
  1649 ;; Hardware stack levels required when called: 4
  1650 ;; This function calls:
  1651 ;;		Nothing
  1652 ;; This function is called by:
  1653 ;;		_UART1_Initialize
  1654 ;; This function uses a non-reentrant model
  1655 ;;
  1656                           
  1657                           	psect	text7
  1658   006E10                     __ptext7:
  1659                           	callstack 0
  1660   006E10                     _UART1_SetErrorHandler:
  1661                           	callstack 120
  1662   006E10                     
  1663                           ;mcc_generated_files/uart1.c: 312:     UART1_ErrorHandler = interruptHandler;
  1664   006E10  C503  F5A2         	movff	UART1_SetErrorHandler@interruptHandler,_UART1_ErrorHandler
  1665   006E14  C504  F5A3         	movff	UART1_SetErrorHandler@interruptHandler+1,_UART1_ErrorHandler+1
  1666   006E18  C505  F5A4         	movff	UART1_SetErrorHandler@interruptHandler+2,_UART1_ErrorHandler+2
  1667   006E1C  0012               	return		;funcret
  1668   006E1E                     __end_of_UART1_SetErrorHandler:
  1669                           	callstack 0
  1670                           
  1671 ;; *************** function _PMD_Initialize *****************
  1672 ;; Defined at:
  1673 ;;		line 75 in file "mcc_generated_files/mcc.c"
  1674 ;; Parameters:    Size  Location     Type
  1675 ;;		None
  1676 ;; Auto vars:     Size  Location     Type
  1677 ;;		None
  1678 ;; Return value:  Size  Location     Type
  1679 ;;                  1    wreg      void 
  1680 ;; Registers used:
  1681 ;;		wreg, status,2
  1682 ;; Tracked objects:
  1683 ;;		On entry : 0/0
  1684 ;;		On exit  : 0/0
  1685 ;;		Unchanged: 0/0
  1686 ;; Data sizes:     COMRAM   BANK5   BANK6   BANK7   BANK8   BANK9  BANK10  BANK11  BANK12  BANK13  BANK14  BANK15  BANK1
      +6  BANK17  BANK18  BANK19  BANK20  BANK21  BANK22  BANK23  BANK24  BANK25  BANK26  BANK27  BANK28  BANK29  BANK30  BANK3
      +1  BANK32  BANK33  BANK34  BANK35  BANK36  BANK37  BANK38  BANK39  BANK40  BANK41  BANK42  BANK43  BANK44  BANK45  BANK4
      +6  BANK47  BANK48  BANK49  BANK50  BANK51  BANK52  BANK53  BANK54
  1687 ;;      Params:         0       0       0       0       0       0       0       0       0       0       0       0       
      +0       0       0       0       0       0       0       0       0       0       0       0       0       0       0       
      +0       0       0       0       0       0       0       0       0       0       0       0       0       0       0       
      +0       0       0       0       0       0       0       0       0
  1688 ;;      Locals:         0       0       0       0       0       0       0       0       0       0       0       0       
      +0       0       0       0       0       0       0       0       0       0       0       0       0       0       0       
      +0       0       0       0       0       0       0       0       0       0       0       0       0       0       0       
      +0       0       0       0       0       0       0       0       0
  1689 ;;      Temps:          0       0       0       0       0       0       0       0       0       0       0       0       
      +0       0       0       0       0       0       0       0       0       0       0       0       0       0       0       
      +0       0       0       0       0       0       0       0       0       0       0       0       0       0       0       
      +0       0       0       0       0       0       0       0       0
  1690 ;;      Totals:         0       0       0       0       0       0       0       0       0       0       0       0       
      +0       0       0       0       0       0       0       0       0       0       0       0       0       0       0       
      +0       0       0       0       0       0       0       0       0       0       0       0       0       0       0       
      +0       0       0       0       0       0       0       0       0
  1691 ;;Total ram usage:        0 bytes
  1692 ;; Hardware stack levels used: 1
  1693 ;; Hardware stack levels required when called: 4
  1694 ;; This function calls:
  1695 ;;		Nothing
  1696 ;; This function is called by:
  1697 ;;		_SYSTEM_Initialize
  1698 ;; This function uses a non-reentrant model
  1699 ;;
  1700                           
  1701                           	psect	text8
  1702   006D06                     __ptext8:
  1703                           	callstack 0
  1704   006D06                     _PMD_Initialize:
  1705                           	callstack 121
  1706   006D06                     
  1707                           ;mcc_generated_files/mcc.c: 78:     PMD0 = 0x00;
  1708   006D06  0E00               	movlw	0
  1709   006D08  0100               	movlb	0	; () banked
  1710   006D0A  6F60               	movwf	96,b	;volatile
  1711                           
  1712                           ;mcc_generated_files/mcc.c: 80:     PMD1 = 0x00;
  1713   006D0C  0E00               	movlw	0
  1714   006D0E  6F61               	movwf	97,b	;volatile
  1715                           
  1716                           ;mcc_generated_files/mcc.c: 82:     PMD2 = 0x00;
  1717   006D10  0E00               	movlw	0
  1718   006D12  6F62               	movwf	98,b	;volatile
  1719                           
  1720                           ;mcc_generated_files/mcc.c: 84:     PMD3 = 0x00;
  1721   006D14  0E00               	movlw	0
  1722   006D16  6F63               	movwf	99,b	;volatile
  1723                           
  1724                           ;mcc_generated_files/mcc.c: 86:     PMD4 = 0x00;
  1725   006D18  0E00               	movlw	0
  1726   006D1A  6F64               	movwf	100,b	;volatile
  1727                           
  1728                           ;mcc_generated_files/mcc.c: 88:     PMD5 = 0x00;
  1729   006D1C  0E00               	movlw	0
  1730   006D1E  6F65               	movwf	101,b	;volatile
  1731                           
  1732                           ;mcc_generated_files/mcc.c: 90:     PMD6 = 0x00;
  1733   006D20  0E00               	movlw	0
  1734   006D22  6F66               	movwf	102,b	;volatile
  1735                           
  1736                           ;mcc_generated_files/mcc.c: 92:     PMD7 = 0x00;
  1737   006D24  0E00               	movlw	0
  1738   006D26  6F67               	movwf	103,b	;volatile
  1739                           
  1740                           ;mcc_generated_files/mcc.c: 94:     PMD8 = 0x00;
  1741   006D28  0E00               	movlw	0
  1742   006D2A  6F68               	movwf	104,b	;volatile
  1743   006D2C                     
  1744                           ; BSR set to: 0
  1745   006D2C  0012               	return		;funcret
  1746   006D2E                     __end_of_PMD_Initialize:
  1747                           	callstack 0
  1748                           
  1749 ;; *************** function _PIN_MANAGER_Initialize *****************
  1750 ;; Defined at:
  1751 ;;		line 55 in file "mcc_generated_files/pin_manager.c"
  1752 ;; Parameters:    Size  Location     Type
  1753 ;;		None
  1754 ;; Auto vars:     Size  Location     Type
  1755 ;;		None
  1756 ;; Return value:  Size  Location     Type
  1757 ;;                  1    wreg      void 
  1758 ;; Registers used:
  1759 ;;		wreg, status,2
  1760 ;; Tracked objects:
  1761 ;;		On entry : 0/0
  1762 ;;		On exit  : 0/0
  1763 ;;		Unchanged: 0/0
  1764 ;; Data sizes:     COMRAM   BANK5   BANK6   BANK7   BANK8   BANK9  BANK10  BANK11  BANK12  BANK13  BANK14  BANK15  BANK1
      +6  BANK17  BANK18  BANK19  BANK20  BANK21  BANK22  BANK23  BANK24  BANK25  BANK26  BANK27  BANK28  BANK29  BANK30  BANK3
      +1  BANK32  BANK33  BANK34  BANK35  BANK36  BANK37  BANK38  BANK39  BANK40  BANK41  BANK42  BANK43  BANK44  BANK45  BANK4
      +6  BANK47  BANK48  BANK49  BANK50  BANK51  BANK52  BANK53  BANK54
  1765 ;;      Params:         0       0       0       0       0       0       0       0       0       0       0       0       
      +0       0       0       0       0       0       0       0       0       0       0       0       0       0       0       
      +0       0       0       0       0       0       0       0       0       0       0       0       0       0       0       
      +0       0       0       0       0       0       0       0       0
  1766 ;;      Locals:         0       0       0       0       0       0       0       0       0       0       0       0       
      +0       0       0       0       0       0       0       0       0       0       0       0       0       0       0       
      +0       0       0       0       0       0       0       0       0       0       0       0       0       0       0       
      +0       0       0       0       0       0       0       0       0
  1767 ;;      Temps:          0       0       0       0       0       0       0       0       0       0       0       0       
      +0       0       0       0       0       0       0       0       0       0       0       0       0       0       0       
      +0       0       0       0       0       0       0       0       0       0       0       0       0       0       0       
      +0       0       0       0       0       0       0       0       0
  1768 ;;      Totals:         0       0       0       0       0       0       0       0       0       0       0       0       
      +0       0       0       0       0       0       0       0       0       0       0       0       0       0       0       
      +0       0       0       0       0       0       0       0       0       0       0       0       0       0       0       
      +0       0       0       0       0       0       0       0       0
  1769 ;;Total ram usage:        0 bytes
  1770 ;; Hardware stack levels used: 1
  1771 ;; Hardware stack levels required when called: 4
  1772 ;; This function calls:
  1773 ;;		Nothing
  1774 ;; This function is called by:
  1775 ;;		_SYSTEM_Initialize
  1776 ;; This function uses a non-reentrant model
  1777 ;;
  1778                           
  1779                           	psect	text9
  1780   006778                     __ptext9:
  1781                           	callstack 0
  1782   006778                     _PIN_MANAGER_Initialize:
  1783                           	callstack 121
  1784   006778                     
  1785                           ;mcc_generated_files/pin_manager.c: 60:     LATE = 0x00;
  1786   006778  0E00               	movlw	0
  1787   00677A  6EC2               	movwf	194,c	;volatile
  1788                           
  1789                           ;mcc_generated_files/pin_manager.c: 61:     LATD = 0x00;
  1790   00677C  0E00               	movlw	0
  1791   00677E  6EC1               	movwf	193,c	;volatile
  1792                           
  1793                           ;mcc_generated_files/pin_manager.c: 62:     LATA = 0x00;
  1794   006780  0E00               	movlw	0
  1795   006782  6EBE               	movwf	190,c	;volatile
  1796                           
  1797                           ;mcc_generated_files/pin_manager.c: 63:     LATF = 0x00;
  1798   006784  0E00               	movlw	0
  1799   006786  6EC3               	movwf	195,c	;volatile
  1800                           
  1801                           ;mcc_generated_files/pin_manager.c: 64:     LATB = 0x00;
  1802   006788  0E00               	movlw	0
  1803   00678A  6EBF               	movwf	191,c	;volatile
  1804                           
  1805                           ;mcc_generated_files/pin_manager.c: 65:     LATC = 0x00;
  1806   00678C  0E00               	movlw	0
  1807   00678E  6EC0               	movwf	192,c	;volatile
  1808                           
  1809                           ;mcc_generated_files/pin_manager.c: 70:     TRISE = 0x07;
  1810   006790  0E07               	movlw	7
  1811   006792  6ECA               	movwf	202,c	;volatile
  1812                           
  1813                           ;mcc_generated_files/pin_manager.c: 71:     TRISF = 0xF6;
  1814   006794  0EF6               	movlw	246
  1815   006796  6ECB               	movwf	203,c	;volatile
  1816   006798                     
  1817                           ;mcc_generated_files/pin_manager.c: 72:     TRISA = 0xFF;
  1818   006798  68C6               	setf	198,c	;volatile
  1819   00679A                     
  1820                           ;mcc_generated_files/pin_manager.c: 73:     TRISB = 0xFF;
  1821   00679A  68C7               	setf	199,c	;volatile
  1822   00679C                     
  1823                           ;mcc_generated_files/pin_manager.c: 74:     TRISC = 0xFF;
  1824   00679C  68C8               	setf	200,c	;volatile
  1825   00679E                     
  1826                           ;mcc_generated_files/pin_manager.c: 75:     TRISD = 0xFF;
  1827   00679E  68C9               	setf	201,c	;volatile
  1828   0067A0                     
  1829                           ;mcc_generated_files/pin_manager.c: 80:     ANSELD = 0xFF;
  1830   0067A0  0104               	movlb	4	; () banked
  1831   0067A2  6918               	setf	24,b	;volatile
  1832   0067A4                     
  1833                           ; BSR set to: 4
  1834                           ;mcc_generated_files/pin_manager.c: 81:     ANSELC = 0xFF;
  1835   0067A4  6910               	setf	16,b	;volatile
  1836   0067A6                     
  1837                           ; BSR set to: 4
  1838                           ;mcc_generated_files/pin_manager.c: 82:     ANSELB = 0xFF;
  1839   0067A6  6908               	setf	8,b	;volatile
  1840                           
  1841                           ;mcc_generated_files/pin_manager.c: 83:     ANSELE = 0x07;
  1842   0067A8  0E07               	movlw	7
  1843   0067AA  6F20               	movwf	32,b	;volatile
  1844                           
  1845                           ;mcc_generated_files/pin_manager.c: 84:     ANSELF = 0xF5;
  1846   0067AC  0EF5               	movlw	245
  1847   0067AE  6F28               	movwf	40,b	;volatile
  1848   0067B0                     
  1849                           ; BSR set to: 4
  1850                           ;mcc_generated_files/pin_manager.c: 85:     ANSELA = 0xFF;
  1851   0067B0  6900               	setf	0,b	;volatile
  1852                           
  1853                           ;mcc_generated_files/pin_manager.c: 90:     WPUD = 0x00;
  1854   0067B2  0E00               	movlw	0
  1855   0067B4  6F19               	movwf	25,b	;volatile
  1856                           
  1857                           ;mcc_generated_files/pin_manager.c: 91:     WPUF = 0x00;
  1858   0067B6  0E00               	movlw	0
  1859   0067B8  6F29               	movwf	41,b	;volatile
  1860                           
  1861                           ;mcc_generated_files/pin_manager.c: 92:     WPUE = 0x00;
  1862   0067BA  0E00               	movlw	0
  1863   0067BC  6F21               	movwf	33,b	;volatile
  1864                           
  1865                           ;mcc_generated_files/pin_manager.c: 93:     WPUB = 0x00;
  1866   0067BE  0E00               	movlw	0
  1867   0067C0  6F09               	movwf	9,b	;volatile
  1868                           
  1869                           ;mcc_generated_files/pin_manager.c: 94:     WPUA = 0x00;
  1870   0067C2  0E00               	movlw	0
  1871   0067C4  6F01               	movwf	1,b	;volatile
  1872                           
  1873                           ;mcc_generated_files/pin_manager.c: 95:     WPUC = 0x00;
  1874   0067C6  0E00               	movlw	0
  1875   0067C8  6F11               	movwf	17,b	;volatile
  1876                           
  1877                           ;mcc_generated_files/pin_manager.c: 100:     ODCONE = 0x00;
  1878   0067CA  0E00               	movlw	0
  1879   0067CC  6F22               	movwf	34,b	;volatile
  1880                           
  1881                           ;mcc_generated_files/pin_manager.c: 101:     ODCONF = 0x00;
  1882   0067CE  0E00               	movlw	0
  1883   0067D0  6F2A               	movwf	42,b	;volatile
  1884                           
  1885                           ;mcc_generated_files/pin_manager.c: 102:     ODCONA = 0x00;
  1886   0067D2  0E00               	movlw	0
  1887   0067D4  6F02               	movwf	2,b	;volatile
  1888                           
  1889                           ;mcc_generated_files/pin_manager.c: 103:     ODCONB = 0x00;
  1890   0067D6  0E00               	movlw	0
  1891   0067D8  6F0A               	movwf	10,b	;volatile
  1892                           
  1893                           ;mcc_generated_files/pin_manager.c: 104:     ODCONC = 0x00;
  1894   0067DA  0E00               	movlw	0
  1895   0067DC  6F12               	movwf	18,b	;volatile
  1896                           
  1897                           ;mcc_generated_files/pin_manager.c: 105:     ODCOND = 0x00;
  1898   0067DE  0E00               	movlw	0
  1899   0067E0  6F1A               	movwf	26,b	;volatile
  1900   0067E2                     
  1901                           ; BSR set to: 4
  1902                           ;mcc_generated_files/pin_manager.c: 110:     SLRCONA = 0xFF;
  1903   0067E2  6903               	setf	3,b	;volatile
  1904   0067E4                     
  1905                           ; BSR set to: 4
  1906                           ;mcc_generated_files/pin_manager.c: 111:     SLRCONB = 0xFF;
  1907   0067E4  690B               	setf	11,b	;volatile
  1908   0067E6                     
  1909                           ; BSR set to: 4
  1910                           ;mcc_generated_files/pin_manager.c: 112:     SLRCONC = 0xFF;
  1911   0067E6  6913               	setf	19,b	;volatile
  1912   0067E8                     
  1913                           ; BSR set to: 4
  1914                           ;mcc_generated_files/pin_manager.c: 113:     SLRCOND = 0xFF;
  1915   0067E8  691B               	setf	27,b	;volatile
  1916                           
  1917                           ;mcc_generated_files/pin_manager.c: 114:     SLRCONE = 0x07;
  1918   0067EA  0E07               	movlw	7
  1919   0067EC  6F23               	movwf	35,b	;volatile
  1920   0067EE                     
  1921                           ; BSR set to: 4
  1922                           ;mcc_generated_files/pin_manager.c: 115:     SLRCONF = 0xFF;
  1923   0067EE  692B               	setf	43,b	;volatile
  1924   0067F0                     
  1925                           ; BSR set to: 4
  1926                           ;mcc_generated_files/pin_manager.c: 120:     INLVLA = 0xFF;
  1927   0067F0  6904               	setf	4,b	;volatile
  1928   0067F2                     
  1929                           ; BSR set to: 4
  1930                           ;mcc_generated_files/pin_manager.c: 121:     INLVLB = 0xFF;
  1931   0067F2  690C               	setf	12,b	;volatile
  1932   0067F4                     
  1933                           ; BSR set to: 4
  1934                           ;mcc_generated_files/pin_manager.c: 122:     INLVLC = 0xFF;
  1935   0067F4  6914               	setf	20,b	;volatile
  1936   0067F6                     
  1937                           ; BSR set to: 4
  1938                           ;mcc_generated_files/pin_manager.c: 123:     INLVLD = 0xFF;
  1939   0067F6  691C               	setf	28,b	;volatile
  1940                           
  1941                           ;mcc_generated_files/pin_manager.c: 124:     INLVLE = 0x0F;
  1942   0067F8  0E0F               	movlw	15
  1943   0067FA  6F24               	movwf	36,b	;volatile
  1944   0067FC                     
  1945                           ; BSR set to: 4
  1946                           ;mcc_generated_files/pin_manager.c: 125:     INLVLF = 0xFF;
  1947   0067FC  692C               	setf	44,b	;volatile
  1948                           
  1949                           ;mcc_generated_files/pin_manager.c: 134:     RF0PPS = 0x20;
  1950   0067FE  0E20               	movlw	32
  1951   006800  0102               	movlb	2	; () banked
  1952   006802  6F29               	movwf	41,b	;volatile
  1953                           
  1954                           ;mcc_generated_files/pin_manager.c: 135:     U1RXPPS = 0x29;
  1955   006804  0E29               	movlw	41
  1956   006806  6F72               	movwf	114,b	;volatile
  1957   006808                     
  1958                           ; BSR set to: 2
  1959   006808  0012               	return		;funcret
  1960   00680A                     __end_of_PIN_MANAGER_Initialize:
  1961                           	callstack 0
  1962                           
  1963 ;; *************** function _OSCILLATOR_Initialize *****************
  1964 ;; Defined at:
  1965 ;;		line 61 in file "mcc_generated_files/mcc.c"
  1966 ;; Parameters:    Size  Location     Type
  1967 ;;		None
  1968 ;; Auto vars:     Size  Location     Type
  1969 ;;		None
  1970 ;; Return value:  Size  Location     Type
  1971 ;;                  1    wreg      void 
  1972 ;; Registers used:
  1973 ;;		wreg, status,2
  1974 ;; Tracked objects:
  1975 ;;		On entry : 0/0
  1976 ;;		On exit  : 0/0
  1977 ;;		Unchanged: 0/0
  1978 ;; Data sizes:     COMRAM   BANK5   BANK6   BANK7   BANK8   BANK9  BANK10  BANK11  BANK12  BANK13  BANK14  BANK15  BANK1
      +6  BANK17  BANK18  BANK19  BANK20  BANK21  BANK22  BANK23  BANK24  BANK25  BANK26  BANK27  BANK28  BANK29  BANK30  BANK3
      +1  BANK32  BANK33  BANK34  BANK35  BANK36  BANK37  BANK38  BANK39  BANK40  BANK41  BANK42  BANK43  BANK44  BANK45  BANK4
      +6  BANK47  BANK48  BANK49  BANK50  BANK51  BANK52  BANK53  BANK54
  1979 ;;      Params:         0       0       0       0       0       0       0       0       0       0       0       0       
      +0       0       0       0       0       0       0       0       0       0       0       0       0       0       0       
      +0       0       0       0       0       0       0       0       0       0       0       0       0       0       0       
      +0       0       0       0       0       0       0       0       0
  1980 ;;      Locals:         0       0       0       0       0       0       0       0       0       0       0       0       
      +0       0       0       0       0       0       0       0       0       0       0       0       0       0       0       
      +0       0       0       0       0       0       0       0       0       0       0       0       0       0       0       
      +0       0       0       0       0       0       0       0       0
  1981 ;;      Temps:          0       0       0       0       0       0       0       0       0       0       0       0       
      +0       0       0       0       0       0       0       0       0       0       0       0       0       0       0       
      +0       0       0       0       0       0       0       0       0       0       0       0       0       0       0       
      +0       0       0       0       0       0       0       0       0
  1982 ;;      Totals:         0       0       0       0       0       0       0       0       0       0       0       0       
      +0       0       0       0       0       0       0       0       0       0       0       0       0       0       0       
      +0       0       0       0       0       0       0       0       0       0       0       0       0       0       0       
      +0       0       0       0       0       0       0       0       0
  1983 ;;Total ram usage:        0 bytes
  1984 ;; Hardware stack levels used: 1
  1985 ;; Hardware stack levels required when called: 4
  1986 ;; This function calls:
  1987 ;;		Nothing
  1988 ;; This function is called by:
  1989 ;;		_SYSTEM_Initialize
  1990 ;; This function uses a non-reentrant model
  1991 ;;
  1992                           
  1993                           	psect	text10
  1994   006DC0                     __ptext10:
  1995                           	callstack 0
  1996   006DC0                     _OSCILLATOR_Initialize:
  1997                           	callstack 121
  1998   006DC0                     
  1999                           ;mcc_generated_files/mcc.c: 64:     OSCCON1 = 0x60;
  2000   006DC0  0E60               	movlw	96
  2001   006DC2  0100               	movlb	0	; () banked
  2002   006DC4  6FAD               	movwf	173,b	;volatile
  2003                           
  2004                           ;mcc_generated_files/mcc.c: 66:     OSCCON3 = 0x00;
  2005   006DC6  0E00               	movlw	0
  2006   006DC8  6FAF               	movwf	175,b	;volatile
  2007                           
  2008                           ;mcc_generated_files/mcc.c: 68:     OSCEN = 0x00;
  2009   006DCA  0E00               	movlw	0
  2010   006DCC  6FB3               	movwf	179,b	;volatile
  2011                           
  2012                           ;mcc_generated_files/mcc.c: 70:     OSCFRQ = 0x03;
  2013   006DCE  0E03               	movlw	3
  2014   006DD0  6FB1               	movwf	177,b	;volatile
  2015                           
  2016                           ;mcc_generated_files/mcc.c: 72:     OSCTUNE = 0x00;
  2017   006DD2  0E00               	movlw	0
  2018   006DD4  6FB0               	movwf	176,b	;volatile
  2019   006DD6                     
  2020                           ; BSR set to: 0
  2021   006DD6  0012               	return		;funcret
  2022   006DD8                     __end_of_OSCILLATOR_Initialize:
  2023                           	callstack 0
  2024                           
  2025 ;; *************** function _INTERRUPT_Initialize *****************
  2026 ;; Defined at:
  2027 ;;		line 52 in file "mcc_generated_files/interrupt_manager.c"
  2028 ;; Parameters:    Size  Location     Type
  2029 ;;		None
  2030 ;; Auto vars:     Size  Location     Type
  2031 ;;		None
  2032 ;; Return value:  Size  Location     Type
  2033 ;;                  1    wreg      void 
  2034 ;; Registers used:
  2035 ;;		None
  2036 ;; Tracked objects:
  2037 ;;		On entry : 0/0
  2038 ;;		On exit  : 0/0
  2039 ;;		Unchanged: 0/0
  2040 ;; Data sizes:     COMRAM   BANK5   BANK6   BANK7   BANK8   BANK9  BANK10  BANK11  BANK12  BANK13  BANK14  BANK15  BANK1
      +6  BANK17  BANK18  BANK19  BANK20  BANK21  BANK22  BANK23  BANK24  BANK25  BANK26  BANK27  BANK28  BANK29  BANK30  BANK3
      +1  BANK32  BANK33  BANK34  BANK35  BANK36  BANK37  BANK38  BANK39  BANK40  BANK41  BANK42  BANK43  BANK44  BANK45  BANK4
      +6  BANK47  BANK48  BANK49  BANK50  BANK51  BANK52  BANK53  BANK54
  2041 ;;      Params:         0       0       0       0       0       0       0       0       0       0       0       0       
      +0       0       0       0       0       0       0       0       0       0       0       0       0       0       0       
      +0       0       0       0       0       0       0       0       0       0       0       0       0       0       0       
      +0       0       0       0       0       0       0       0       0
  2042 ;;      Locals:         0       0       0       0       0       0       0       0       0       0       0       0       
      +0       0       0       0       0       0       0       0       0       0       0       0       0       0       0       
      +0       0       0       0       0       0       0       0       0       0       0       0       0       0       0       
      +0       0       0       0       0       0       0       0       0
  2043 ;;      Temps:          0       0       0       0       0       0       0       0       0       0       0       0       
      +0       0       0       0       0       0       0       0       0       0       0       0       0       0       0       
      +0       0       0       0       0       0       0       0       0       0       0       0       0       0       0       
      +0       0       0       0       0       0       0       0       0
  2044 ;;      Totals:         0       0       0       0       0       0       0       0       0       0       0       0       
      +0       0       0       0       0       0       0       0       0       0       0       0       0       0       0       
      +0       0       0       0       0       0       0       0       0       0       0       0       0       0       0       
      +0       0       0       0       0       0       0       0       0
  2045 ;;Total ram usage:        0 bytes
  2046 ;; Hardware stack levels used: 1
  2047 ;; Hardware stack levels required when called: 4
  2048 ;; This function calls:
  2049 ;;		Nothing
  2050 ;; This function is called by:
  2051 ;;		_SYSTEM_Initialize
  2052 ;; This function uses a non-reentrant model
  2053 ;;
  2054                           
  2055                           	psect	text11
  2056   006E68                     __ptext11:
  2057                           	callstack 0
  2058   006E68                     _INTERRUPT_Initialize:
  2059                           	callstack 121
  2060   006E68                     
  2061                           ;mcc_generated_files/interrupt_manager.c: 55:     INTCON0bits.IPEN = 0;
  2062   006E68  9AD6               	bcf	214,5,c	;volatile
  2063   006E6A  0012               	return		;funcret
  2064   006E6C                     __end_of_INTERRUPT_Initialize:
  2065                           	callstack 0
  2066                           
  2067 ;; *************** function _FVR_Initialize *****************
  2068 ;; Defined at:
  2069 ;;		line 58 in file "mcc_generated_files/fvr.c"
  2070 ;; Parameters:    Size  Location     Type
  2071 ;;		None
  2072 ;; Auto vars:     Size  Location     Type
  2073 ;;		None
  2074 ;; Return value:  Size  Location     Type
  2075 ;;                  1    wreg      void 
  2076 ;; Registers used:
  2077 ;;		wreg, status,2
  2078 ;; Tracked objects:
  2079 ;;		On entry : 0/0
  2080 ;;		On exit  : 0/0
  2081 ;;		Unchanged: 0/0
  2082 ;; Data sizes:     COMRAM   BANK5   BANK6   BANK7   BANK8   BANK9  BANK10  BANK11  BANK12  BANK13  BANK14  BANK15  BANK1
      +6  BANK17  BANK18  BANK19  BANK20  BANK21  BANK22  BANK23  BANK24  BANK25  BANK26  BANK27  BANK28  BANK29  BANK30  BANK3
      +1  BANK32  BANK33  BANK34  BANK35  BANK36  BANK37  BANK38  BANK39  BANK40  BANK41  BANK42  BANK43  BANK44  BANK45  BANK4
      +6  BANK47  BANK48  BANK49  BANK50  BANK51  BANK52  BANK53  BANK54
  2083 ;;      Params:         0       0       0       0       0       0       0       0       0       0       0       0       
      +0       0       0       0       0       0       0       0       0       0       0       0       0       0       0       
      +0       0       0       0       0       0       0       0       0       0       0       0       0       0       0       
      +0       0       0       0       0       0       0       0       0
  2084 ;;      Locals:         0       0       0       0       0       0       0       0       0       0       0       0       
      +0       0       0       0       0       0       0       0       0       0       0       0       0       0       0       
      +0       0       0       0       0       0       0       0       0       0       0       0       0       0       0       
      +0       0       0       0       0       0       0       0       0
  2085 ;;      Temps:          0       0       0       0       0       0       0       0       0       0       0       0       
      +0       0       0       0       0       0       0       0       0       0       0       0       0       0       0       
      +0       0       0       0       0       0       0       0       0       0       0       0       0       0       0       
      +0       0       0       0       0       0       0       0       0
  2086 ;;      Totals:         0       0       0       0       0       0       0       0       0       0       0       0       
      +0       0       0       0       0       0       0       0       0       0       0       0       0       0       0       
      +0       0       0       0       0       0       0       0       0       0       0       0       0       0       0       
      +0       0       0       0       0       0       0       0       0
  2087 ;;Total ram usage:        0 bytes
  2088 ;; Hardware stack levels used: 1
  2089 ;; Hardware stack levels required when called: 4
  2090 ;; This function calls:
  2091 ;;		Nothing
  2092 ;; This function is called by:
  2093 ;;		_SYSTEM_Initialize
  2094 ;; This function uses a non-reentrant model
  2095 ;;
  2096                           
  2097                           	psect	text12
  2098   006E52                     __ptext12:
  2099                           	callstack 0
  2100   006E52                     _FVR_Initialize:
  2101                           	callstack 121
  2102   006E52                     
  2103                           ;mcc_generated_files/fvr.c: 61:     FVRCON = 0xB2;
  2104   006E52  0EB2               	movlw	178
  2105   006E54  0103               	movlb	3	; () banked
  2106   006E56  6FD7               	movwf	215,b	;volatile
  2107   006E58                     
  2108                           ; BSR set to: 3
  2109   006E58  0012               	return		;funcret
  2110   006E5A                     __end_of_FVR_Initialize:
  2111                           	callstack 0
  2112                           
  2113 ;; *************** function _ADC_Initialize *****************
  2114 ;; Defined at:
  2115 ;;		line 65 in file "mcc_generated_files/adc.c"
  2116 ;; Parameters:    Size  Location     Type
  2117 ;;		None
  2118 ;; Auto vars:     Size  Location     Type
  2119 ;;		None
  2120 ;; Return value:  Size  Location     Type
  2121 ;;                  1    wreg      void 
  2122 ;; Registers used:
  2123 ;;		wreg, status,2, status,0, cstack
  2124 ;; Tracked objects:
  2125 ;;		On entry : 0/0
  2126 ;;		On exit  : 0/0
  2127 ;;		Unchanged: 0/0
  2128 ;; Data sizes:     COMRAM   BANK5   BANK6   BANK7   BANK8   BANK9  BANK10  BANK11  BANK12  BANK13  BANK14  BANK15  BANK1
      +6  BANK17  BANK18  BANK19  BANK20  BANK21  BANK22  BANK23  BANK24  BANK25  BANK26  BANK27  BANK28  BANK29  BANK30  BANK3
      +1  BANK32  BANK33  BANK34  BANK35  BANK36  BANK37  BANK38  BANK39  BANK40  BANK41  BANK42  BANK43  BANK44  BANK45  BANK4
      +6  BANK47  BANK48  BANK49  BANK50  BANK51  BANK52  BANK53  BANK54
  2129 ;;      Params:         0       0       0       0       0       0       0       0       0       0       0       0       
      +0       0       0       0       0       0       0       0       0       0       0       0       0       0       0       
      +0       0       0       0       0       0       0       0       0       0       0       0       0       0       0       
      +0       0       0       0       0       0       0       0       0
  2130 ;;      Locals:         0       0       0       0       0       0       0       0       0       0       0       0       
      +0       0       0       0       0       0       0       0       0       0       0       0       0       0       0       
      +0       0       0       0       0       0       0       0       0       0       0       0       0       0       0       
      +0       0       0       0       0       0       0       0       0
  2131 ;;      Temps:          0       0       0       0       0       0       0       0       0       0       0       0       
      +0       0       0       0       0       0       0       0       0       0       0       0       0       0       0       
      +0       0       0       0       0       0       0       0       0       0       0       0       0       0       0       
      +0       0       0       0       0       0       0       0       0
  2132 ;;      Totals:         0       0       0       0       0       0       0       0       0       0       0       0       
      +0       0       0       0       0       0       0       0       0       0       0       0       0       0       0       
      +0       0       0       0       0       0       0       0       0       0       0       0       0       0       0       
      +0       0       0       0       0       0       0       0       0
  2133 ;;Total ram usage:        0 bytes
  2134 ;; Hardware stack levels used: 1
  2135 ;; Hardware stack levels required when called: 5
  2136 ;; This function calls:
  2137 ;;		_ADC_SetADIInterruptHandler
  2138 ;;		_ADC_SetActiveClockTuningInterruptHandler
  2139 ;;		_ADC_SetContext1ThresholdInterruptHandler
  2140 ;; This function is called by:
  2141 ;;		_SYSTEM_Initialize
  2142 ;; This function uses a non-reentrant model
  2143 ;;
  2144                           
  2145                           	psect	text13
  2146   006564                     __ptext13:
  2147                           	callstack 0
  2148   006564                     _ADC_Initialize:
  2149                           	callstack 120
  2150   006564                     
  2151                           ;mcc_generated_files/adc.c: 68:     ADACT = 0x00;
  2152   006564  0E00               	movlw	0
  2153   006566  0103               	movlb	3	; () banked
  2154   006568  6FF9               	movwf	249,b	;volatile
  2155                           
  2156                           ;mcc_generated_files/adc.c: 71:     ADCLK = 0x00;
  2157   00656A  0E00               	movlw	0
  2158   00656C  6FFA               	movwf	250,b	;volatile
  2159                           
  2160                           ;mcc_generated_files/adc.c: 74:     ADCP = 0x00;
  2161   00656E  0E00               	movlw	0
  2162   006570  6FD8               	movwf	216,b	;volatile
  2163                           
  2164                           ;mcc_generated_files/adc.c: 80:     ADCTX = 0x0;
  2165   006572  0E00               	movlw	0
  2166   006574  6FFB               	movwf	251,b	;volatile
  2167                           
  2168                           ;mcc_generated_files/adc.c: 83:     ADLTHL = 0x00;
  2169   006576  0E00               	movlw	0
  2170   006578  6FD9               	movwf	217,b	;volatile
  2171                           
  2172                           ;mcc_generated_files/adc.c: 86:     ADLTHH = 0x00;
  2173   00657A  0E00               	movlw	0
  2174   00657C  6FDA               	movwf	218,b	;volatile
  2175                           
  2176                           ;mcc_generated_files/adc.c: 89:     ADUTHL = 0x00;
  2177   00657E  0E00               	movlw	0
  2178   006580  6FDB               	movwf	219,b	;volatile
  2179                           
  2180                           ;mcc_generated_files/adc.c: 92:     ADUTHH = 0x00;
  2181   006582  0E00               	movlw	0
  2182   006584  6FDC               	movwf	220,b	;volatile
  2183                           
  2184                           ;mcc_generated_files/adc.c: 95:     ADSTPTL = 0x00;
  2185   006586  0E00               	movlw	0
  2186   006588  6FDF               	movwf	223,b	;volatile
  2187                           
  2188                           ;mcc_generated_files/adc.c: 98:     ADSTPTH = 0x00;
  2189   00658A  0E00               	movlw	0
  2190   00658C  6FE0               	movwf	224,b	;volatile
  2191                           
  2192                           ;mcc_generated_files/adc.c: 101:     ADACCL = 0x00;
  2193   00658E  0E00               	movlw	0
  2194   006590  6FE3               	movwf	227,b	;volatile
  2195                           
  2196                           ;mcc_generated_files/adc.c: 104:     ADACCH = 0x00;
  2197   006592  0E00               	movlw	0
  2198   006594  6FE4               	movwf	228,b	;volatile
  2199                           
  2200                           ;mcc_generated_files/adc.c: 107:     ADACCU = 0x00;
  2201   006596  0E00               	movlw	0
  2202   006598  6FE5               	movwf	229,b	;volatile
  2203                           
  2204                           ;mcc_generated_files/adc.c: 110:     ADCNT = 0x00;
  2205   00659A  0E00               	movlw	0
  2206   00659C  6FE6               	movwf	230,b	;volatile
  2207                           
  2208                           ;mcc_generated_files/adc.c: 113:     ADRPT = 0x00;
  2209   00659E  0E00               	movlw	0
  2210   0065A0  6FE7               	movwf	231,b	;volatile
  2211                           
  2212                           ;mcc_generated_files/adc.c: 116:     ADRESL = 0x00;
  2213   0065A2  0E00               	movlw	0
  2214   0065A4  6FEA               	movwf	234,b	;volatile
  2215                           
  2216                           ;mcc_generated_files/adc.c: 119:     ADRESH = 0x00;
  2217   0065A6  0E00               	movlw	0
  2218   0065A8  6FEB               	movwf	235,b	;volatile
  2219                           
  2220                           ;mcc_generated_files/adc.c: 122:     ADPCH = 0x3C;
  2221   0065AA  0E3C               	movlw	60
  2222   0065AC  6FEC               	movwf	236,b	;volatile
  2223                           
  2224                           ;mcc_generated_files/adc.c: 125:     ADACQL = 0x00;
  2225   0065AE  0E00               	movlw	0
  2226   0065B0  6FEE               	movwf	238,b	;volatile
  2227                           
  2228                           ;mcc_generated_files/adc.c: 128:     ADACQH = 0x00;
  2229   0065B2  0E00               	movlw	0
  2230   0065B4  6FEF               	movwf	239,b	;volatile
  2231                           
  2232                           ;mcc_generated_files/adc.c: 131:     ADCAP = 0x00;
  2233   0065B6  0E00               	movlw	0
  2234   0065B8  6FF0               	movwf	240,b	;volatile
  2235                           
  2236                           ;mcc_generated_files/adc.c: 134:     ADPREL = 0x00;
  2237   0065BA  0E00               	movlw	0
  2238   0065BC  6FF1               	movwf	241,b	;volatile
  2239                           
  2240                           ;mcc_generated_files/adc.c: 137:     ADPREH = 0x00;
  2241   0065BE  0E00               	movlw	0
  2242   0065C0  6FF2               	movwf	242,b	;volatile
  2243                           
  2244                           ;mcc_generated_files/adc.c: 140:     ADCON0 = 0x00;
  2245   0065C2  0E00               	movlw	0
  2246   0065C4  6FF3               	movwf	243,b	;volatile
  2247                           
  2248                           ;mcc_generated_files/adc.c: 143:     ADCON1 = 0x00;
  2249   0065C6  0E00               	movlw	0
  2250   0065C8  6FF4               	movwf	244,b	;volatile
  2251                           
  2252                           ;mcc_generated_files/adc.c: 146:     ADCON2 = 0x10;
  2253   0065CA  0E10               	movlw	16
  2254   0065CC  6FF5               	movwf	245,b	;volatile
  2255                           
  2256                           ;mcc_generated_files/adc.c: 149:     ADCON3 = 0x00;
  2257   0065CE  0E00               	movlw	0
  2258   0065D0  6FF6               	movwf	246,b	;volatile
  2259                           
  2260                           ;mcc_generated_files/adc.c: 152:     ADSTAT = 0x00;
  2261   0065D2  0E00               	movlw	0
  2262   0065D4  6FF7               	movwf	247,b	;volatile
  2263                           
  2264                           ;mcc_generated_files/adc.c: 155:     ADREF = 0x03;
  2265   0065D6  0E03               	movlw	3
  2266   0065D8  6FF8               	movwf	248,b	;volatile
  2267                           
  2268                           ;mcc_generated_files/adc.c: 158:     ADCSEL1 = 0x00;
  2269   0065DA  0E00               	movlw	0
  2270   0065DC  6FFC               	movwf	252,b	;volatile
  2271   0065DE                     
  2272                           ; BSR set to: 3
  2273                           ;mcc_generated_files/adc.c: 161:     PIR1bits.ADIF = 0;
  2274   0065DE  94AF               	bcf	175,2,c	;volatile
  2275   0065E0                     
  2276                           ; BSR set to: 3
  2277                           ;mcc_generated_files/adc.c: 164:     PIR1bits.ACTIF = 0;
  2278   0065E0  96AF               	bcf	175,3,c	;volatile
  2279   0065E2                     
  2280                           ; BSR set to: 3
  2281                           ;mcc_generated_files/adc.c: 167:     PIR2bits.ADCH1IF = 0;
  2282   0065E2  90B0               	bcf	176,0,c	;volatile
  2283   0065E4                     
  2284                           ; BSR set to: 3
  2285                           ;mcc_generated_files/adc.c: 171:     ADC_SetADIInterruptHandler(ADC_DefaultADI_ISR);
  2286   0065E4  0E00               	movlw	0
  2287   0065E6  6E03               	movwf	ADC_SetADIInterruptHandler@InterruptHandler^(0+1280),c
  2288   0065E8  0E00               	movlw	0
  2289   0065EA  6E04               	movwf	(ADC_SetADIInterruptHandler@InterruptHandler+1)^(0+1280),c
  2290   0065EC  0E00               	movlw	0
  2291   0065EE  6E05               	movwf	(ADC_SetADIInterruptHandler@InterruptHandler+2)^(0+1280),c
  2292   0065F0  EC1D  F037         	call	_ADC_SetADIInterruptHandler	;wreg free
  2293   0065F4                     
  2294                           ;mcc_generated_files/adc.c: 172:     ADC_SetContext1ThresholdInterruptHandler(ADC_Defaul
      +                          tContext1Threshold_ISR);
  2295   0065F4  0E00               	movlw	0
  2296   0065F6  6E03               	movwf	ADC_SetContext1ThresholdInterruptHandler@InterruptHandler^(0+1280),c
  2297   0065F8  0E00               	movlw	0
  2298   0065FA  6E04               	movwf	(ADC_SetContext1ThresholdInterruptHandler@InterruptHandler+1)^(0+1280),c
  2299   0065FC  0E00               	movlw	0
  2300   0065FE  6E05               	movwf	(ADC_SetContext1ThresholdInterruptHandler@InterruptHandler+2)^(0+1280),c
  2301   006600  EC0F  F037         	call	_ADC_SetContext1ThresholdInterruptHandler	;wreg free
  2302   006604                     
  2303                           ;mcc_generated_files/adc.c: 173:     ADC_SetActiveClockTuningInterruptHandler(ADC_Defaul
      +                          tActiveClockTuning_ISR);
  2304   006604  0E00               	movlw	0
  2305   006606  6E03               	movwf	ADC_SetActiveClockTuningInterruptHandler@InterruptHandler^(0+1280),c
  2306   006608  0E00               	movlw	0
  2307   00660A  6E04               	movwf	(ADC_SetActiveClockTuningInterruptHandler@InterruptHandler+1)^(0+1280),c
  2308   00660C  0E00               	movlw	0
  2309   00660E  6E05               	movwf	(ADC_SetActiveClockTuningInterruptHandler@InterruptHandler+2)^(0+1280),c
  2310   006610  EC16  F037         	call	_ADC_SetActiveClockTuningInterruptHandler	;wreg free
  2311   006614                     
  2312                           ;mcc_generated_files/adc.c: 176:     ADCON0 = 0x94;
  2313   006614  0E94               	movlw	148
  2314   006616  0103               	movlb	3	; () banked
  2315   006618  6FF3               	movwf	243,b	;volatile
  2316   00661A                     
  2317                           ; BSR set to: 3
  2318   00661A  0012               	return		;funcret
  2319   00661C                     __end_of_ADC_Initialize:
  2320                           	callstack 0
  2321                           
  2322 ;; *************** function _ADC_SetContext1ThresholdInterruptHandler *****************
  2323 ;; Defined at:
  2324 ;;		line 423 in file "mcc_generated_files/adc.c"
  2325 ;; Parameters:    Size  Location     Type
  2326 ;;  InterruptHan    3    2[COMRAM] PTR FTN()void 
  2327 ;;		 -> ADC_DefaultContext1Threshold_ISR(1), 
  2328 ;; Auto vars:     Size  Location     Type
  2329 ;;		None
  2330 ;; Return value:  Size  Location     Type
  2331 ;;                  1    wreg      void 
  2332 ;; Registers used:
  2333 ;;		wreg, status,2, status,0
  2334 ;; Tracked objects:
  2335 ;;		On entry : 0/0
  2336 ;;		On exit  : 0/0
  2337 ;;		Unchanged: 0/0
  2338 ;; Data sizes:     COMRAM   BANK5   BANK6   BANK7   BANK8   BANK9  BANK10  BANK11  BANK12  BANK13  BANK14  BANK15  BANK1
      +6  BANK17  BANK18  BANK19  BANK20  BANK21  BANK22  BANK23  BANK24  BANK25  BANK26  BANK27  BANK28  BANK29  BANK30  BANK3
      +1  BANK32  BANK33  BANK34  BANK35  BANK36  BANK37  BANK38  BANK39  BANK40  BANK41  BANK42  BANK43  BANK44  BANK45  BANK4
      +6  BANK47  BANK48  BANK49  BANK50  BANK51  BANK52  BANK53  BANK54
  2339 ;;      Params:         3       0       0       0       0       0       0       0       0       0       0       0       
      +0       0       0       0       0       0       0       0       0       0       0       0       0       0       0       
      +0       0       0       0       0       0       0       0       0       0       0       0       0       0       0       
      +0       0       0       0       0       0       0       0       0
  2340 ;;      Locals:         0       0       0       0       0       0       0       0       0       0       0       0       
      +0       0       0       0       0       0       0       0       0       0       0       0       0       0       0       
      +0       0       0       0       0       0       0       0       0       0       0       0       0       0       0       
      +0       0       0       0       0       0       0       0       0
  2341 ;;      Temps:          0       0       0       0       0       0       0       0       0       0       0       0       
      +0       0       0       0       0       0       0       0       0       0       0       0       0       0       0       
      +0       0       0       0       0       0       0       0       0       0       0       0       0       0       0       
      +0       0       0       0       0       0       0       0       0
  2342 ;;      Totals:         3       0       0       0       0       0       0       0       0       0       0       0       
      +0       0       0       0       0       0       0       0       0       0       0       0       0       0       0       
      +0       0       0       0       0       0       0       0       0       0       0       0       0       0       0       
      +0       0       0       0       0       0       0       0       0
  2343 ;;Total ram usage:        3 bytes
  2344 ;; Hardware stack levels used: 1
  2345 ;; Hardware stack levels required when called: 4
  2346 ;; This function calls:
  2347 ;;		Nothing
  2348 ;; This function is called by:
  2349 ;;		_ADC_Initialize
  2350 ;; This function uses a non-reentrant model
  2351 ;;
  2352                           
  2353                           	psect	text14
  2354   006E1E                     __ptext14:
  2355                           	callstack 0
  2356   006E1E                     _ADC_SetContext1ThresholdInterruptHandler:
  2357                           	callstack 120
  2358   006E1E                     
  2359                           ;mcc_generated_files/adc.c: 423: void ADC_SetContext1ThresholdInterruptHandler(void (* I
      +                          nterruptHandler)(void));mcc_generated_files/adc.c: 424: {;mcc_generated_files/adc.c: 425
      +                          :     ADC_Context1Thereshld_ISR = InterruptHandler;
  2360   006E1E  C503  F5AE         	movff	ADC_SetContext1ThresholdInterruptHandler@InterruptHandler,_ADC_Context1Thereshld_
      +                          ISR
  2361   006E22  C504  F5AF         	movff	ADC_SetContext1ThresholdInterruptHandler@InterruptHandler+1,_ADC_Context1Thereshl
      +                          d_ISR+1
  2362   006E26  C505  F5B0         	movff	ADC_SetContext1ThresholdInterruptHandler@InterruptHandler+2,_ADC_Context1Thereshl
      +                          d_ISR+2
  2363   006E2A  0012               	return		;funcret
  2364   006E2C                     __end_of_ADC_SetContext1ThresholdInterruptHandler:
  2365                           	callstack 0
  2366                           
  2367 ;; *************** function _ADC_SetActiveClockTuningInterruptHandler *****************
  2368 ;; Defined at:
  2369 ;;		line 428 in file "mcc_generated_files/adc.c"
  2370 ;; Parameters:    Size  Location     Type
  2371 ;;  InterruptHan    3    2[COMRAM] PTR FTN()void 
  2372 ;;		 -> ADC_DefaultActiveClockTuning_ISR(1), 
  2373 ;; Auto vars:     Size  Location     Type
  2374 ;;		None
  2375 ;; Return value:  Size  Location     Type
  2376 ;;                  1    wreg      void 
  2377 ;; Registers used:
  2378 ;;		wreg, status,2, status,0
  2379 ;; Tracked objects:
  2380 ;;		On entry : 0/0
  2381 ;;		On exit  : 0/0
  2382 ;;		Unchanged: 0/0
  2383 ;; Data sizes:     COMRAM   BANK5   BANK6   BANK7   BANK8   BANK9  BANK10  BANK11  BANK12  BANK13  BANK14  BANK15  BANK1
      +6  BANK17  BANK18  BANK19  BANK20  BANK21  BANK22  BANK23  BANK24  BANK25  BANK26  BANK27  BANK28  BANK29  BANK30  BANK3
      +1  BANK32  BANK33  BANK34  BANK35  BANK36  BANK37  BANK38  BANK39  BANK40  BANK41  BANK42  BANK43  BANK44  BANK45  BANK4
      +6  BANK47  BANK48  BANK49  BANK50  BANK51  BANK52  BANK53  BANK54
  2384 ;;      Params:         3       0       0       0       0       0       0       0       0       0       0       0       
      +0       0       0       0       0       0       0       0       0       0       0       0       0       0       0       
      +0       0       0       0       0       0       0       0       0       0       0       0       0       0       0       
      +0       0       0       0       0       0       0       0       0
  2385 ;;      Locals:         0       0       0       0       0       0       0       0       0       0       0       0       
      +0       0       0       0       0       0       0       0       0       0       0       0       0       0       0       
      +0       0       0       0       0       0       0       0       0       0       0       0       0       0       0       
      +0       0       0       0       0       0       0       0       0
  2386 ;;      Temps:          0       0       0       0       0       0       0       0       0       0       0       0       
      +0       0       0       0       0       0       0       0       0       0       0       0       0       0       0       
      +0       0       0       0       0       0       0       0       0       0       0       0       0       0       0       
      +0       0       0       0       0       0       0       0       0
  2387 ;;      Totals:         3       0       0       0       0       0       0       0       0       0       0       0       
      +0       0       0       0       0       0       0       0       0       0       0       0       0       0       0       
      +0       0       0       0       0       0       0       0       0       0       0       0       0       0       0       
      +0       0       0       0       0       0       0       0       0
  2388 ;;Total ram usage:        3 bytes
  2389 ;; Hardware stack levels used: 1
  2390 ;; Hardware stack levels required when called: 4
  2391 ;; This function calls:
  2392 ;;		Nothing
  2393 ;; This function is called by:
  2394 ;;		_ADC_Initialize
  2395 ;; This function uses a non-reentrant model
  2396 ;;
  2397                           
  2398                           	psect	text15
  2399   006E2C                     __ptext15:
  2400                           	callstack 0
  2401   006E2C                     _ADC_SetActiveClockTuningInterruptHandler:
  2402                           	callstack 120
  2403   006E2C                     
  2404                           ;mcc_generated_files/adc.c: 428: void ADC_SetActiveClockTuningInterruptHandler(void (* I
      +                          nterruptHandler)(void));mcc_generated_files/adc.c: 429: {;mcc_generated_files/adc.c: 430
      +                          :     ADC_ActiveClockTuning_ISR = InterruptHandler;
  2405   006E2C  C503  F5AB         	movff	ADC_SetActiveClockTuningInterruptHandler@InterruptHandler,_ADC_ActiveClockTuning_
      +                          ISR
  2406   006E30  C504  F5AC         	movff	ADC_SetActiveClockTuningInterruptHandler@InterruptHandler+1,_ADC_ActiveClockTunin
      +                          g_ISR+1
  2407   006E34  C505  F5AD         	movff	ADC_SetActiveClockTuningInterruptHandler@InterruptHandler+2,_ADC_ActiveClockTunin
      +                          g_ISR+2
  2408   006E38  0012               	return		;funcret
  2409   006E3A                     __end_of_ADC_SetActiveClockTuningInterruptHandler:
  2410                           	callstack 0
  2411                           
  2412 ;; *************** function _ADC_SetADIInterruptHandler *****************
  2413 ;; Defined at:
  2414 ;;		line 418 in file "mcc_generated_files/adc.c"
  2415 ;; Parameters:    Size  Location     Type
  2416 ;;  InterruptHan    3    2[COMRAM] PTR FTN()void 
  2417 ;;		 -> ADC_DefaultADI_ISR(1), 
  2418 ;; Auto vars:     Size  Location     Type
  2419 ;;		None
  2420 ;; Return value:  Size  Location     Type
  2421 ;;                  1    wreg      void 
  2422 ;; Registers used:
  2423 ;;		wreg, status,2, status,0
  2424 ;; Tracked objects:
  2425 ;;		On entry : 0/0
  2426 ;;		On exit  : 0/0
  2427 ;;		Unchanged: 0/0
  2428 ;; Data sizes:     COMRAM   BANK5   BANK6   BANK7   BANK8   BANK9  BANK10  BANK11  BANK12  BANK13  BANK14  BANK15  BANK1
      +6  BANK17  BANK18  BANK19  BANK20  BANK21  BANK22  BANK23  BANK24  BANK25  BANK26  BANK27  BANK28  BANK29  BANK30  BANK3
      +1  BANK32  BANK33  BANK34  BANK35  BANK36  BANK37  BANK38  BANK39  BANK40  BANK41  BANK42  BANK43  BANK44  BANK45  BANK4
      +6  BANK47  BANK48  BANK49  BANK50  BANK51  BANK52  BANK53  BANK54
  2429 ;;      Params:         3       0       0       0       0       0       0       0       0       0       0       0       
      +0       0       0       0       0       0       0       0       0       0       0       0       0       0       0       
      +0       0       0       0       0       0       0       0       0       0       0       0       0       0       0       
      +0       0       0       0       0       0       0       0       0
  2430 ;;      Locals:         0       0       0       0       0       0       0       0       0       0       0       0       
      +0       0       0       0       0       0       0       0       0       0       0       0       0       0       0       
      +0       0       0       0       0       0       0       0       0       0       0       0       0       0       0       
      +0       0       0       0       0       0       0       0       0
  2431 ;;      Temps:          0       0       0       0       0       0       0       0       0       0       0       0       
      +0       0       0       0       0       0       0       0       0       0       0       0       0       0       0       
      +0       0       0       0       0       0       0       0       0       0       0       0       0       0       0       
      +0       0       0       0       0       0       0       0       0
  2432 ;;      Totals:         3       0       0       0       0       0       0       0       0       0       0       0       
      +0       0       0       0       0       0       0       0       0       0       0       0       0       0       0       
      +0       0       0       0       0       0       0       0       0       0       0       0       0       0       0       
      +0       0       0       0       0       0       0       0       0
  2433 ;;Total ram usage:        3 bytes
  2434 ;; Hardware stack levels used: 1
  2435 ;; Hardware stack levels required when called: 4
  2436 ;; This function calls:
  2437 ;;		Nothing
  2438 ;; This function is called by:
  2439 ;;		_ADC_Initialize
  2440 ;; This function uses a non-reentrant model
  2441 ;;
  2442                           
  2443                           	psect	text16
  2444   006E3A                     __ptext16:
  2445                           	callstack 0
  2446   006E3A                     _ADC_SetADIInterruptHandler:
  2447                           	callstack 120
  2448   006E3A                     
  2449                           ;mcc_generated_files/adc.c: 418: void ADC_SetADIInterruptHandler(void (* InterruptHandle
      +                          r)(void));mcc_generated_files/adc.c: 419: {;mcc_generated_files/adc.c: 420:     ADC_Conv
      +                          ersionComplete_ISR = InterruptHandler;
  2450   006E3A  C503  F5B1         	movff	ADC_SetADIInterruptHandler@InterruptHandler,_ADC_ConversionComplete_ISR
  2451   006E3E  C504  F5B2         	movff	ADC_SetADIInterruptHandler@InterruptHandler+1,_ADC_ConversionComplete_ISR+1
  2452   006E42  C505  F5B3         	movff	ADC_SetADIInterruptHandler@InterruptHandler+2,_ADC_ConversionComplete_ISR+2
  2453   006E46  0012               	return		;funcret
  2454   006E48                     __end_of_ADC_SetADIInterruptHandler:
  2455                           	callstack 0
  2456                           
  2457 ;; *************** function _FLASH_ReadWord *****************
  2458 ;; Defined at:
  2459 ;;		line 73 in file "mcc_generated_files/memory.c"
  2460 ;; Parameters:    Size  Location     Type
  2461 ;;  flashAddr       4    2[COMRAM] unsigned long 
  2462 ;; Auto vars:     Size  Location     Type
  2463 ;;  readWordH       1    9[COMRAM] unsigned char 
  2464 ;;  readWordL       1    8[COMRAM] unsigned char 
  2465 ;; Return value:  Size  Location     Type
  2466 ;;                  2    2[COMRAM] unsigned short 
  2467 ;; Registers used:
  2468 ;;		wreg, status,2
  2469 ;; Tracked objects:
  2470 ;;		On entry : 0/0
  2471 ;;		On exit  : 0/0
  2472 ;;		Unchanged: 0/0
  2473 ;; Data sizes:     COMRAM   BANK5   BANK6   BANK7   BANK8   BANK9  BANK10  BANK11  BANK12  BANK13  BANK14  BANK15  BANK1
      +6  BANK17  BANK18  BANK19  BANK20  BANK21  BANK22  BANK23  BANK24  BANK25  BANK26  BANK27  BANK28  BANK29  BANK30  BANK3
      +1  BANK32  BANK33  BANK34  BANK35  BANK36  BANK37  BANK38  BANK39  BANK40  BANK41  BANK42  BANK43  BANK44  BANK45  BANK4
      +6  BANK47  BANK48  BANK49  BANK50  BANK51  BANK52  BANK53  BANK54
  2474 ;;      Params:         4       0       0       0       0       0       0       0       0       0       0       0       
      +0       0       0       0       0       0       0       0       0       0       0       0       0       0       0       
      +0       0       0       0       0       0       0       0       0       0       0       0       0       0       0       
      +0       0       0       0       0       0       0       0       0
  2475 ;;      Locals:         2       0       0       0       0       0       0       0       0       0       0       0       
      +0       0       0       0       0       0       0       0       0       0       0       0       0       0       0       
      +0       0       0       0       0       0       0       0       0       0       0       0       0       0       0       
      +0       0       0       0       0       0       0       0       0
  2476 ;;      Temps:          2       0       0       0       0       0       0       0       0       0       0       0       
      +0       0       0       0       0       0       0       0       0       0       0       0       0       0       0       
      +0       0       0       0       0       0       0       0       0       0       0       0       0       0       0       
      +0       0       0       0       0       0       0       0       0
  2477 ;;      Totals:         8       0       0       0       0       0       0       0       0       0       0       0       
      +0       0       0       0       0       0       0       0       0       0       0       0       0       0       0       
      +0       0       0       0       0       0       0       0       0       0       0       0       0       0       0       
      +0       0       0       0       0       0       0       0       0
  2478 ;;Total ram usage:        8 bytes
  2479 ;; Hardware stack levels used: 1
  2480 ;; Hardware stack levels required when called: 4
  2481 ;; This function calls:
  2482 ;;		Nothing
  2483 ;; This function is called by:
  2484 ;;		_main
  2485 ;; This function uses a non-reentrant model
  2486 ;;
  2487                           
  2488                           	psect	text17
  2489   006D56                     __ptext17:
  2490                           	callstack 0
  2491   006D56                     _FLASH_ReadWord:
  2492                           	callstack 122
  2493   006D56                     
  2494                           ;mcc_generated_files/memory.c: 73: uint16_t FLASH_ReadWord(uint32_t flashAddr);mcc_gener
      +                          ated_files/memory.c: 74: {;mcc_generated_files/memory.c: 75:     uint8_t readWordL, read
      +                          WordH;;mcc_generated_files/memory.c: 78:     TBLPTRU = (uint8_t) ((flashAddr & 0x00FF000
      +                          0) >> 16);
  2495   006D56  C505  F4F8         	movff	FLASH_ReadWord@flashAddr+2,tblptru	;volatile
  2496                           
  2497                           ;mcc_generated_files/memory.c: 79:     TBLPTRH = (uint8_t) ((flashAddr & 0x0000FF00) >> 
      +                          8);
  2498   006D5A  C504  F4F7         	movff	FLASH_ReadWord@flashAddr+1,tblptrh	;volatile
  2499                           
  2500                           ;mcc_generated_files/memory.c: 80:     TBLPTRL = (uint8_t) (flashAddr & 0x000000FF);
  2501   006D5E  C503  F4F6         	movff	FLASH_ReadWord@flashAddr,tblptrl	;volatile
  2502   006D62  0009               	tblrd		*+	;# 
  2503                           
  2504                           ;mcc_generated_files/memory.c: 84:     readWordL = TABLAT;
  2505   006D64  C4F5 F509          	movff	tablat,FLASH_ReadWord@readWordL	;volatile
  2506   006D68  0008               	tblrd		*	;# 
  2507                           
  2508                           ;mcc_generated_files/memory.c: 88:     readWordH = TABLAT;
  2509   006D6A  C4F5 F50A          	movff	tablat,FLASH_ReadWord@readWordH	;volatile
  2510   006D6E                     
  2511                           ;mcc_generated_files/memory.c: 90:     return (((uint16_t) readWordH << 8) | (readWordL)
      +                          );
  2512   006D6E  500A               	movf	FLASH_ReadWord@readWordH^(0+1280),w,c
  2513   006D70  6E07               	movwf	??_FLASH_ReadWord^(0+1280),c
  2514   006D72  5009               	movf	FLASH_ReadWord@readWordL^(0+1280),w,c
  2515   006D74  6E03               	movwf	?_FLASH_ReadWord^(0+1280),c
  2516   006D76  C507  F504         	movff	??_FLASH_ReadWord,?_FLASH_ReadWord+1
  2517   006D7A  0012               	return		;funcret
  2518   006D7C                     __end_of_FLASH_ReadWord:
  2519                           	callstack 0
  2520                           
  2521 ;; *************** function _ADC_Temp_routine *****************
  2522 ;; Defined at:
  2523 ;;		line 59 in file "main.c"
  2524 ;; Parameters:    Size  Location     Type
  2525 ;;		None
  2526 ;; Auto vars:     Size  Location     Type
  2527 ;;		None
  2528 ;; Return value:  Size  Location     Type
  2529 ;;                  1    wreg      void 
  2530 ;; Registers used:
  2531 ;;		wreg, fsr1l, fsr1h, fsr2l, fsr2h, status,2, status,0, tblptrl, tblptrh, tblptru, prodl, prodh, cstack
  2532 ;; Tracked objects:
  2533 ;;		On entry : 0/0
  2534 ;;		On exit  : 0/0
  2535 ;;		Unchanged: 0/0
  2536 ;; Data sizes:     COMRAM   BANK5   BANK6   BANK7   BANK8   BANK9  BANK10  BANK11  BANK12  BANK13  BANK14  BANK15  BANK1
      +6  BANK17  BANK18  BANK19  BANK20  BANK21  BANK22  BANK23  BANK24  BANK25  BANK26  BANK27  BANK28  BANK29  BANK30  BANK3
      +1  BANK32  BANK33  BANK34  BANK35  BANK36  BANK37  BANK38  BANK39  BANK40  BANK41  BANK42  BANK43  BANK44  BANK45  BANK4
      +6  BANK47  BANK48  BANK49  BANK50  BANK51  BANK52  BANK53  BANK54
  2537 ;;      Params:         0       0       0       0       0       0       0       0       0       0       0       0       
      +0       0       0       0       0       0       0       0       0       0       0       0       0       0       0       
      +0       0       0       0       0       0       0       0       0       0       0       0       0       0       0       
      +0       0       0       0       0       0       0       0       0
  2538 ;;      Locals:         0       4       0       0       0       0       0       0       0       0       0       0       
      +0       0       0       0       0       0       0       0       0       0       0       0       0       0       0       
      +0       0       0       0       0       0       0       0       0       0       0       0       0       0       0       
      +0       0       0       0       0       0       0       0       0
  2539 ;;      Temps:          4       0       0       0       0       0       0       0       0       0       0       0       
      +0       0       0       0       0       0       0       0       0       0       0       0       0       0       0       
      +0       0       0       0       0       0       0       0       0       0       0       0       0       0       0       
      +0       0       0       0       0       0       0       0       0
  2540 ;;      Totals:         4       4       0       0       0       0       0       0       0       0       0       0       
      +0       0       0       0       0       0       0       0       0       0       0       0       0       0       0       
      +0       0       0       0       0       0       0       0       0       0       0       0       0       0       0       
      +0       0       0       0       0       0       0       0       0
  2541 ;;Total ram usage:        8 bytes
  2542 ;; Hardware stack levels used: 1
  2543 ;; Hardware stack levels required when called: 13
  2544 ;; This function calls:
  2545 ;;		_ADC_DischargeSampleCapacitor
  2546 ;;		_ADC_GetSingleConversion
  2547 ;;		___atdiv
  2548 ;;		___fladd
  2549 ;;		___fldiv
  2550 ;;		___flmul
  2551 ;;		___tmul
  2552 ;;		___xxtofl
  2553 ;;		_printf
  2554 ;; This function is called by:
  2555 ;;		_main
  2556 ;; This function uses a non-reentrant model
  2557 ;;
  2558                           
  2559                           	psect	text18
  2560   005BA8                     __ptext18:
  2561                           	callstack 0
  2562   005BA8                     _ADC_Temp_routine:
  2563                           	callstack 113
  2564   005BA8                     
  2565                           ;main.c: 82:         _delay((unsigned long)((1000)*(8000000/4000.0)));
  2566   005BA8  0E0B               	movlw	11
  2567   005BAA  6E4B               	movwf	(??_ADC_Temp_routine+1)^(0+1280),c
  2568   005BAC  0E26               	movlw	38
  2569   005BAE  6E4A               	movwf	??_ADC_Temp_routine^(0+1280),c
  2570   005BB0  0E5E               	movlw	94
  2571   005BB2                     u6097:
  2572   005BB2  2EE8               	decfsz	wreg,f,c
  2573   005BB4  D7FE               	bra	u6097
  2574   005BB6  2E4A               	decfsz	??_ADC_Temp_routine^(0+1280),f,c
  2575   005BB8  D7FC               	bra	u6097
  2576   005BBA  2E4B               	decfsz	(??_ADC_Temp_routine+1)^(0+1280),f,c
  2577   005BBC  D7FA               	bra	u6097
  2578   005BBE                     
  2579                           ;main.c: 83:         printf("Start ADC convert \r\n");
  2580   005BBE  0E4B               	movlw	low STR_1
  2581   005BC0  0105               	movlb	5	; () banked
  2582   005BC2  6F98               	movwf	printf@fmt& (0+255),b
  2583   005BC4  0E40               	movlw	high STR_1
  2584   005BC6  6F99               	movwf	(printf@fmt+1)& (0+255),b
  2585   005BC8  EC97  F036         	call	_printf	;wreg free
  2586   005BCC                     
  2587                           ;main.c: 87:         ADC_DischargeSampleCapacitor();
  2588   005BCC  EC2D  F037         	call	_ADC_DischargeSampleCapacitor	;wreg free
  2589   005BD0                     
  2590                           ;main.c: 88:         ADC_MEAS = ADC_GetSingleConversion(channel_Temp);
  2591   005BD0  0E3C               	movlw	60
  2592   005BD2  EC56  F036         	call	_ADC_GetSingleConversion
  2593   005BD6  C503  F5CE         	movff	?_ADC_GetSingleConversion,_ADC_MEAS
  2594   005BDA  C504  F5CF         	movff	?_ADC_GetSingleConversion+1,_ADC_MEAS+1
  2595   005BDE                     
  2596                           ;main.c: 90:         temp_c = (int24_t) (ADC_MEAS) * gain;
  2597   005BDE  C5CE  F503         	movff	_ADC_MEAS,___tmul@multiplier
  2598   005BE2  C5CF  F504         	movff	_ADC_MEAS+1,___tmul@multiplier+1
  2599   005BE6  6A05               	clrf	(___tmul@multiplier+2)^(0+1280),c
  2600   005BE8  C5BC  F506         	movff	_gain,___tmul@multiplicand
  2601   005BEC  C5BD  F507         	movff	_gain+1,___tmul@multiplicand+1
  2602   005BF0  6A08               	clrf	(___tmul@multiplicand+2)^(0+1280),c
  2603   005BF2  BE07               	btfsc	(___tmul@multiplicand+1)^(0+1280),7,c
  2604   005BF4  0608               	decf	(___tmul@multiplicand+2)^(0+1280),f,c
  2605   005BF6  ECEC  F034         	call	___tmul	;wreg free
  2606   005BFA  C503  F54E         	movff	?___tmul,_temp_c
  2607   005BFE  C504  F54F         	movff	?___tmul+1,_temp_c+1
  2608   005C02  C505  F550         	movff	?___tmul+2,_temp_c+2
  2609   005C06                     
  2610                           ;main.c: 92:         temp_c = temp_c / 256;
  2611   005C06  C54E  F503         	movff	_temp_c,___atdiv@dividend
  2612   005C0A  C54F  F504         	movff	_temp_c+1,___atdiv@dividend+1
  2613   005C0E  C550  F505         	movff	_temp_c+2,___atdiv@dividend+2
  2614   005C12  0E00               	movlw	0
  2615   005C14  6E06               	movwf	___atdiv@divisor^(0+1280),c
  2616   005C16  0E01               	movlw	1
  2617   005C18  6E07               	movwf	(___atdiv@divisor+1)^(0+1280),c
  2618   005C1A  0E00               	movlw	0
  2619   005C1C  6E08               	movwf	(___atdiv@divisor+2)^(0+1280),c
  2620   005C1E  EC0D  F031         	call	___atdiv	;wreg free
  2621   005C22  C503  F54E         	movff	?___atdiv,_temp_c
  2622   005C26  C504  F54F         	movff	?___atdiv+1,_temp_c+1
  2623   005C2A  C505  F550         	movff	?___atdiv+2,_temp_c+2
  2624   005C2E                     
  2625                           ;main.c: 94:         temp_c = temp_c + offset;
  2626   005C2E  C5BA  F54A         	movff	_offset,??_ADC_Temp_routine
  2627   005C32  C5BB  F54B         	movff	_offset+1,??_ADC_Temp_routine+1
  2628   005C36  6A4C               	clrf	(??_ADC_Temp_routine+2)^(0+1280),c
  2629   005C38  BE4B               	btfsc	(??_ADC_Temp_routine+1)^(0+1280),7,c
  2630   005C3A  684C               	setf	(??_ADC_Temp_routine+2)^(0+1280),c
  2631   005C3C  504E               	movf	_temp_c^(0+1280),w,c
  2632   005C3E  244A               	addwf	??_ADC_Temp_routine^(0+1280),w,c
  2633   005C40  6E4E               	movwf	_temp_c^(0+1280),c
  2634   005C42  504F               	movf	(_temp_c+1)^(0+1280),w,c
  2635   005C44  204B               	addwfc	(??_ADC_Temp_routine+1)^(0+1280),w,c
  2636   005C46  6E4F               	movwf	(_temp_c+1)^(0+1280),c
  2637   005C48  5050               	movf	(_temp_c+2)^(0+1280),w,c
  2638   005C4A  204C               	addwfc	(??_ADC_Temp_routine+2)^(0+1280),w,c
  2639   005C4C  6E50               	movwf	(_temp_c+2)^(0+1280),c
  2640   005C4E                     
  2641                           ;main.c: 96:         float_TempC = temp_c;
  2642   005C4E  C54E  F54A         	movff	_temp_c,??_ADC_Temp_routine
  2643   005C52  C54F  F54B         	movff	_temp_c+1,??_ADC_Temp_routine+1
  2644   005C56  C550  F54C         	movff	_temp_c+2,??_ADC_Temp_routine+2
  2645   005C5A  6A4D               	clrf	(??_ADC_Temp_routine+3)^(0+1280),c
  2646   005C5C  BE4C               	btfsc	(??_ADC_Temp_routine+2)^(0+1280),7,c
  2647   005C5E  684D               	setf	(??_ADC_Temp_routine+3)^(0+1280),c
  2648   005C60  C54A  F503         	movff	??_ADC_Temp_routine,___xxtofl@val
  2649   005C64  C54B  F504         	movff	??_ADC_Temp_routine+1,___xxtofl@val+1
  2650   005C68  C54C  F505         	movff	??_ADC_Temp_routine+2,___xxtofl@val+2
  2651   005C6C  C54D  F506         	movff	??_ADC_Temp_routine+3,___xxtofl@val+3
  2652   005C70  0E01               	movlw	1
  2653   005C72  ECAF  F02E         	call	___xxtofl
  2654   005C76  C503  F5C6         	movff	?___xxtofl,_float_TempC
  2655   005C7A  C504  F5C7         	movff	?___xxtofl+1,_float_TempC+1
  2656   005C7E  C505  F5C8         	movff	?___xxtofl+2,_float_TempC+2
  2657   005C82  C506  F5C9         	movff	?___xxtofl+3,_float_TempC+3
  2658   005C86                     
  2659                           ;main.c: 97:         float_TempC = float_TempC/10;
  2660   005C86  C5C6  F503         	movff	_float_TempC,___fldiv@b
  2661   005C8A  C5C7  F504         	movff	_float_TempC+1,___fldiv@b+1
  2662   005C8E  C5C8  F505         	movff	_float_TempC+2,___fldiv@b+2
  2663   005C92  C5C9  F506         	movff	_float_TempC+3,___fldiv@b+3
  2664   005C96  0E00               	movlw	0
  2665   005C98  6E07               	movwf	___fldiv@a^(0+1280),c
  2666   005C9A  0E00               	movlw	0
  2667   005C9C  6E08               	movwf	(___fldiv@a+1)^(0+1280),c
  2668   005C9E  0E20               	movlw	32
  2669   005CA0  6E09               	movwf	(___fldiv@a+2)^(0+1280),c
  2670   005CA2  0E41               	movlw	65
  2671   005CA4  6E0A               	movwf	(___fldiv@a+3)^(0+1280),c
  2672   005CA6  ECBD  F029         	call	___fldiv	;wreg free
  2673   005CAA  C503  F5C6         	movff	?___fldiv,_float_TempC
  2674   005CAE  C504  F5C7         	movff	?___fldiv+1,_float_TempC+1
  2675   005CB2  C505  F5C8         	movff	?___fldiv+2,_float_TempC+2
  2676   005CB6  C506  F5C9         	movff	?___fldiv+3,_float_TempC+3
  2677   005CBA                     
  2678                           ;main.c: 98:         printf("Device Temperature in DegC: %.2fC \r\n", float_TempC);
  2679   005CBA  0E01               	movlw	low STR_2
  2680   005CBC  0105               	movlb	5	; () banked
  2681   005CBE  6F98               	movwf	printf@fmt& (0+255),b
  2682   005CC0  0E40               	movlw	high STR_2
  2683   005CC2  6F99               	movwf	(printf@fmt+1)& (0+255),b
  2684   005CC4  C5C6  F59A         	movff	_float_TempC,?_printf+2
  2685   005CC8  C5C7  F59B         	movff	_float_TempC+1,?_printf+3
  2686   005CCC  C5C8  F59C         	movff	_float_TempC+2,?_printf+4
  2687   005CD0  C5C9  F59D         	movff	_float_TempC+3,?_printf+5
  2688   005CD4  EC97  F036         	call	_printf	;wreg free
  2689   005CD8                     
  2690                           ;main.c: 99:         printf("Device Temperature in DegF: %.2fF \r\n", (((float_TempC) * 
      +                          1.8) + 32));
  2691   005CD8  0E66               	movlw	102
  2692   005CDA  6E07               	movwf	___flmul@a^(0+1280),c
  2693   005CDC  0E66               	movlw	102
  2694   005CDE  6E08               	movwf	(___flmul@a+1)^(0+1280),c
  2695   005CE0  0EE6               	movlw	230
  2696   005CE2  6E09               	movwf	(___flmul@a+2)^(0+1280),c
  2697   005CE4  0E3F               	movlw	63
  2698   005CE6  6E0A               	movwf	(___flmul@a+3)^(0+1280),c
  2699   005CE8  C5C6  F503         	movff	_float_TempC,___flmul@b
  2700   005CEC  C5C7  F504         	movff	_float_TempC+1,___flmul@b+1
  2701   005CF0  C5C8  F505         	movff	_float_TempC+2,___flmul@b+2
  2702   005CF4  C5C9  F506         	movff	_float_TempC+3,___flmul@b+3
  2703   005CF8  ECA8  F027         	call	___flmul	;wreg free
  2704   005CFC  C503  F51C         	movff	?___flmul,___fladd@b
  2705   005D00  C504  F51D         	movff	?___flmul+1,___fladd@b+1
  2706   005D04  C505  F51E         	movff	?___flmul+2,___fladd@b+2
  2707   005D08  C506  F51F         	movff	?___flmul+3,___fladd@b+3
  2708   005D0C  0E00               	movlw	0
  2709   005D0E  6E20               	movwf	___fladd@a^(0+1280),c
  2710   005D10  0E00               	movlw	0
  2711   005D12  6E21               	movwf	(___fladd@a+1)^(0+1280),c
  2712   005D14  0E00               	movlw	0
  2713   005D16  6E22               	movwf	(___fladd@a+2)^(0+1280),c
  2714   005D18  0E42               	movlw	66
  2715   005D1A  6E23               	movwf	(___fladd@a+3)^(0+1280),c
  2716   005D1C  EC48  F025         	call	___fladd	;wreg free
  2717   005D20  C51C  F59E         	movff	?___fladd,_ADC_Temp_routine$2281
  2718   005D24  C51D  F59F         	movff	?___fladd+1,_ADC_Temp_routine$2281+1
  2719   005D28  C51E  F5A0         	movff	?___fladd+2,_ADC_Temp_routine$2281+2
  2720   005D2C  C51F  F5A1         	movff	?___fladd+3,_ADC_Temp_routine$2281+3
  2721   005D30                     
  2722                           ;main.c: 99:         printf("Device Temperature in DegF: %.2fF \r\n", (((float_TempC) * 
      +                          1.8) + 32));
  2723   005D30  0E26               	movlw	low STR_3
  2724   005D32  0105               	movlb	5	; () banked
  2725   005D34  6F98               	movwf	printf@fmt& (0+255),b
  2726   005D36  0E40               	movlw	high STR_3
  2727   005D38  6F99               	movwf	(printf@fmt+1)& (0+255),b
  2728   005D3A  C59E  F59A         	movff	_ADC_Temp_routine$2281,?_printf+2
  2729   005D3E  C59F  F59B         	movff	_ADC_Temp_routine$2281+1,?_printf+3
  2730   005D42  C5A0  F59C         	movff	_ADC_Temp_routine$2281+2,?_printf+4
  2731   005D46  C5A1  F59D         	movff	_ADC_Temp_routine$2281+3,?_printf+5
  2732   005D4A  EC97  F036         	call	_printf	;wreg free
  2733   005D4E                     
  2734                           ;main.c: 100:         printf("----- \r\n");
  2735   005D4E  0E60               	movlw	low STR_4
  2736   005D50  0105               	movlb	5	; () banked
  2737   005D52  6F98               	movwf	printf@fmt& (0+255),b
  2738   005D54  0E40               	movlw	high STR_4
  2739   005D56  6F99               	movwf	(printf@fmt+1)& (0+255),b
  2740   005D58  EC97  F036         	call	_printf	;wreg free
  2741   005D5C  0012               	return		;funcret
  2742   005D5E                     __end_of_ADC_Temp_routine:
  2743                           	callstack 0
  2744                           
  2745 ;; *************** function _printf *****************
  2746 ;; Defined at:
  2747 ;;		line 5 in file "/Applications/microchip/xc8/v2.41/pic/sources/c99/common/printf.c"
  2748 ;; Parameters:    Size  Location     Type
  2749 ;;  fmt             2   56[BANK5 ] PTR const unsigned char 
  2750 ;;		 -> STR_4(9), STR_3(37), STR_2(37), STR_1(21), 
  2751 ;; Auto vars:     Size  Location     Type
  2752 ;;  ap              2   71[COMRAM] PTR void [1]
  2753 ;;		 -> ?_printf(2), 
  2754 ;;  ret             2    0        int 
  2755 ;; Return value:  Size  Location     Type
  2756 ;;                  2   56[BANK5 ] int 
  2757 ;; Registers used:
  2758 ;;		wreg, fsr1l, fsr1h, fsr2l, fsr2h, status,2, status,0, tblptrl, tblptrh, tblptru, prodl, prodh, cstack
  2759 ;; Tracked objects:
  2760 ;;		On entry : 0/0
  2761 ;;		On exit  : 0/0
  2762 ;;		Unchanged: 0/0
  2763 ;; Data sizes:     COMRAM   BANK5   BANK6   BANK7   BANK8   BANK9  BANK10  BANK11  BANK12  BANK13  BANK14  BANK15  BANK1
      +6  BANK17  BANK18  BANK19  BANK20  BANK21  BANK22  BANK23  BANK24  BANK25  BANK26  BANK27  BANK28  BANK29  BANK30  BANK3
      +1  BANK32  BANK33  BANK34  BANK35  BANK36  BANK37  BANK38  BANK39  BANK40  BANK41  BANK42  BANK43  BANK44  BANK45  BANK4
      +6  BANK47  BANK48  BANK49  BANK50  BANK51  BANK52  BANK53  BANK54
  2764 ;;      Params:         0       6       0       0       0       0       0       0       0       0       0       0       
      +0       0       0       0       0       0       0       0       0       0       0       0       0       0       0       
      +0       0       0       0       0       0       0       0       0       0       0       0       0       0       0       
      +0       0       0       0       0       0       0       0       0
  2765 ;;      Locals:         2       0       0       0       0       0       0       0       0       0       0       0       
      +0       0       0       0       0       0       0       0       0       0       0       0       0       0       0       
      +0       0       0       0       0       0       0       0       0       0       0       0       0       0       0       
      +0       0       0       0       0       0       0       0       0
  2766 ;;      Temps:          0       0       0       0       0       0       0       0       0       0       0       0       
      +0       0       0       0       0       0       0       0       0       0       0       0       0       0       0       
      +0       0       0       0       0       0       0       0       0       0       0       0       0       0       0       
      +0       0       0       0       0       0       0       0       0
  2767 ;;      Totals:         2       6       0       0       0       0       0       0       0       0       0       0       
      +0       0       0       0       0       0       0       0       0       0       0       0       0       0       0       
      +0       0       0       0       0       0       0       0       0       0       0       0       0       0       0       
      +0       0       0       0       0       0       0       0       0
  2768 ;;Total ram usage:        8 bytes
  2769 ;; Hardware stack levels used: 1
  2770 ;; Hardware stack levels required when called: 12
  2771 ;; This function calls:
  2772 ;;		_vfprintf
  2773 ;; This function is called by:
  2774 ;;		_ADC_Temp_routine
  2775 ;; This function uses a non-reentrant model
  2776 ;;
  2777                           
  2778                           	psect	text19
  2779   006D2E                     __ptext19:
  2780                           	callstack 0
  2781   006D2E                     _printf:
  2782                           	callstack 113
  2783   006D2E  0E9A               	movlw	low (?_printf+2)
  2784   006D30  6E48               	movwf	printf@ap^(0+1280),c
  2785   006D32  0E05               	movlw	high (?_printf+2)
  2786   006D34  6E49               	movwf	(printf@ap+1)^(0+1280),c
  2787   006D36  0E00               	movlw	0
  2788   006D38  0105               	movlb	5	; () banked
  2789   006D3A  6F92               	movwf	vfprintf@fp& (0+255),b
  2790   006D3C  0E00               	movlw	0
  2791   006D3E  6F93               	movwf	(vfprintf@fp+1)& (0+255),b
  2792   006D40  C598  F594         	movff	printf@fmt,vfprintf@fmt
  2793   006D44  C599  F595         	movff	printf@fmt+1,vfprintf@fmt+1
  2794   006D48  0E48               	movlw	low printf@ap
  2795   006D4A  6F96               	movwf	vfprintf@ap& (0+255),b
  2796   006D4C  0E05               	movlw	high printf@ap
  2797   006D4E  6F97               	movwf	(vfprintf@ap+1)& (0+255),b
  2798   006D50  EC18  F035         	call	_vfprintf	;wreg free
  2799   006D54  0012               	return		;funcret
  2800   006D56                     __end_of_printf:
  2801                           	callstack 0
  2802                           
  2803 ;; *************** function _vfprintf *****************
  2804 ;; Defined at:
  2805 ;;		line 1546 in file "/Applications/microchip/xc8/v2.41/pic/sources/c99/common/doprnt.c"
  2806 ;; Parameters:    Size  Location     Type
  2807 ;;  fp              2   50[BANK5 ] PTR struct _IO_FILE
  2808 ;;		 -> NULL(0), 
  2809 ;;  fmt             2   52[BANK5 ] PTR const unsigned char 
  2810 ;;		 -> STR_4(9), STR_3(37), STR_2(37), STR_1(21), 
  2811 ;;  ap              2   54[BANK5 ] PTR PTR void 
  2812 ;;		 -> printf@ap(2), 
  2813 ;; Auto vars:     Size  Location     Type
  2814 ;;  cfmt            2   69[COMRAM] PTR unsigned char 
  2815 ;;		 -> STR_4(9), STR_3(37), STR_2(37), STR_1(21), 
  2816 ;; Return value:  Size  Location     Type
  2817 ;;                  2   50[BANK5 ] int 
  2818 ;; Registers used:
  2819 ;;		wreg, fsr1l, fsr1h, fsr2l, fsr2h, status,2, status,0, tblptrl, tblptrh, tblptru, prodl, prodh, cstack
  2820 ;; Tracked objects:
  2821 ;;		On entry : 0/0
  2822 ;;		On exit  : 0/0
  2823 ;;		Unchanged: 0/0
  2824 ;; Data sizes:     COMRAM   BANK5   BANK6   BANK7   BANK8   BANK9  BANK10  BANK11  BANK12  BANK13  BANK14  BANK15  BANK1
      +6  BANK17  BANK18  BANK19  BANK20  BANK21  BANK22  BANK23  BANK24  BANK25  BANK26  BANK27  BANK28  BANK29  BANK30  BANK3
      +1  BANK32  BANK33  BANK34  BANK35  BANK36  BANK37  BANK38  BANK39  BANK40  BANK41  BANK42  BANK43  BANK44  BANK45  BANK4
      +6  BANK47  BANK48  BANK49  BANK50  BANK51  BANK52  BANK53  BANK54
  2825 ;;      Params:         0       6       0       0       0       0       0       0       0       0       0       0       
      +0       0       0       0       0       0       0       0       0       0       0       0       0       0       0       
      +0       0       0       0       0       0       0       0       0       0       0       0       0       0       0       
      +0       0       0       0       0       0       0       0       0
  2826 ;;      Locals:         2       0       0       0       0       0       0       0       0       0       0       0       
      +0       0       0       0       0       0       0       0       0       0       0       0       0       0       0       
      +0       0       0       0       0       0       0       0       0       0       0       0       0       0       0       
      +0       0       0       0       0       0       0       0       0
  2827 ;;      Temps:          0       0       0       0       0       0       0       0       0       0       0       0       
      +0       0       0       0       0       0       0       0       0       0       0       0       0       0       0       
      +0       0       0       0       0       0       0       0       0       0       0       0       0       0       0       
      +0       0       0       0       0       0       0       0       0
  2828 ;;      Totals:         2       6       0       0       0       0       0       0       0       0       0       0       
      +0       0       0       0       0       0       0       0       0       0       0       0       0       0       0       
      +0       0       0       0       0       0       0       0       0       0       0       0       0       0       0       
      +0       0       0       0       0       0       0       0       0
  2829 ;;Total ram usage:        8 bytes
  2830 ;; Hardware stack levels used: 1
  2831 ;; Hardware stack levels required when called: 11
  2832 ;; This function calls:
  2833 ;;		_vfpfcnvrt
  2834 ;; This function is called by:
  2835 ;;		_printf
  2836 ;; This function uses a non-reentrant model
  2837 ;;
  2838                           
  2839                           	psect	text20
  2840   006A30                     __ptext20:
  2841                           	callstack 0
  2842   006A30                     _vfprintf:
  2843                           	callstack 113
  2844   006A30                     
  2845                           ;/Applications/microchip/xc8/v2.41/pic/sources/c99/common/doprnt.c: 1546: int vfprintf(F
      +                          ILE *fp, const char *fmt, va_list ap);/Applications/microchip/xc8/v2.41/pic/sources/c99/
      +                          common/doprnt.c: 1547: {;/Applications/microchip/xc8/v2.41/pic/sources/c99/common/doprnt
      +                          .c: 1549:     char *cfmt;;/Applications/microchip/xc8/v2.41/pic/sources/c99/common/doprn
      +                          t.c: 1551:     cfmt = (char *)fmt;
  2846   006A30  C594  F546         	movff	vfprintf@fmt,vfprintf@cfmt
  2847   006A34  C595  F547         	movff	vfprintf@fmt+1,vfprintf@cfmt+1
  2848                           
  2849                           ;/Applications/microchip/xc8/v2.41/pic/sources/c99/common/doprnt.c: 1555:     while (*cf
      +                          mt) {
  2850   006A38  EF2D  F035         	goto	l5948
  2851   006A3C                     l5946:
  2852                           
  2853                           ;/Applications/microchip/xc8/v2.41/pic/sources/c99/common/doprnt.c: 1559:    vfpfcnvrt(f
      +                          p, &cfmt, ap);
  2854   006A3C  C592  F58C         	movff	vfprintf@fp,vfpfcnvrt@fp
  2855   006A40  C593  F58D         	movff	vfprintf@fp+1,vfpfcnvrt@fp+1
  2856   006A44  0E46               	movlw	low vfprintf@cfmt
  2857   006A46  0105               	movlb	5	; () banked
  2858   006A48  6F8E               	movwf	vfpfcnvrt@fmt& (0+255),b
  2859   006A4A  0E05               	movlw	high vfprintf@cfmt
  2860   006A4C  6F8F               	movwf	(vfpfcnvrt@fmt+1)& (0+255),b
  2861   006A4E  C596  F590         	movff	vfprintf@ap,vfpfcnvrt@ap
  2862   006A52  C597  F591         	movff	vfprintf@ap+1,vfpfcnvrt@ap+1
  2863   006A56  EC8A  F02B         	call	_vfpfcnvrt	;wreg free
  2864   006A5A                     l5948:
  2865                           
  2866                           ;/Applications/microchip/xc8/v2.41/pic/sources/c99/common/doprnt.c: 1555:     while (*cf
      +                          mt) {
  2867   006A5A  C546  F4F6         	movff	vfprintf@cfmt,tblptrl
  2868   006A5E  C547  F4F7         	movff	vfprintf@cfmt+1,tblptrh
  2869   006A62                     	if	0	;tblptru may be non-zero
  2870   006A62                     	endif
  2871   006A62                     	if	1	;Program memory is > 0xFFFF, there are 3 active tblptr bytes
  2872   006A62  0E00               	movlw	low (__mediumconst shr (0+16))
  2873   006A64  6EF8               	movwf	tblptru,c
  2874   006A66                     	endif
  2875   006A66  0008               	tblrd		*
  2876   006A68  50F5               	movf	tablat,w,c
  2877   006A6A  0900               	iorlw	0
  2878   006A6C  A4D8               	btfss	status,2,c
  2879   006A6E  EF3B  F035         	goto	u5881
  2880   006A72  EF3D  F035         	goto	u5880
  2881   006A76                     u5881:
  2882   006A76  EF1E  F035         	goto	l5946
  2883   006A7A                     u5880:
  2884   006A7A                     
  2885                           ;/Applications/microchip/xc8/v2.41/pic/sources/c99/common/doprnt.c: 1564:  return 0;
  2886   006A7A  0E00               	movlw	0
  2887   006A7C  0105               	movlb	5	; () banked
  2888   006A7E  6F93               	movwf	(?_vfprintf+1)& (0+255),b
  2889   006A80  0E00               	movlw	0
  2890   006A82  6F92               	movwf	?_vfprintf& (0+255),b
  2891   006A84                     
  2892                           ; BSR set to: 5
  2893   006A84  0012               	return		;funcret
  2894   006A86                     __end_of_vfprintf:
  2895                           	callstack 0
  2896                           
  2897 ;; *************** function _vfpfcnvrt *****************
  2898 ;; Defined at:
  2899 ;;		line 1048 in file "/Applications/microchip/xc8/v2.41/pic/sources/c99/common/doprnt.c"
  2900 ;; Parameters:    Size  Location     Type
  2901 ;;  fp              2   44[BANK5 ] PTR struct _IO_FILE
  2902 ;;		 -> NULL(0), 
  2903 ;;  fmt             2   46[BANK5 ] PTR PTR unsigned char 
  2904 ;;		 -> vfprintf@cfmt(2), 
  2905 ;;  ap              2   48[BANK5 ] PTR PTR void 
  2906 ;;		 -> printf@ap(2), 
  2907 ;; Auto vars:     Size  Location     Type
  2908 ;;  convarg         4   62[COMRAM] struct .
  2909 ;;  cp              2   67[COMRAM] PTR unsigned char 
  2910 ;;		 -> STR_4(9), STR_3(37), STR_2(37), STR_1(21), 
  2911 ;;  i               2    0        int 
  2912 ;;  done            2    0        int 
  2913 ;;  c               1   66[COMRAM] unsigned char 
  2914 ;; Return value:  Size  Location     Type
  2915 ;;                  1    wreg      void 
  2916 ;; Registers used:
  2917 ;;		wreg, fsr1l, fsr1h, fsr2l, fsr2h, status,2, status,0, tblptrl, tblptrh, tblptru, prodl, prodh, cstack
  2918 ;; Tracked objects:
  2919 ;;		On entry : 0/0
  2920 ;;		On exit  : 0/0
  2921 ;;		Unchanged: 0/0
  2922 ;; Data sizes:     COMRAM   BANK5   BANK6   BANK7   BANK8   BANK9  BANK10  BANK11  BANK12  BANK13  BANK14  BANK15  BANK1
      +6  BANK17  BANK18  BANK19  BANK20  BANK21  BANK22  BANK23  BANK24  BANK25  BANK26  BANK27  BANK28  BANK29  BANK30  BANK3
      +1  BANK32  BANK33  BANK34  BANK35  BANK36  BANK37  BANK38  BANK39  BANK40  BANK41  BANK42  BANK43  BANK44  BANK45  BANK4
      +6  BANK47  BANK48  BANK49  BANK50  BANK51  BANK52  BANK53  BANK54
  2923 ;;      Params:         0       6       0       0       0       0       0       0       0       0       0       0       
      +0       0       0       0       0       0       0       0       0       0       0       0       0       0       0       
      +0       0       0       0       0       0       0       0       0       0       0       0       0       0       0       
      +0       0       0       0       0       0       0       0       0
  2924 ;;      Locals:         7       0       0       0       0       0       0       0       0       0       0       0       
      +0       0       0       0       0       0       0       0       0       0       0       0       0       0       0       
      +0       0       0       0       0       0       0       0       0       0       0       0       0       0       0       
      +0       0       0       0       0       0       0       0       0
  2925 ;;      Temps:          2       0       0       0       0       0       0       0       0       0       0       0       
      +0       0       0       0       0       0       0       0       0       0       0       0       0       0       0       
      +0       0       0       0       0       0       0       0       0       0       0       0       0       0       0       
      +0       0       0       0       0       0       0       0       0
  2926 ;;      Totals:         9       6       0       0       0       0       0       0       0       0       0       0       
      +0       0       0       0       0       0       0       0       0       0       0       0       0       0       0       
      +0       0       0       0       0       0       0       0       0       0       0       0       0       0       0       
      +0       0       0       0       0       0       0       0       0
  2927 ;;Total ram usage:       15 bytes
  2928 ;; Hardware stack levels used: 1
  2929 ;; Hardware stack levels required when called: 10
  2930 ;; This function calls:
  2931 ;;		_efgtoa
  2932 ;;		_fputc
  2933 ;;		_read_prec_or_width
  2934 ;; This function is called by:
  2935 ;;		_vfprintf
  2936 ;; This function uses a non-reentrant model
  2937 ;;
  2938                           
  2939                           	psect	text21
  2940   005714                     __ptext21:
  2941                           	callstack 0
  2942   005714                     _vfpfcnvrt:
  2943                           	callstack 113
  2944   005714                     
  2945                           ;/Applications/microchip/xc8/v2.41/pic/sources/c99/common/doprnt.c: 1048: vfpfcnvrt(FILE
      +                           *fp, char *fmt[], va_list ap);/Applications/microchip/xc8/v2.41/pic/sources/c99/common/
      +                          doprnt.c: 1049: {;/Applications/microchip/xc8/v2.41/pic/sources/c99/common/doprnt.c: 105
      +                          0:     char c, *cp;;/Applications/microchip/xc8/v2.41/pic/sources/c99/common/doprnt.c: 1
      +                          051:     int done, i;;/Applications/microchip/xc8/v2.41/pic/sources/c99/common/doprnt.c:
      +                           1059:  } convarg;;/Applications/microchip/xc8/v2.41/pic/sources/c99/common/doprnt.c: 10
      +                          62:     if ((*fmt)[0] == '%') {
  2946   005714  C58E  F4D9         	movff	vfpfcnvrt@fmt,fsr2l
  2947   005718  C58F  F4DA         	movff	vfpfcnvrt@fmt+1,fsr2h
  2948   00571C  C4DE F4F6          	movff	postinc2,tblptrl
  2949   005720  C4DD F4F7          	movff	postdec2,tblptrh
  2950   005724                     	if	0	;tblptru may be non-zero
  2951   005724                     	endif
  2952   005724                     	if	1	;Program memory is > 0xFFFF, there are 3 active tblptr bytes
  2953   005724  0E00               	movlw	low (__mediumconst shr (0+16))
  2954   005726  6EF8               	movwf	tblptru,c
  2955   005728                     	endif
  2956   005728  0008               	tblrd		*
  2957   00572A  50F5               	movf	tablat,w,c
  2958   00572C  0A25               	xorlw	37
  2959   00572E  A4D8               	btfss	status,2,c
  2960   005730  EF9C  F02B         	goto	u5851
  2961   005734  EF9E  F02B         	goto	u5850
  2962   005738                     u5851:
  2963   005738  EFB4  F02C         	goto	l5908
  2964   00573C                     u5850:
  2965   00573C                     
  2966                           ;/Applications/microchip/xc8/v2.41/pic/sources/c99/common/doprnt.c: 1063:         ++*fmt
      +                          ;
  2967   00573C  C58E  F4D9         	movff	vfpfcnvrt@fmt,fsr2l
  2968   005740  C58F  F4DA         	movff	vfpfcnvrt@fmt+1,fsr2h
  2969   005744  2ADE               	incf	postinc2,f,c
  2970   005746  0E00               	movlw	0
  2971   005748  22DD               	addwfc	postdec2,f,c
  2972   00574A                     
  2973                           ;/Applications/microchip/xc8/v2.41/pic/sources/c99/common/doprnt.c: 1065:         flags 
      +                          = width = 0;
  2974   00574A  0E00               	movlw	0
  2975   00574C  0105               	movlb	5	; () banked
  2976   00574E  6FCB               	movwf	(_width+1)& (0+255),b
  2977   005750  0E00               	movlw	0
  2978   005752  6FCA               	movwf	_width& (0+255),b
  2979   005754  C5CA  F5D0         	movff	_width,_flags
  2980   005758                     
  2981                           ; BSR set to: 5
  2982                           ;/Applications/microchip/xc8/v2.41/pic/sources/c99/common/doprnt.c: 1066:         prec =
      +                           -1;
  2983   005758  69CC               	setf	_prec& (0+255),b
  2984   00575A  69CD               	setf	(_prec+1)& (0+255),b
  2985   00575C                     
  2986                           ; BSR set to: 5
  2987                           ;/Applications/microchip/xc8/v2.41/pic/sources/c99/common/doprnt.c: 1126:         if ((*
      +                          fmt)[0] == '.') {
  2988   00575C  C58E  F4D9         	movff	vfpfcnvrt@fmt,fsr2l
  2989   005760  C58F  F4DA         	movff	vfpfcnvrt@fmt+1,fsr2h
  2990   005764  C4DE F4F6          	movff	postinc2,tblptrl
  2991   005768  C4DD F4F7          	movff	postdec2,tblptrh
  2992   00576C                     	if	0	;tblptru may be non-zero
  2993   00576C                     	endif
  2994   00576C                     	if	1	;Program memory is > 0xFFFF, there are 3 active tblptr bytes
  2995   00576C  0E00               	movlw	low (__mediumconst shr (0+16))
  2996   00576E  6EF8               	movwf	tblptru,c
  2997   005770                     	endif
  2998   005770  0008               	tblrd		*
  2999   005772  50F5               	movf	tablat,w,c
  3000   005774  0A2E               	xorlw	46
  3001   005776  A4D8               	btfss	status,2,c
  3002   005778  EFC0  F02B         	goto	u5861
  3003   00577C  EFC2  F02B         	goto	u5860
  3004   005780                     u5861:
  3005   005780  EFD7  F02B         	goto	l5870
  3006   005784                     u5860:
  3007   005784                     
  3008                           ; BSR set to: 5
  3009                           ;/Applications/microchip/xc8/v2.41/pic/sources/c99/common/doprnt.c: 1127:             ++
      +                          *fmt;
  3010   005784  C58E  F4D9         	movff	vfpfcnvrt@fmt,fsr2l
  3011   005788  C58F  F4DA         	movff	vfpfcnvrt@fmt+1,fsr2h
  3012   00578C  2ADE               	incf	postinc2,f,c
  3013   00578E  0E00               	movlw	0
  3014   005790  22DD               	addwfc	postdec2,f,c
  3015   005792                     
  3016                           ; BSR set to: 5
  3017                           ;/Applications/microchip/xc8/v2.41/pic/sources/c99/common/doprnt.c: 1128:    prec = read
      +                          _prec_or_width(fmt, ap);
  3018   005792  C58E  F509         	movff	vfpfcnvrt@fmt,read_prec_or_width@fmt
  3019   005796  C58F  F50A         	movff	vfpfcnvrt@fmt+1,read_prec_or_width@fmt+1
  3020   00579A  C590  F50B         	movff	vfpfcnvrt@ap,read_prec_or_width@ap
  3021   00579E  C591  F50C         	movff	vfpfcnvrt@ap+1,read_prec_or_width@ap+1
  3022   0057A2  EC81  F031         	call	_read_prec_or_width	;wreg free
  3023   0057A6  C509  F5CC         	movff	?_read_prec_or_width,_prec
  3024   0057AA  C50A  F5CD         	movff	?_read_prec_or_width+1,_prec+1
  3025   0057AE                     l5870:
  3026                           
  3027                           ;/Applications/microchip/xc8/v2.41/pic/sources/c99/common/doprnt.c: 1418:   cp = *fmt;
  3028   0057AE  C58E  F4D9         	movff	vfpfcnvrt@fmt,fsr2l
  3029   0057B2  C58F  F4DA         	movff	vfpfcnvrt@fmt+1,fsr2h
  3030   0057B6  C4DE F544          	movff	postinc2,vfpfcnvrt@cp
  3031   0057BA  C4DD F545          	movff	postdec2,vfpfcnvrt@cp+1
  3032   0057BE                     
  3033                           ;/Applications/microchip/xc8/v2.41/pic/sources/c99/common/doprnt.c: 1419:   c = *cp;
  3034   0057BE  C544  F4F6         	movff	vfpfcnvrt@cp,tblptrl
  3035   0057C2  C545  F4F7         	movff	vfpfcnvrt@cp+1,tblptrh
  3036   0057C6                     	if	0	;tblptru may be non-zero
  3037   0057C6                     	endif
  3038   0057C6                     	if	1	;Program memory is > 0xFFFF, there are 3 active tblptr bytes
  3039   0057C6  0E00               	movlw	low (__mediumconst shr (0+16))
  3040   0057C8  6EF8               	movwf	tblptru,c
  3041   0057CA                     	endif
  3042   0057CA  0008               	tblrd		*
  3043   0057CC  C4F5 F543          	movff	tablat,vfpfcnvrt@c
  3044                           
  3045                           ;/Applications/microchip/xc8/v2.41/pic/sources/c99/common/doprnt.c: 1420:   switch(c) {
  3046   0057D0  EFF6  F02B         	goto	l5882
  3047   0057D4                     l5874:
  3048                           
  3049                           ;/Applications/microchip/xc8/v2.41/pic/sources/c99/common/doprnt.c: 1424:     cp++;
  3050   0057D4  4A44               	infsnz	vfpfcnvrt@cp^(0+1280),f,c
  3051   0057D6  2A45               	incf	(vfpfcnvrt@cp+1)^(0+1280),f,c
  3052                           
  3053                           ;/Applications/microchip/xc8/v2.41/pic/sources/c99/common/doprnt.c: 1425:     break;
  3054   0057D8  EF0F  F02C         	goto	l5884
  3055   0057DC                     l5876:
  3056                           
  3057                           ;/Applications/microchip/xc8/v2.41/pic/sources/c99/common/doprnt.c: 1450:     c = 'l';
  3058   0057DC  0E6C               	movlw	108
  3059   0057DE  6E43               	movwf	vfpfcnvrt@c^(0+1280),c
  3060                           
  3061                           ;/Applications/microchip/xc8/v2.41/pic/sources/c99/common/doprnt.c: 1451:     break;
  3062   0057E0  EF0F  F02C         	goto	l5884
  3063   0057E4                     l5878:
  3064                           
  3065                           ;/Applications/microchip/xc8/v2.41/pic/sources/c99/common/doprnt.c: 1453:     c = 0;
  3066   0057E4  0E00               	movlw	0
  3067   0057E6  6E43               	movwf	vfpfcnvrt@c^(0+1280),c
  3068                           
  3069                           ;/Applications/microchip/xc8/v2.41/pic/sources/c99/common/doprnt.c: 1454:     break;
  3070   0057E8  EF0F  F02C         	goto	l5884
  3071   0057EC                     l5882:
  3072   0057EC  5043               	movf	vfpfcnvrt@c^(0+1280),w,c
  3073   0057EE  6E3D               	movwf	??_vfpfcnvrt^(0+1280),c
  3074   0057F0  6A3E               	clrf	(??_vfpfcnvrt+1)^(0+1280),c
  3075                           
  3076                           ; Switch on 2 bytes has been partitioned into a top level switch of size 1, and 1 sub-sw
      +                          itches
  3077                           ; Switch size 1, requested type "simple"
  3078                           ; Number of cases is 1, Range of values is 0 to 0
  3079                           ; switch strategies available:
  3080                           ; Name         Instructions Cycles
  3081                           ; simple_byte            4     3 (average)
  3082                           ;	Chosen strategy is simple_byte
  3083   0057F2  503E               	movf	(??_vfpfcnvrt+1)^(0+1280),w,c
  3084   0057F4  0A00               	xorlw	0	; case 0
  3085   0057F6  B4D8               	btfsc	status,2,c
  3086   0057F8  EF00  F02C         	goto	l6264
  3087   0057FC  EFF2  F02B         	goto	l5878
  3088   005800                     l6264:
  3089                           
  3090                           ; Switch size 1, requested type "simple"
  3091                           ; Number of cases is 3, Range of values is 76 to 108
  3092                           ; switch strategies available:
  3093                           ; Name         Instructions Cycles
  3094                           ; simple_byte           10     6 (average)
  3095                           ;	Chosen strategy is simple_byte
  3096   005800  503D               	movf	??_vfpfcnvrt^(0+1280),w,c
  3097   005802  0A4C               	xorlw	76	; case 76
  3098   005804  B4D8               	btfsc	status,2,c
  3099   005806  EFEA  F02B         	goto	l5874
  3100   00580A  0A2A               	xorlw	42	; case 102
  3101   00580C  B4D8               	btfsc	status,2,c
  3102   00580E  EFEE  F02B         	goto	l5876
  3103   005812  0A0A               	xorlw	10	; case 108
  3104   005814  B4D8               	btfsc	status,2,c
  3105   005816  EFEA  F02B         	goto	l5874
  3106   00581A  EFF2  F02B         	goto	l5878
  3107   00581E                     l5884:
  3108   00581E  C544  F4F6         	movff	vfpfcnvrt@cp,tblptrl
  3109   005822  C545  F4F7         	movff	vfpfcnvrt@cp+1,tblptrh
  3110   005826                     	if	0	;tblptru may be non-zero
  3111   005826                     	endif
  3112   005826                     	if	1	;Program memory is > 0xFFFF, there are 3 active tblptr bytes
  3113   005826  0E00               	movlw	low (__mediumconst shr (0+16))
  3114   005828  6EF8               	movwf	tblptru,c
  3115   00582A                     	endif
  3116   00582A  0008               	tblrd		*
  3117   00582C  50F5               	movf	tablat,w,c
  3118   00582E  0A66               	xorlw	102
  3119   005830  A4D8               	btfss	status,2,c
  3120   005832  EF1D  F02C         	goto	u5871
  3121   005836  EF1F  F02C         	goto	u5870
  3122   00583A                     u5871:
  3123   00583A  EFAB  F02C         	goto	l5904
  3124   00583E                     u5870:
  3125   00583E  EF55  F02C         	goto	l5892
  3126   005842                     l5886:
  3127                           
  3128                           ;/Applications/microchip/xc8/v2.41/pic/sources/c99/common/doprnt.c: 1485:      convarg.f
      +                           = (long double)(*(double *)__va_arg(*(double **)ap, (double)0));
  3129   005842  C590  F4D9         	movff	vfpfcnvrt@ap,fsr2l
  3130   005846  C591  F4DA         	movff	vfpfcnvrt@ap+1,fsr2h
  3131   00584A  C4DF F53D          	movff	indf2,??_vfpfcnvrt
  3132   00584E  0E04               	movlw	4
  3133   005850  26DE               	addwf	postinc2,f,c
  3134   005852  C4DF F53E          	movff	indf2,??_vfpfcnvrt+1
  3135   005856  0E00               	movlw	0
  3136   005858  22DD               	addwfc	postdec2,f,c
  3137   00585A  C53D  F4D9         	movff	??_vfpfcnvrt,fsr2l
  3138   00585E  C53E  F4DA         	movff	??_vfpfcnvrt+1,fsr2h
  3139   005862  C4DE F53F          	movff	postinc2,vfpfcnvrt@convarg
  3140   005866  C4DE F540          	movff	postinc2,vfpfcnvrt@convarg+1
  3141   00586A  C4DE F541          	movff	postinc2,vfpfcnvrt@convarg+2
  3142   00586E  C4DE F542          	movff	postinc2,vfpfcnvrt@convarg+3
  3143                           
  3144                           ;/Applications/microchip/xc8/v2.41/pic/sources/c99/common/doprnt.c: 1486:      break;
  3145   005872  EF6A  F02C         	goto	l5894
  3146   005876                     l5888:
  3147                           
  3148                           ;/Applications/microchip/xc8/v2.41/pic/sources/c99/common/doprnt.c: 1488:      convarg.f
      +                           = (long double)(*(long double *)__va_arg(*(long double **)ap, (long double)0));
  3149   005876  C590  F4D9         	movff	vfpfcnvrt@ap,fsr2l
  3150   00587A  C591  F4DA         	movff	vfpfcnvrt@ap+1,fsr2h
  3151   00587E  C4DF F53D          	movff	indf2,??_vfpfcnvrt
  3152   005882  0E04               	movlw	4
  3153   005884  26DE               	addwf	postinc2,f,c
  3154   005886  C4DF F53E          	movff	indf2,??_vfpfcnvrt+1
  3155   00588A  0E00               	movlw	0
  3156   00588C  22DD               	addwfc	postdec2,f,c
  3157   00588E  C53D  F4D9         	movff	??_vfpfcnvrt,fsr2l
  3158   005892  C53E  F4DA         	movff	??_vfpfcnvrt+1,fsr2h
  3159   005896  C4DE F53F          	movff	postinc2,vfpfcnvrt@convarg
  3160   00589A  C4DE F540          	movff	postinc2,vfpfcnvrt@convarg+1
  3161   00589E  C4DE F541          	movff	postinc2,vfpfcnvrt@convarg+2
  3162   0058A2  C4DE F542          	movff	postinc2,vfpfcnvrt@convarg+3
  3163                           
  3164                           ;/Applications/microchip/xc8/v2.41/pic/sources/c99/common/doprnt.c: 1489:      break;
  3165   0058A6  EF6A  F02C         	goto	l5894
  3166   0058AA                     l5892:
  3167   0058AA  5043               	movf	vfpfcnvrt@c^(0+1280),w,c
  3168   0058AC  6E3D               	movwf	??_vfpfcnvrt^(0+1280),c
  3169   0058AE  6A3E               	clrf	(??_vfpfcnvrt+1)^(0+1280),c
  3170                           
  3171                           ; Switch on 2 bytes has been partitioned into a top level switch of size 1, and 1 sub-sw
      +                          itches
  3172                           ; Switch size 1, requested type "simple"
  3173                           ; Number of cases is 1, Range of values is 0 to 0
  3174                           ; switch strategies available:
  3175                           ; Name         Instructions Cycles
  3176                           ; simple_byte            4     3 (average)
  3177                           ;	Chosen strategy is simple_byte
  3178   0058B0  503E               	movf	(??_vfpfcnvrt+1)^(0+1280),w,c
  3179   0058B2  0A00               	xorlw	0	; case 0
  3180   0058B4  B4D8               	btfsc	status,2,c
  3181   0058B6  EF5F  F02C         	goto	l6266
  3182   0058BA  EF6A  F02C         	goto	l5894
  3183   0058BE                     l6266:
  3184                           
  3185                           ; Switch size 1, requested type "simple"
  3186                           ; Number of cases is 2, Range of values is 76 to 108
  3187                           ; switch strategies available:
  3188                           ; Name         Instructions Cycles
  3189                           ; simple_byte            7     4 (average)
  3190                           ;	Chosen strategy is simple_byte
  3191   0058BE  503D               	movf	??_vfpfcnvrt^(0+1280),w,c
  3192   0058C0  0A4C               	xorlw	76	; case 76
  3193   0058C2  B4D8               	btfsc	status,2,c
  3194   0058C4  EF3B  F02C         	goto	l5888
  3195   0058C8  0A20               	xorlw	32	; case 108
  3196   0058CA  B4D8               	btfsc	status,2,c
  3197   0058CC  EF21  F02C         	goto	l5886
  3198   0058D0  EF6A  F02C         	goto	l5894
  3199   0058D4                     l5894:
  3200                           
  3201                           ;/Applications/microchip/xc8/v2.41/pic/sources/c99/common/doprnt.c: 1491:    *fmt = cp+1
      +                          ;
  3202   0058D4  0E01               	movlw	1
  3203   0058D6  2444               	addwf	vfpfcnvrt@cp^(0+1280),w,c
  3204   0058D8  6E3D               	movwf	??_vfpfcnvrt^(0+1280),c
  3205   0058DA  0E00               	movlw	0
  3206   0058DC  2045               	addwfc	(vfpfcnvrt@cp+1)^(0+1280),w,c
  3207   0058DE  6E3E               	movwf	(??_vfpfcnvrt+1)^(0+1280),c
  3208   0058E0  C58E  F4D9         	movff	vfpfcnvrt@fmt,fsr2l
  3209   0058E4  C58F  F4DA         	movff	vfpfcnvrt@fmt+1,fsr2h
  3210   0058E8  C53D  F4DE         	movff	??_vfpfcnvrt,postinc2
  3211   0058EC  C53E  F4DD         	movff	??_vfpfcnvrt+1,postdec2
  3212                           
  3213                           ;/Applications/microchip/xc8/v2.41/pic/sources/c99/common/doprnt.c: 1492:    switch (*cp
      +                          ) {
  3214   0058F0  EF93  F02C         	goto	l5902
  3215   0058F4                     l5896:
  3216                           
  3217                           ;/Applications/microchip/xc8/v2.41/pic/sources/c99/common/doprnt.c: 1519:      return (v
      +                          oid) efgtoa(fp, convarg.f, *cp);;	Return value of _vfpfcnvrt is never used
  3218   0058F4  C58C  F534         	movff	vfpfcnvrt@fp,efgtoa@fp
  3219   0058F8  C58D  F535         	movff	vfpfcnvrt@fp+1,efgtoa@fp+1
  3220   0058FC  C53F  F536         	movff	vfpfcnvrt@convarg,efgtoa@f
  3221   005900  C540  F537         	movff	vfpfcnvrt@convarg+1,efgtoa@f+1
  3222   005904  C541  F538         	movff	vfpfcnvrt@convarg+2,efgtoa@f+2
  3223   005908  C542  F539         	movff	vfpfcnvrt@convarg+3,efgtoa@f+3
  3224   00590C  C544  F4F6         	movff	vfpfcnvrt@cp,tblptrl
  3225   005910  C545  F4F7         	movff	vfpfcnvrt@cp+1,tblptrh
  3226   005914                     	if	0	;tblptru may be non-zero
  3227   005914                     	endif
  3228   005914                     	if	1	;Program memory is > 0xFFFF, there are 3 active tblptr bytes
  3229   005914  0E00               	movlw	low (__mediumconst shr (0+16))
  3230   005916  6EF8               	movwf	tblptru,c
  3231   005918                     	endif
  3232   005918  0008               	tblrd		*
  3233   00591A  C4F5 F53A          	movff	tablat,efgtoa@c
  3234   00591E  EC39  F020         	call	_efgtoa	;wreg free
  3235   005922  EFCA  F02C         	goto	l1524
  3236   005926                     l5902:
  3237   005926  C544  F4F6         	movff	vfpfcnvrt@cp,tblptrl
  3238   00592A  C545  F4F7         	movff	vfpfcnvrt@cp+1,tblptrh
  3239   00592E                     	if	0	;tblptru may be non-zero
  3240   00592E                     	endif
  3241   00592E                     	if	1	;Program memory is > 0xFFFF, there are 3 active tblptr bytes
  3242   00592E  0E00               	movlw	low (__mediumconst shr (0+16))
  3243   005930  6EF8               	movwf	tblptru,c
  3244   005932                     	endif
  3245   005932  0008               	tblrd		*
  3246   005934  50F5               	movf	tablat,w,c
  3247   005936  6E3D               	movwf	??_vfpfcnvrt^(0+1280),c
  3248   005938  6A3E               	clrf	(??_vfpfcnvrt+1)^(0+1280),c
  3249                           
  3250                           ; Switch on 2 bytes has been partitioned into a top level switch of size 1, and 1 sub-sw
      +                          itches
  3251                           ; Switch size 1, requested type "simple"
  3252                           ; Number of cases is 1, Range of values is 0 to 0
  3253                           ; switch strategies available:
  3254                           ; Name         Instructions Cycles
  3255                           ; simple_byte            4     3 (average)
  3256                           ;	Chosen strategy is simple_byte
  3257   00593A  503E               	movf	(??_vfpfcnvrt+1)^(0+1280),w,c
  3258   00593C  0A00               	xorlw	0	; case 0
  3259   00593E  B4D8               	btfsc	status,2,c
  3260   005940  EFA4  F02C         	goto	l6268
  3261   005944  EFAB  F02C         	goto	l5904
  3262   005948                     l6268:
  3263                           
  3264                           ; Switch size 1, requested type "simple"
  3265                           ; Number of cases is 1, Range of values is 102 to 102
  3266                           ; switch strategies available:
  3267                           ; Name         Instructions Cycles
  3268                           ; simple_byte            4     3 (average)
  3269                           ;	Chosen strategy is simple_byte
  3270   005948  503D               	movf	??_vfpfcnvrt^(0+1280),w,c
  3271   00594A  0A66               	xorlw	102	; case 102
  3272   00594C  B4D8               	btfsc	status,2,c
  3273   00594E  EF7A  F02C         	goto	l5896
  3274   005952  EFAB  F02C         	goto	l5904
  3275   005956                     l5904:
  3276                           
  3277                           ;/Applications/microchip/xc8/v2.41/pic/sources/c99/common/doprnt.c: 1535:         ++*fmt
      +                          ;
  3278   005956  C58E  F4D9         	movff	vfpfcnvrt@fmt,fsr2l
  3279   00595A  C58F  F4DA         	movff	vfpfcnvrt@fmt+1,fsr2h
  3280   00595E  2ADE               	incf	postinc2,f,c
  3281   005960  0E00               	movlw	0
  3282   005962  22DD               	addwfc	postdec2,f,c
  3283   005964  EFCA  F02C         	goto	l1524
  3284   005968                     l5908:
  3285                           
  3286                           ;/Applications/microchip/xc8/v2.41/pic/sources/c99/common/doprnt.c: 1540:     fputc((int
      +                          )(*fmt)[0], fp);
  3287   005968  C58E  F4D9         	movff	vfpfcnvrt@fmt,fsr2l
  3288   00596C  C58F  F4DA         	movff	vfpfcnvrt@fmt+1,fsr2h
  3289   005970  C4DE F4F6          	movff	postinc2,tblptrl
  3290   005974  C4DD F4F7          	movff	postdec2,tblptrh
  3291   005978                     	if	0	;tblptru may be non-zero
  3292   005978                     	endif
  3293   005978                     	if	1	;Program memory is > 0xFFFF, there are 3 active tblptr bytes
  3294   005978  0E00               	movlw	low (__mediumconst shr (0+16))
  3295   00597A  6EF8               	movwf	tblptru,c
  3296   00597C                     	endif
  3297   00597C  0008               	tblrd		*
  3298   00597E  50F5               	movf	tablat,w,c
  3299   005980  6E05               	movwf	fputc@c^(0+1280),c
  3300   005982  6A06               	clrf	(fputc@c+1)^(0+1280),c
  3301   005984  C58C  F507         	movff	vfpfcnvrt@fp,fputc@fp
  3302   005988  C58D  F508         	movff	vfpfcnvrt@fp+1,fputc@fp+1
  3303   00598C  ECE8  F031         	call	_fputc	;wreg free
  3304   005990  EFAB  F02C         	goto	l5904
  3305   005994                     l1524:
  3306   005994  0012               	return		;funcret
  3307   005996                     __end_of_vfpfcnvrt:
  3308                           	callstack 0
  3309                           
  3310 ;; *************** function _read_prec_or_width *****************
  3311 ;; Defined at:
  3312 ;;		line 1029 in file "/Applications/microchip/xc8/v2.41/pic/sources/c99/common/doprnt.c"
  3313 ;; Parameters:    Size  Location     Type
  3314 ;;  fmt             2    8[COMRAM] PTR PTR const unsigned c
  3315 ;;		 -> vfprintf@cfmt(2), 
  3316 ;;  ap              2   10[COMRAM] PTR PTR void [1]
  3317 ;;		 -> printf@ap(2), 
  3318 ;; Auto vars:     Size  Location     Type
  3319 ;;  c               1   14[COMRAM] unsigned char 
  3320 ;;  n               2   15[COMRAM] int 
  3321 ;; Return value:  Size  Location     Type
  3322 ;;                  2    8[COMRAM] int 
  3323 ;; Registers used:
  3324 ;;		wreg, fsr2l, fsr2h, status,2, status,0, tblptrl, tblptrh, tblptru, prodl, prodh, cstack
  3325 ;; Tracked objects:
  3326 ;;		On entry : 0/0
  3327 ;;		On exit  : 0/0
  3328 ;;		Unchanged: 0/0
  3329 ;; Data sizes:     COMRAM   BANK5   BANK6   BANK7   BANK8   BANK9  BANK10  BANK11  BANK12  BANK13  BANK14  BANK15  BANK1
      +6  BANK17  BANK18  BANK19  BANK20  BANK21  BANK22  BANK23  BANK24  BANK25  BANK26  BANK27  BANK28  BANK29  BANK30  BANK3
      +1  BANK32  BANK33  BANK34  BANK35  BANK36  BANK37  BANK38  BANK39  BANK40  BANK41  BANK42  BANK43  BANK44  BANK45  BANK4
      +6  BANK47  BANK48  BANK49  BANK50  BANK51  BANK52  BANK53  BANK54
  3330 ;;      Params:         4       0       0       0       0       0       0       0       0       0       0       0       
      +0       0       0       0       0       0       0       0       0       0       0       0       0       0       0       
      +0       0       0       0       0       0       0       0       0       0       0       0       0       0       0       
      +0       0       0       0       0       0       0       0       0
  3331 ;;      Locals:         3       0       0       0       0       0       0       0       0       0       0       0       
      +0       0       0       0       0       0       0       0       0       0       0       0       0       0       0       
      +0       0       0       0       0       0       0       0       0       0       0       0       0       0       0       
      +0       0       0       0       0       0       0       0       0
  3332 ;;      Temps:          2       0       0       0       0       0       0       0       0       0       0       0       
      +0       0       0       0       0       0       0       0       0       0       0       0       0       0       0       
      +0       0       0       0       0       0       0       0       0       0       0       0       0       0       0       
      +0       0       0       0       0       0       0       0       0
  3333 ;;      Totals:         9       0       0       0       0       0       0       0       0       0       0       0       
      +0       0       0       0       0       0       0       0       0       0       0       0       0       0       0       
      +0       0       0       0       0       0       0       0       0       0       0       0       0       0       0       
      +0       0       0       0       0       0       0       0       0
  3334 ;;Total ram usage:        9 bytes
  3335 ;; Hardware stack levels used: 1
  3336 ;; Hardware stack levels required when called: 5
  3337 ;; This function calls:
  3338 ;;		___wmul
  3339 ;; This function is called by:
  3340 ;;		_vfpfcnvrt
  3341 ;; This function uses a non-reentrant model
  3342 ;;
  3343                           
  3344                           	psect	text22
  3345   006302                     __ptext22:
  3346                           	callstack 0
  3347   006302                     _read_prec_or_width:
  3348                           	callstack 117
  3349   006302                     
  3350                           ;/Applications/microchip/xc8/v2.41/pic/sources/c99/common/doprnt.c: 1030:     int n = 0;
  3351   006302  0E00               	movlw	0
  3352   006304  6E11               	movwf	(read_prec_or_width@n+1)^(0+1280),c
  3353   006306  0E00               	movlw	0
  3354   006308  6E10               	movwf	read_prec_or_width@n^(0+1280),c
  3355   00630A                     
  3356                           ;/Applications/microchip/xc8/v2.41/pic/sources/c99/common/doprnt.c: 1031:     if ((*fmt)
      +                          [0] == '*') {
  3357   00630A  C509  F4D9         	movff	read_prec_or_width@fmt,fsr2l
  3358   00630E  C50A  F4DA         	movff	read_prec_or_width@fmt+1,fsr2h
  3359   006312  C4DE F4F6          	movff	postinc2,tblptrl
  3360   006316  C4DD F4F7          	movff	postdec2,tblptrh
  3361   00631A                     	if	0	;tblptru may be non-zero
  3362   00631A                     	endif
  3363   00631A                     	if	1	;Program memory is > 0xFFFF, there are 3 active tblptr bytes
  3364   00631A  0E00               	movlw	low (__mediumconst shr (0+16))
  3365   00631C  6EF8               	movwf	tblptru,c
  3366   00631E                     	endif
  3367   00631E  0008               	tblrd		*
  3368   006320  50F5               	movf	tablat,w,c
  3369   006322  0A2A               	xorlw	42
  3370   006324  A4D8               	btfss	status,2,c
  3371   006326  EF97  F031         	goto	u5831
  3372   00632A  EF99  F031         	goto	u5830
  3373   00632E                     u5831:
  3374   00632E  EFCD  F031         	goto	l5854
  3375   006332                     u5830:
  3376   006332                     
  3377                           ;/Applications/microchip/xc8/v2.41/pic/sources/c99/common/doprnt.c: 1032:         ++*fmt
      +                          ;
  3378   006332  C509  F4D9         	movff	read_prec_or_width@fmt,fsr2l
  3379   006336  C50A  F4DA         	movff	read_prec_or_width@fmt+1,fsr2h
  3380   00633A  2ADE               	incf	postinc2,f,c
  3381   00633C  0E00               	movlw	0
  3382   00633E  22DD               	addwfc	postdec2,f,c
  3383                           
  3384                           ;/Applications/microchip/xc8/v2.41/pic/sources/c99/common/doprnt.c: 1033:         n = (*
      +                          (int *)__va_arg(*(int **)*ap, (int)0));
  3385   006340  C50B  F4D9         	movff	read_prec_or_width@ap,fsr2l
  3386   006344  C50C  F4DA         	movff	read_prec_or_width@ap+1,fsr2h
  3387   006348  C4DF F50D          	movff	indf2,??_read_prec_or_width
  3388   00634C  0E02               	movlw	2
  3389   00634E  26DE               	addwf	postinc2,f,c
  3390   006350  C4DF F50E          	movff	indf2,??_read_prec_or_width+1
  3391   006354  0E00               	movlw	0
  3392   006356  22DD               	addwfc	postdec2,f,c
  3393   006358  C50D  F4D9         	movff	??_read_prec_or_width,fsr2l
  3394   00635C  C50E  F4DA         	movff	??_read_prec_or_width+1,fsr2h
  3395   006360  C4DE F510          	movff	postinc2,read_prec_or_width@n
  3396   006364  C4DD F511          	movff	postdec2,read_prec_or_width@n+1
  3397                           
  3398                           ;/Applications/microchip/xc8/v2.41/pic/sources/c99/common/doprnt.c: 1034:     } else {
  3399   006368  EFE3  F031         	goto	l1500
  3400   00636C                     l5850:
  3401                           
  3402                           ;/Applications/microchip/xc8/v2.41/pic/sources/c99/common/doprnt.c: 1037:             n 
      +                          = n * 10 + c;
  3403   00636C  C510  F503         	movff	read_prec_or_width@n,___wmul@multiplier
  3404   006370  C511  F504         	movff	read_prec_or_width@n+1,___wmul@multiplier+1
  3405   006374  0E00               	movlw	0
  3406   006376  6E06               	movwf	(___wmul@multiplicand+1)^(0+1280),c
  3407   006378  0E0A               	movlw	10
  3408   00637A  6E05               	movwf	___wmul@multiplicand^(0+1280),c
  3409   00637C  ECBE  F036         	call	___wmul	;wreg free
  3410   006380  500F               	movf	read_prec_or_width@c^(0+1280),w,c
  3411   006382  2403               	addwf	?___wmul^(0+1280),w,c
  3412   006384  6E10               	movwf	read_prec_or_width@n^(0+1280),c
  3413   006386  0E00               	movlw	0
  3414   006388  2004               	addwfc	(?___wmul+1)^(0+1280),w,c
  3415   00638A  6E11               	movwf	(read_prec_or_width@n+1)^(0+1280),c
  3416   00638C                     
  3417                           ;/Applications/microchip/xc8/v2.41/pic/sources/c99/common/doprnt.c: 1038:             ++
      +                          *fmt;
  3418   00638C  C509  F4D9         	movff	read_prec_or_width@fmt,fsr2l
  3419   006390  C50A  F4DA         	movff	read_prec_or_width@fmt+1,fsr2h
  3420   006394  2ADE               	incf	postinc2,f,c
  3421   006396  0E00               	movlw	0
  3422   006398  22DD               	addwfc	postdec2,f,c
  3423   00639A                     l5854:
  3424                           
  3425                           ;/Applications/microchip/xc8/v2.41/pic/sources/c99/common/doprnt.c: 1036:         while 
      +                          ((c = ((unsigned)(*fmt)[0]) - '0') < 10) {
  3426   00639A  C509  F4D9         	movff	read_prec_or_width@fmt,fsr2l
  3427   00639E  C50A  F4DA         	movff	read_prec_or_width@fmt+1,fsr2h
  3428   0063A2  C4DE F4F6          	movff	postinc2,tblptrl
  3429   0063A6  C4DD F4F7          	movff	postdec2,tblptrh
  3430   0063AA                     	if	0	;tblptru may be non-zero
  3431   0063AA                     	endif
  3432   0063AA                     	if	1	;Program memory is > 0xFFFF, there are 3 active tblptr bytes
  3433   0063AA  0E00               	movlw	low (__mediumconst shr (0+16))
  3434   0063AC  6EF8               	movwf	tblptru,c
  3435   0063AE                     	endif
  3436   0063AE  0008               	tblrd		*
  3437   0063B0  50F5               	movf	tablat,w,c
  3438   0063B2  0FD0               	addlw	208
  3439   0063B4  6E0F               	movwf	read_prec_or_width@c^(0+1280),c
  3440   0063B6  0E09               	movlw	9
  3441   0063B8  640F               	cpfsgt	read_prec_or_width@c^(0+1280),c
  3442   0063BA  EFE1  F031         	goto	u5841
  3443   0063BE  EFE3  F031         	goto	u5840
  3444   0063C2                     u5841:
  3445   0063C2  EFB6  F031         	goto	l5850
  3446   0063C6                     u5840:
  3447   0063C6                     l1500:
  3448                           
  3449                           ;/Applications/microchip/xc8/v2.41/pic/sources/c99/common/doprnt.c: 1041:     return n;
  3450   0063C6  C510  F509         	movff	read_prec_or_width@n,?_read_prec_or_width
  3451   0063CA  C511  F50A         	movff	read_prec_or_width@n+1,?_read_prec_or_width+1
  3452   0063CE  0012               	return		;funcret
  3453   0063D0                     __end_of_read_prec_or_width:
  3454                           	callstack 0
  3455                           
  3456 ;; *************** function ___wmul *****************
  3457 ;; Defined at:
  3458 ;;		line 15 in file "/Applications/microchip/xc8/v2.41/pic/sources/c99/common/Umul16.c"
  3459 ;; Parameters:    Size  Location     Type
  3460 ;;  multiplier      2    2[COMRAM] unsigned int 
  3461 ;;  multiplicand    2    4[COMRAM] unsigned int 
  3462 ;; Auto vars:     Size  Location     Type
  3463 ;;  product         2    6[COMRAM] unsigned int 
  3464 ;; Return value:  Size  Location     Type
  3465 ;;                  2    2[COMRAM] unsigned int 
  3466 ;; Registers used:
  3467 ;;		wreg, status,2, status,0, prodl, prodh
  3468 ;; Tracked objects:
  3469 ;;		On entry : 0/0
  3470 ;;		On exit  : 0/0
  3471 ;;		Unchanged: 0/0
  3472 ;; Data sizes:     COMRAM   BANK5   BANK6   BANK7   BANK8   BANK9  BANK10  BANK11  BANK12  BANK13  BANK14  BANK15  BANK1
      +6  BANK17  BANK18  BANK19  BANK20  BANK21  BANK22  BANK23  BANK24  BANK25  BANK26  BANK27  BANK28  BANK29  BANK30  BANK3
      +1  BANK32  BANK33  BANK34  BANK35  BANK36  BANK37  BANK38  BANK39  BANK40  BANK41  BANK42  BANK43  BANK44  BANK45  BANK4
      +6  BANK47  BANK48  BANK49  BANK50  BANK51  BANK52  BANK53  BANK54
  3473 ;;      Params:         4       0       0       0       0       0       0       0       0       0       0       0       
      +0       0       0       0       0       0       0       0       0       0       0       0       0       0       0       
      +0       0       0       0       0       0       0       0       0       0       0       0       0       0       0       
      +0       0       0       0       0       0       0       0       0
  3474 ;;      Locals:         2       0       0       0       0       0       0       0       0       0       0       0       
      +0       0       0       0       0       0       0       0       0       0       0       0       0       0       0       
      +0       0       0       0       0       0       0       0       0       0       0       0       0       0       0       
      +0       0       0       0       0       0       0       0       0
  3475 ;;      Temps:          0       0       0       0       0       0       0       0       0       0       0       0       
      +0       0       0       0       0       0       0       0       0       0       0       0       0       0       0       
      +0       0       0       0       0       0       0       0       0       0       0       0       0       0       0       
      +0       0       0       0       0       0       0       0       0
  3476 ;;      Totals:         6       0       0       0       0       0       0       0       0       0       0       0       
      +0       0       0       0       0       0       0       0       0       0       0       0       0       0       0       
      +0       0       0       0       0       0       0       0       0       0       0       0       0       0       0       
      +0       0       0       0       0       0       0       0       0
  3477 ;;Total ram usage:        6 bytes
  3478 ;; Hardware stack levels used: 1
  3479 ;; Hardware stack levels required when called: 4
  3480 ;; This function calls:
  3481 ;;		Nothing
  3482 ;; This function is called by:
  3483 ;;		_read_prec_or_width
  3484 ;; This function uses a non-reentrant model
  3485 ;;
  3486                           
  3487                           	psect	text23
  3488   006D7C                     __ptext23:
  3489                           	callstack 0
  3490   006D7C                     ___wmul:
  3491                           	callstack 117
  3492   006D7C  5003               	movf	___wmul@multiplier^(0+1280),w,c
  3493   006D7E  0205               	mulwf	___wmul@multiplicand^(0+1280),c
  3494   006D80  C4F3 F507          	movff	prodl,___wmul@product
  3495   006D84  C4F4 F508          	movff	prodh,___wmul@product+1
  3496   006D88  5003               	movf	___wmul@multiplier^(0+1280),w,c
  3497   006D8A  0206               	mulwf	(___wmul@multiplicand+1)^(0+1280),c
  3498   006D8C  50F3               	movf	243,w,c
  3499   006D8E  2608               	addwf	(___wmul@product+1)^(0+1280),f,c
  3500   006D90  5004               	movf	(___wmul@multiplier+1)^(0+1280),w,c
  3501   006D92  0205               	mulwf	___wmul@multiplicand^(0+1280),c
  3502   006D94  50F3               	movf	243,w,c
  3503   006D96  2608               	addwf	(___wmul@product+1)^(0+1280),f,c
  3504   006D98  C507  F503         	movff	___wmul@product,?___wmul
  3505   006D9C  C508  F504         	movff	___wmul@product+1,?___wmul+1
  3506   006DA0  0012               	return		;funcret
  3507   006DA2                     __end_of___wmul:
  3508                           	callstack 0
  3509                           
  3510 ;; *************** function _efgtoa *****************
  3511 ;; Defined at:
  3512 ;;		line 531 in file "/Applications/microchip/xc8/v2.41/pic/sources/c99/common/doprnt.c"
  3513 ;; Parameters:    Size  Location     Type
  3514 ;;  fp              2   51[COMRAM] PTR struct _IO_FILE
  3515 ;;		 -> NULL(0), 
  3516 ;;  f               4   53[COMRAM] PTR struct _IO_FILE
  3517 ;;  c               1   57[COMRAM] unsigned char 
  3518 ;; Auto vars:     Size  Location     Type
  3519 ;;  u               4   40[BANK5 ] struct flui
  3520 ;;  g               4   34[BANK5 ] struct flui
  3521 ;;  l               4   29[BANK5 ] struct flui
  3522 ;;  h               4   25[BANK5 ] struct flui
  3523 ;;  ou              4   19[BANK5 ] struct flui
  3524 ;;  n               2   38[BANK5 ] int 
  3525 ;;  i               2   23[BANK5 ] int 
  3526 ;;  w               2   17[BANK5 ] int 
  3527 ;;  e               2   15[BANK5 ] int 
  3528 ;;  m               2   13[BANK5 ] int 
  3529 ;;  d               2   11[BANK5 ] int 
  3530 ;;  t               2    4[BANK5 ] int 
  3531 ;;  p               2    2[BANK5 ] int 
  3532 ;;  ne              2    0[BANK5 ] int 
  3533 ;;  sign            1   33[BANK5 ] unsigned char 
  3534 ;;  nmode           1   10[BANK5 ] unsigned char 
  3535 ;;  mode            1    9[BANK5 ] unsigned char 
  3536 ;;  pp              1    8[BANK5 ] unsigned char 
  3537 ;;  esign           1    0        unsigned char 
  3538 ;; Return value:  Size  Location     Type
  3539 ;;                  1    wreg      void 
  3540 ;; Registers used:
  3541 ;;		wreg, fsr1l, fsr1h, fsr2l, fsr2h, status,2, status,0, tblptrl, tblptrh, tblptru, prodl, prodh, cstack
  3542 ;; Tracked objects:
  3543 ;;		On entry : 0/0
  3544 ;;		On exit  : 0/0
  3545 ;;		Unchanged: 0/0
  3546 ;; Data sizes:     COMRAM   BANK5   BANK6   BANK7   BANK8   BANK9  BANK10  BANK11  BANK12  BANK13  BANK14  BANK15  BANK1
      +6  BANK17  BANK18  BANK19  BANK20  BANK21  BANK22  BANK23  BANK24  BANK25  BANK26  BANK27  BANK28  BANK29  BANK30  BANK3
      +1  BANK32  BANK33  BANK34  BANK35  BANK36  BANK37  BANK38  BANK39  BANK40  BANK41  BANK42  BANK43  BANK44  BANK45  BANK4
      +6  BANK47  BANK48  BANK49  BANK50  BANK51  BANK52  BANK53  BANK54
  3547 ;;      Params:         7       0       0       0       0       0       0       0       0       0       0       0       
      +0       0       0       0       0       0       0       0       0       0       0       0       0       0       0       
      +0       0       0       0       0       0       0       0       0       0       0       0       0       0       0       
      +0       0       0       0       0       0       0       0       0
  3548 ;;      Locals:         0      44       0       0       0       0       0       0       0       0       0       0       
      +0       0       0       0       0       0       0       0       0       0       0       0       0       0       0       
      +0       0       0       0       0       0       0       0       0       0       0       0       0       0       0       
      +0       0       0       0       0       0       0       0       0
  3549 ;;      Temps:          2       0       0       0       0       0       0       0       0       0       0       0       
      +0       0       0       0       0       0       0       0       0       0       0       0       0       0       0       
      +0       0       0       0       0       0       0       0       0       0       0       0       0       0       0       
      +0       0       0       0       0       0       0       0       0
  3550 ;;      Totals:         9      44       0       0       0       0       0       0       0       0       0       0       
      +0       0       0       0       0       0       0       0       0       0       0       0       0       0       0       
      +0       0       0       0       0       0       0       0       0       0       0       0       0       0       0       
      +0       0       0       0       0       0       0       0       0
  3551 ;;Total ram usage:       53 bytes
  3552 ;; Hardware stack levels used: 1
  3553 ;; Hardware stack levels required when called: 9
  3554 ;; This function calls:
  3555 ;;		___fladd
  3556 ;;		___fldiv
  3557 ;;		___fleq
  3558 ;;		___flge
  3559 ;;		___flmul
  3560 ;;		___flneg
  3561 ;;		___flsub
  3562 ;;		___fltol
  3563 ;;		___fpclassifyf
  3564 ;;		_floorf
  3565 ;;		_labs
  3566 ;;		_memcpy
  3567 ;;		_pad
  3568 ;;		_strcpy
  3569 ;; This function is called by:
  3570 ;;		_vfpfcnvrt
  3571 ;; This function uses a non-reentrant model
  3572 ;;
  3573                           
  3574                           	psect	text24
  3575   004072                     __ptext24:
  3576                           	callstack 0
  3577   004072                     _efgtoa:
  3578                           	callstack 113
  3579   004072                     
  3580                           ;/Applications/microchip/xc8/v2.41/pic/sources/c99/common/doprnt.c: 531: static void efg
      +                          toa(FILE *fp, long double f, char c);/Applications/microchip/xc8/v2.41/pic/sources/c99/c
      +                          ommon/doprnt.c: 532: {;/Applications/microchip/xc8/v2.41/pic/sources/c99/common/doprnt.c
      +                          : 533:     char mode, nmode, pp, sign, esign;;/Applications/microchip/xc8/v2.41/pic/sour
      +                          ces/c99/common/doprnt.c: 534:     int d, e, i, m, n, ne, p, t, w;;/Applications/microchi
      +                          p/xc8/v2.41/pic/sources/c99/common/doprnt.c: 535:     long double h, l;;/Applications/mi
      +                          crochip/xc8/v2.41/pic/sources/c99/common/doprnt.c: 536:  union flui g, u, ou;
  3581   004072  0E00               	movlw	0
  3582   004074  0105               	movlb	5	; () banked
  3583   004076  6F81               	movwf	efgtoa@sign& (0+255),b
  3584   004078                     
  3585                           ; BSR set to: 5
  3586                           ;/Applications/microchip/xc8/v2.41/pic/sources/c99/common/doprnt.c: 540:     g.f = f;
  3587   004078  C536  F582         	movff	efgtoa@f,efgtoa@g
  3588   00407C  C537  F583         	movff	efgtoa@f+1,efgtoa@g+1
  3589   004080  C538  F584         	movff	efgtoa@f+2,efgtoa@g+2
  3590   004084  C539  F585         	movff	efgtoa@f+3,efgtoa@g+3
  3591   004088                     
  3592                           ; BSR set to: 5
  3593                           ;/Applications/microchip/xc8/v2.41/pic/sources/c99/common/doprnt.c: 541:     if (g.f < 0
      +                          .0) {
  3594   004088  BF85               	btfsc	(efgtoa@g+3)& (0+255),7,b
  3595   00408A  EF4B  F020         	goto	u5510
  3596   00408E  EF49  F020         	goto	u5511
  3597   004092                     u5511:
  3598   004092  EF5F  F020         	goto	l5632
  3599   004096                     u5510:
  3600   004096                     
  3601                           ; BSR set to: 5
  3602                           ;/Applications/microchip/xc8/v2.41/pic/sources/c99/common/doprnt.c: 542:         sign = 
      +                          1;
  3603   004096  0E01               	movlw	1
  3604   004098  6F81               	movwf	efgtoa@sign& (0+255),b
  3605   00409A                     
  3606                           ; BSR set to: 5
  3607                           ;/Applications/microchip/xc8/v2.41/pic/sources/c99/common/doprnt.c: 543:         g.f = -
      +                          g.f;
  3608   00409A  C582  F503         	movff	efgtoa@g,___flneg@f1
  3609   00409E  C583  F504         	movff	efgtoa@g+1,___flneg@f1+1
  3610   0040A2  C584  F505         	movff	efgtoa@g+2,___flneg@f1+2
  3611   0040A6  C585  F506         	movff	efgtoa@g+3,___flneg@f1+3
  3612   0040AA  EC3A  F036         	call	___flneg	;wreg free
  3613   0040AE  C503  F582         	movff	?___flneg,efgtoa@g
  3614   0040B2  C504  F583         	movff	?___flneg+1,efgtoa@g+1
  3615   0040B6  C505  F584         	movff	?___flneg+2,efgtoa@g+2
  3616   0040BA  C506  F585         	movff	?___flneg+3,efgtoa@g+3
  3617   0040BE                     l5632:
  3618                           
  3619                           ;/Applications/microchip/xc8/v2.41/pic/sources/c99/common/doprnt.c: 547:     n = 0;
  3620   0040BE  0E00               	movlw	0
  3621   0040C0  0105               	movlb	5	; () banked
  3622   0040C2  6F87               	movwf	(efgtoa@n+1)& (0+255),b
  3623   0040C4  0E00               	movlw	0
  3624   0040C6  6F86               	movwf	efgtoa@n& (0+255),b
  3625   0040C8                     
  3626                           ; BSR set to: 5
  3627                           ;/Applications/microchip/xc8/v2.41/pic/sources/c99/common/doprnt.c: 548:     w = width;
  3628   0040C8  C5CA  F571         	movff	_width,efgtoa@w
  3629   0040CC  C5CB  F572         	movff	_width+1,efgtoa@w+1
  3630   0040D0                     
  3631                           ; BSR set to: 5
  3632                           ;/Applications/microchip/xc8/v2.41/pic/sources/c99/common/doprnt.c: 549:     if (sign
  3633   0040D0  5181               	movf	efgtoa@sign& (0+255),w,b
  3634   0040D2  B4D8               	btfsc	status,2,c
  3635   0040D4  EF6E  F020         	goto	u5521
  3636   0040D8  EF70  F020         	goto	u5520
  3637   0040DC                     u5521:
  3638   0040DC  EF84  F020         	goto	l5646
  3639   0040E0                     u5520:
  3640   0040E0                     
  3641                           ; BSR set to: 5
  3642                           ;/Applications/microchip/xc8/v2.41/pic/sources/c99/common/doprnt.c: 553:    ) {;/Applica
      +                          tions/microchip/xc8/v2.41/pic/sources/c99/common/doprnt.c: 554:   sign = sign ? '-' : '+
      +                          ';
  3643   0040E0  5181               	movf	efgtoa@sign& (0+255),w,b
  3644   0040E2  A4D8               	btfss	status,2,c
  3645   0040E4  EF76  F020         	goto	u5531
  3646   0040E8  EF78  F020         	goto	u5530
  3647   0040EC                     u5531:
  3648   0040EC  EF7E  F020         	goto	l5642
  3649   0040F0                     u5530:
  3650   0040F0                     
  3651                           ; BSR set to: 5
  3652   0040F0  0E00               	movlw	0
  3653   0040F2  6F67               	movwf	(_efgtoa$1814+1)& (0+255),b
  3654   0040F4  0E2B               	movlw	43
  3655   0040F6  6F66               	movwf	_efgtoa$1814& (0+255),b
  3656   0040F8  EF82  F020         	goto	l5644
  3657   0040FC                     l5642:
  3658                           
  3659                           ; BSR set to: 5
  3660   0040FC  0E00               	movlw	0
  3661   0040FE  6F67               	movwf	(_efgtoa$1814+1)& (0+255),b
  3662   004100  0E2D               	movlw	45
  3663   004102  6F66               	movwf	_efgtoa$1814& (0+255),b
  3664   004104                     l5644:
  3665                           
  3666                           ; BSR set to: 5
  3667   004104  C566  F581         	movff	_efgtoa$1814,efgtoa@sign
  3668   004108                     l5646:
  3669                           
  3670                           ; BSR set to: 5
  3671                           ;/Applications/microchip/xc8/v2.41/pic/sources/c99/common/doprnt.c: 563:     if (( __fpc
      +                          lassifyf(g.f) == 1 )) {
  3672   004108  C582  F503         	movff	efgtoa@g,___fpclassifyf@x
  3673   00410C  C583  F504         	movff	efgtoa@g+1,___fpclassifyf@x+1
  3674   004110  C584  F505         	movff	efgtoa@g+2,___fpclassifyf@x+2
  3675   004114  C585  F506         	movff	efgtoa@g+3,___fpclassifyf@x+3
  3676   004118  EC8E  F030         	call	___fpclassifyf	;wreg free
  3677   00411C  0403               	decf	?___fpclassifyf^(0+1280),w,c
  3678   00411E  1004               	iorwf	(?___fpclassifyf+1)^(0+1280),w,c
  3679   004120  A4D8               	btfss	status,2,c
  3680   004122  EF95  F020         	goto	u5541
  3681   004126  EF97  F020         	goto	u5540
  3682   00412A                     u5541:
  3683   00412A  EFCA  F020         	goto	l5664
  3684   00412E                     u5540:
  3685   00412E                     
  3686                           ;/Applications/microchip/xc8/v2.41/pic/sources/c99/common/doprnt.c: 564:   if (sign) {
  3687   00412E  0105               	movlb	5	; () banked
  3688   004130  5181               	movf	efgtoa@sign& (0+255),w,b
  3689   004132  B4D8               	btfsc	status,2,c
  3690   004134  EF9E  F020         	goto	u5551
  3691   004138  EFA0  F020         	goto	u5550
  3692   00413C                     u5551:
  3693   00413C  EFA9  F020         	goto	l5656
  3694   004140                     u5550:
  3695   004140                     
  3696                           ; BSR set to: 5
  3697                           ;/Applications/microchip/xc8/v2.41/pic/sources/c99/common/doprnt.c: 565:    dbuf[0] = si
      +                          gn;
  3698   004140  C581  F600         	movff	efgtoa@sign,_dbuf
  3699   004144                     
  3700                           ; BSR set to: 5
  3701                           ;/Applications/microchip/xc8/v2.41/pic/sources/c99/common/doprnt.c: 566:    w--;
  3702   004144  0771               	decf	efgtoa@w& (0+255),f,b
  3703   004146  A0D8               	btfss	status,0,c
  3704   004148  0772               	decf	(efgtoa@w+1)& (0+255),f,b
  3705   00414A                     
  3706                           ; BSR set to: 5
  3707                           ;/Applications/microchip/xc8/v2.41/pic/sources/c99/common/doprnt.c: 567:    n = 1;
  3708   00414A  0E00               	movlw	0
  3709   00414C  6F87               	movwf	(efgtoa@n+1)& (0+255),b
  3710   00414E  0E01               	movlw	1
  3711   004150  6F86               	movwf	efgtoa@n& (0+255),b
  3712   004152                     l5656:
  3713                           
  3714                           ; BSR set to: 5
  3715                           ;/Applications/microchip/xc8/v2.41/pic/sources/c99/common/doprnt.c: 575:   {;/Applicatio
      +                          ns/microchip/xc8/v2.41/pic/sources/c99/common/doprnt.c: 576:             strcpy(&dbuf[n]
      +                          , "inf");
  3716   004152  0E00               	movlw	low _dbuf
  3717   004154  2586               	addwf	efgtoa@n& (0+255),w,b
  3718   004156  6E03               	movwf	strcpy@dest^(0+1280),c
  3719   004158  0E06               	movlw	high _dbuf
  3720   00415A  2187               	addwfc	(efgtoa@n+1)& (0+255),w,b
  3721   00415C  6E04               	movwf	(strcpy@dest+1)^(0+1280),c
  3722   00415E  0E69               	movlw	low STR_5
  3723   004160  6E05               	movwf	strcpy@src^(0+1280),c
  3724   004162  0E40               	movlw	high STR_5
  3725   004164  6E06               	movwf	(strcpy@src+1)^(0+1280),c
  3726   004166  ECB9  F035         	call	_strcpy	;wreg free
  3727   00416A                     
  3728                           ;/Applications/microchip/xc8/v2.41/pic/sources/c99/common/doprnt.c: 577:         };/Appl
      +                          ications/microchip/xc8/v2.41/pic/sources/c99/common/doprnt.c: 578:         w -= ((sizeof
      +                          ("inf")/sizeof("inf"[0]))-1);
  3729   00416A  0105               	movlb	5	; () banked
  3730   00416C  0EFD               	movlw	253
  3731   00416E  2771               	addwf	efgtoa@w& (0+255),f,b
  3732   004170  0EFF               	movlw	255
  3733   004172  2372               	addwfc	(efgtoa@w+1)& (0+255),f,b
  3734   004174                     
  3735                           ; BSR set to: 5
  3736                           ;/Applications/microchip/xc8/v2.41/pic/sources/c99/common/doprnt.c: 579:         return 
      +                          (void) pad(fp, &dbuf[0], w);
  3737   004174  C534  F515         	movff	efgtoa@fp,pad@fp
  3738   004178  C535  F516         	movff	efgtoa@fp+1,pad@fp+1
  3739   00417C  0E00               	movlw	low _dbuf
  3740   00417E  6E17               	movwf	pad@buf^(0+1280),c
  3741   004180  0E06               	movlw	high _dbuf
  3742   004182  6E18               	movwf	(pad@buf+1)^(0+1280),c
  3743   004184  C571  F519         	movff	efgtoa@w,pad@p
  3744   004188  C572  F51A         	movff	efgtoa@w+1,pad@p+1
  3745   00418C  EC48  F034         	call	_pad	;wreg free
  3746   004190  EF47  F025         	goto	l1455
  3747   004194                     l5664:
  3748                           
  3749                           ;/Applications/microchip/xc8/v2.41/pic/sources/c99/common/doprnt.c: 581:     if (( __fpc
      +                          lassifyf(g.f) == 0 )) {
  3750   004194  C582  F503         	movff	efgtoa@g,___fpclassifyf@x
  3751   004198  C583  F504         	movff	efgtoa@g+1,___fpclassifyf@x+1
  3752   00419C  C584  F505         	movff	efgtoa@g+2,___fpclassifyf@x+2
  3753   0041A0  C585  F506         	movff	efgtoa@g+3,___fpclassifyf@x+3
  3754   0041A4  EC8E  F030         	call	___fpclassifyf	;wreg free
  3755   0041A8  5003               	movf	?___fpclassifyf^(0+1280),w,c
  3756   0041AA  1004               	iorwf	(?___fpclassifyf+1)^(0+1280),w,c
  3757   0041AC  A4D8               	btfss	status,2,c
  3758   0041AE  EFDB  F020         	goto	u5561
  3759   0041B2  EFDD  F020         	goto	u5560
  3760   0041B6                     u5561:
  3761   0041B6  EF10  F021         	goto	l5682
  3762   0041BA                     u5560:
  3763   0041BA                     
  3764                           ;/Applications/microchip/xc8/v2.41/pic/sources/c99/common/doprnt.c: 582:   if (sign) {
  3765   0041BA  0105               	movlb	5	; () banked
  3766   0041BC  5181               	movf	efgtoa@sign& (0+255),w,b
  3767   0041BE  B4D8               	btfsc	status,2,c
  3768   0041C0  EFE4  F020         	goto	u5571
  3769   0041C4  EFE6  F020         	goto	u5570
  3770   0041C8                     u5571:
  3771   0041C8  EFEF  F020         	goto	l5674
  3772   0041CC                     u5570:
  3773   0041CC                     
  3774                           ; BSR set to: 5
  3775                           ;/Applications/microchip/xc8/v2.41/pic/sources/c99/common/doprnt.c: 583:    dbuf[0] = si
      +                          gn;
  3776   0041CC  C581  F600         	movff	efgtoa@sign,_dbuf
  3777   0041D0                     
  3778                           ; BSR set to: 5
  3779                           ;/Applications/microchip/xc8/v2.41/pic/sources/c99/common/doprnt.c: 584:    w--;
  3780   0041D0  0771               	decf	efgtoa@w& (0+255),f,b
  3781   0041D2  A0D8               	btfss	status,0,c
  3782   0041D4  0772               	decf	(efgtoa@w+1)& (0+255),f,b
  3783   0041D6                     
  3784                           ; BSR set to: 5
  3785                           ;/Applications/microchip/xc8/v2.41/pic/sources/c99/common/doprnt.c: 585:    n = 1;
  3786   0041D6  0E00               	movlw	0
  3787   0041D8  6F87               	movwf	(efgtoa@n+1)& (0+255),b
  3788   0041DA  0E01               	movlw	1
  3789   0041DC  6F86               	movwf	efgtoa@n& (0+255),b
  3790   0041DE                     l5674:
  3791                           
  3792                           ; BSR set to: 5
  3793                           ;/Applications/microchip/xc8/v2.41/pic/sources/c99/common/doprnt.c: 593:   {;/Applicatio
      +                          ns/microchip/xc8/v2.41/pic/sources/c99/common/doprnt.c: 594:             strcpy(&dbuf[n]
      +                          , "nan");
  3794   0041DE  0E00               	movlw	low _dbuf
  3795   0041E0  2586               	addwf	efgtoa@n& (0+255),w,b
  3796   0041E2  6E03               	movwf	strcpy@dest^(0+1280),c
  3797   0041E4  0E06               	movlw	high _dbuf
  3798   0041E6  2187               	addwfc	(efgtoa@n+1)& (0+255),w,b
  3799   0041E8  6E04               	movwf	(strcpy@dest+1)^(0+1280),c
  3800   0041EA  0E6D               	movlw	low STR_8
  3801   0041EC  6E05               	movwf	strcpy@src^(0+1280),c
  3802   0041EE  0E40               	movlw	high STR_8
  3803   0041F0  6E06               	movwf	(strcpy@src+1)^(0+1280),c
  3804   0041F2  ECB9  F035         	call	_strcpy	;wreg free
  3805   0041F6                     
  3806                           ;/Applications/microchip/xc8/v2.41/pic/sources/c99/common/doprnt.c: 595:         };/Appl
      +                          ications/microchip/xc8/v2.41/pic/sources/c99/common/doprnt.c: 596:         w -= ((sizeof
      +                          ("nan")/sizeof("nan"[0]))-1);
  3807   0041F6  0105               	movlb	5	; () banked
  3808   0041F8  0EFD               	movlw	253
  3809   0041FA  2771               	addwf	efgtoa@w& (0+255),f,b
  3810   0041FC  0EFF               	movlw	255
  3811   0041FE  2372               	addwfc	(efgtoa@w+1)& (0+255),f,b
  3812   004200                     
  3813                           ; BSR set to: 5
  3814                           ;/Applications/microchip/xc8/v2.41/pic/sources/c99/common/doprnt.c: 597:         return 
      +                          (void) pad(fp, &dbuf[0], w);
  3815   004200  C534  F515         	movff	efgtoa@fp,pad@fp
  3816   004204  C535  F516         	movff	efgtoa@fp+1,pad@fp+1
  3817   004208  0E00               	movlw	low _dbuf
  3818   00420A  6E17               	movwf	pad@buf^(0+1280),c
  3819   00420C  0E06               	movlw	high _dbuf
  3820   00420E  6E18               	movwf	(pad@buf+1)^(0+1280),c
  3821   004210  C571  F519         	movff	efgtoa@w,pad@p
  3822   004214  C572  F51A         	movff	efgtoa@w+1,pad@p+1
  3823   004218  EC48  F034         	call	_pad	;wreg free
  3824   00421C  EF47  F025         	goto	l1455
  3825   004220                     l5682:
  3826                           
  3827                           ;/Applications/microchip/xc8/v2.41/pic/sources/c99/common/doprnt.c: 601:     u.f = 1.0;
  3828   004220  0E00               	movlw	0
  3829   004222  0105               	movlb	5	; () banked
  3830   004224  6F88               	movwf	efgtoa@u& (0+255),b
  3831   004226  0E00               	movlw	0
  3832   004228  6F89               	movwf	(efgtoa@u+1)& (0+255),b
  3833   00422A  0E80               	movlw	128
  3834   00422C  6F8A               	movwf	(efgtoa@u+2)& (0+255),b
  3835   00422E  0E3F               	movlw	63
  3836   004230  6F8B               	movwf	(efgtoa@u+3)& (0+255),b
  3837                           
  3838                           ;/Applications/microchip/xc8/v2.41/pic/sources/c99/common/doprnt.c: 602:     e = 0;
  3839   004232  0E00               	movlw	0
  3840   004234  6F70               	movwf	(efgtoa@e+1)& (0+255),b
  3841   004236  0E00               	movlw	0
  3842   004238  6F6F               	movwf	efgtoa@e& (0+255),b
  3843   00423A                     
  3844                           ; BSR set to: 5
  3845                           ;/Applications/microchip/xc8/v2.41/pic/sources/c99/common/doprnt.c: 603:  if (!(g.f == 0
      +                          .0)) {
  3846   00423A  C582  F503         	movff	efgtoa@g,___fleq@ff1
  3847   00423E  C583  F504         	movff	efgtoa@g+1,___fleq@ff1+1
  3848   004242  C584  F505         	movff	efgtoa@g+2,___fleq@ff1+2
  3849   004246  C585  F506         	movff	efgtoa@g+3,___fleq@ff1+3
  3850   00424A  0E00               	movlw	0
  3851   00424C  6E07               	movwf	___fleq@ff2^(0+1280),c
  3852   00424E  0E00               	movlw	0
  3853   004250  6E08               	movwf	(___fleq@ff2+1)^(0+1280),c
  3854   004252  0E00               	movlw	0
  3855   004254  6E09               	movwf	(___fleq@ff2+2)^(0+1280),c
  3856   004256  0E00               	movlw	0
  3857   004258  6E0A               	movwf	(___fleq@ff2+3)^(0+1280),c
  3858   00425A  EC67  F033         	call	___fleq	;wreg free
  3859   00425E  B0D8               	btfsc	status,0,c
  3860   004260  EF34  F021         	goto	u5581
  3861   004264  EF36  F021         	goto	u5580
  3862   004268                     u5581:
  3863   004268  EF15  F022         	goto	l1458
  3864   00426C                     u5580:
  3865   00426C  EF43  F021         	goto	l5690
  3866   004270                     l1460:
  3867                           
  3868                           ;/Applications/microchip/xc8/v2.41/pic/sources/c99/common/doprnt.c: 605:    u = ou;
  3869   004270  C573  F588         	movff	efgtoa@ou,efgtoa@u
  3870   004274  C574  F589         	movff	efgtoa@ou+1,efgtoa@u+1
  3871   004278  C575  F58A         	movff	efgtoa@ou+2,efgtoa@u+2
  3872   00427C  C576  F58B         	movff	efgtoa@ou+3,efgtoa@u+3
  3873   004280                     
  3874                           ;/Applications/microchip/xc8/v2.41/pic/sources/c99/common/doprnt.c: 606:    ++e;
  3875   004280  0105               	movlb	5	; () banked
  3876   004282  4B6F               	infsnz	efgtoa@e& (0+255),f,b
  3877   004284  2B70               	incf	(efgtoa@e+1)& (0+255),f,b
  3878   004286                     l5690:
  3879                           
  3880                           ;/Applications/microchip/xc8/v2.41/pic/sources/c99/common/doprnt.c: 604:   while ((labs(
      +                          (g).u-((ou.f = u.f*10.0,ou)).u) <= 1) || g.f > ou.f) {
  3881   004286  C588  F503         	movff	efgtoa@u,___flmul@b
  3882   00428A  C589  F504         	movff	efgtoa@u+1,___flmul@b+1
  3883   00428E  C58A  F505         	movff	efgtoa@u+2,___flmul@b+2
  3884   004292  C58B  F506         	movff	efgtoa@u+3,___flmul@b+3
  3885   004296  0E00               	movlw	0
  3886   004298  6E07               	movwf	___flmul@a^(0+1280),c
  3887   00429A  0E00               	movlw	0
  3888   00429C  6E08               	movwf	(___flmul@a+1)^(0+1280),c
  3889   00429E  0E20               	movlw	32
  3890   0042A0  6E09               	movwf	(___flmul@a+2)^(0+1280),c
  3891   0042A2  0E41               	movlw	65
  3892   0042A4  6E0A               	movwf	(___flmul@a+3)^(0+1280),c
  3893   0042A6  ECA8  F027         	call	___flmul	;wreg free
  3894   0042AA  C503  F573         	movff	?___flmul,efgtoa@ou
  3895   0042AE  C504  F574         	movff	?___flmul+1,efgtoa@ou+1
  3896   0042B2  C505  F575         	movff	?___flmul+2,efgtoa@ou+2
  3897   0042B6  C506  F576         	movff	?___flmul+3,efgtoa@ou+3
  3898   0042BA  0105               	movlb	5	; () banked
  3899   0042BC  5173               	movf	efgtoa@ou& (0+255),w,b
  3900   0042BE  5D82               	subwf	efgtoa@g& (0+255),w,b
  3901   0042C0  6E03               	movwf	labs@a^(0+1280),c
  3902   0042C2  5174               	movf	(efgtoa@ou+1)& (0+255),w,b
  3903   0042C4  5983               	subwfb	(efgtoa@g+1)& (0+255),w,b
  3904   0042C6  6E04               	movwf	(labs@a+1)^(0+1280),c
  3905   0042C8  5175               	movf	(efgtoa@ou+2)& (0+255),w,b
  3906   0042CA  5984               	subwfb	(efgtoa@g+2)& (0+255),w,b
  3907   0042CC  6E05               	movwf	(labs@a+2)^(0+1280),c
  3908   0042CE  5176               	movf	(efgtoa@ou+3)& (0+255),w,b
  3909   0042D0  5985               	subwfb	(efgtoa@g+3)& (0+255),w,b
  3910   0042D2  6E06               	movwf	(labs@a+3)^(0+1280),c
  3911   0042D4  ECB9  F034         	call	_labs	;wreg free
  3912   0042D8  BE06               	btfsc	(?_labs+3)^(0+1280),7,c
  3913   0042DA  EF7A  F021         	goto	u5591
  3914   0042DE  5006               	movf	(?_labs+3)^(0+1280),w,c
  3915   0042E0  1005               	iorwf	(?_labs+2)^(0+1280),w,c
  3916   0042E2  1004               	iorwf	(?_labs+1)^(0+1280),w,c
  3917   0042E4  E109               	bnz	u5590
  3918   0042E6  0E02               	movlw	2
  3919   0042E8  5C03               	subwf	?_labs^(0+1280),w,c
  3920   0042EA  A0D8               	btfss	status,0,c
  3921   0042EC  EF7A  F021         	goto	u5591
  3922   0042F0  EF7C  F021         	goto	u5590
  3923   0042F4                     u5591:
  3924   0042F4  EF38  F021         	goto	l1460
  3925   0042F8                     u5590:
  3926   0042F8  C573  F51C         	movff	efgtoa@ou,___flge@ff1
  3927   0042FC  C574  F51D         	movff	efgtoa@ou+1,___flge@ff1+1
  3928   004300  C575  F51E         	movff	efgtoa@ou+2,___flge@ff1+2
  3929   004304  C576  F51F         	movff	efgtoa@ou+3,___flge@ff1+3
  3930   004308  C582  F520         	movff	efgtoa@g,___flge@ff2
  3931   00430C  C583  F521         	movff	efgtoa@g+1,___flge@ff2+1
  3932   004310  C584  F522         	movff	efgtoa@g+2,___flge@ff2+2
  3933   004314  C585  F523         	movff	efgtoa@g+3,___flge@ff2+3
  3934   004318  EC0C  F030         	call	___flge	;wreg free
  3935   00431C  A0D8               	btfss	status,0,c
  3936   00431E  EF93  F021         	goto	u5601
  3937   004322  EF95  F021         	goto	u5600
  3938   004326                     u5601:
  3939   004326  EF38  F021         	goto	l1460
  3940   00432A                     u5600:
  3941   00432A                     
  3942                           ;/Applications/microchip/xc8/v2.41/pic/sources/c99/common/doprnt.c: 608:   if ((labs((g)
      +                          .u-(u).u) <= 1)) {
  3943   00432A  0105               	movlb	5	; () banked
  3944   00432C  5188               	movf	efgtoa@u& (0+255),w,b
  3945   00432E  5D82               	subwf	efgtoa@g& (0+255),w,b
  3946   004330  6E03               	movwf	labs@a^(0+1280),c
  3947   004332  5189               	movf	(efgtoa@u+1)& (0+255),w,b
  3948   004334  5983               	subwfb	(efgtoa@g+1)& (0+255),w,b
  3949   004336  6E04               	movwf	(labs@a+1)^(0+1280),c
  3950   004338  518A               	movf	(efgtoa@u+2)& (0+255),w,b
  3951   00433A  5984               	subwfb	(efgtoa@g+2)& (0+255),w,b
  3952   00433C  6E05               	movwf	(labs@a+2)^(0+1280),c
  3953   00433E  518B               	movf	(efgtoa@u+3)& (0+255),w,b
  3954   004340  5985               	subwfb	(efgtoa@g+3)& (0+255),w,b
  3955   004342  6E06               	movwf	(labs@a+3)^(0+1280),c
  3956   004344  ECB9  F034         	call	_labs	;wreg free
  3957   004348  BE06               	btfsc	(?_labs+3)^(0+1280),7,c
  3958   00434A  EFB4  F021         	goto	u5610
  3959   00434E  5006               	movf	(?_labs+3)^(0+1280),w,c
  3960   004350  1005               	iorwf	(?_labs+2)^(0+1280),w,c
  3961   004352  1004               	iorwf	(?_labs+1)^(0+1280),w,c
  3962   004354  E107               	bnz	u5611
  3963   004356  0E02               	movlw	2
  3964   004358  5C03               	subwf	?_labs^(0+1280),w,c
  3965   00435A  B0D8               	btfsc	status,0,c
  3966   00435C  EFB2  F021         	goto	u5611
  3967   004360  EFB4  F021         	goto	u5610
  3968   004364                     u5611:
  3969   004364  EFFC  F021         	goto	l5708
  3970   004368                     u5610:
  3971   004368                     l5698:
  3972                           
  3973                           ;/Applications/microchip/xc8/v2.41/pic/sources/c99/common/doprnt.c: 609:    g = u;
  3974   004368  C588  F582         	movff	efgtoa@u,efgtoa@g
  3975   00436C  C589  F583         	movff	efgtoa@u+1,efgtoa@g+1
  3976   004370  C58A  F584         	movff	efgtoa@u+2,efgtoa@g+2
  3977   004374  C58B  F585         	movff	efgtoa@u+3,efgtoa@g+3
  3978                           
  3979                           ;/Applications/microchip/xc8/v2.41/pic/sources/c99/common/doprnt.c: 610:   }
  3980   004378  EF15  F022         	goto	l1458
  3981   00437C                     l5700:
  3982                           
  3983                           ;/Applications/microchip/xc8/v2.41/pic/sources/c99/common/doprnt.c: 613:     u.f = u.f/1
      +                          0.0;
  3984   00437C  C588  F503         	movff	efgtoa@u,___fldiv@b
  3985   004380  C589  F504         	movff	efgtoa@u+1,___fldiv@b+1
  3986   004384  C58A  F505         	movff	efgtoa@u+2,___fldiv@b+2
  3987   004388  C58B  F506         	movff	efgtoa@u+3,___fldiv@b+3
  3988   00438C  0E00               	movlw	0
  3989   00438E  6E07               	movwf	___fldiv@a^(0+1280),c
  3990   004390  0E00               	movlw	0
  3991   004392  6E08               	movwf	(___fldiv@a+1)^(0+1280),c
  3992   004394  0E20               	movlw	32
  3993   004396  6E09               	movwf	(___fldiv@a+2)^(0+1280),c
  3994   004398  0E41               	movlw	65
  3995   00439A  6E0A               	movwf	(___fldiv@a+3)^(0+1280),c
  3996   00439C  ECBD  F029         	call	___fldiv	;wreg free
  3997   0043A0  C503  F588         	movff	?___fldiv,efgtoa@u
  3998   0043A4  C504  F589         	movff	?___fldiv+1,efgtoa@u+1
  3999   0043A8  C505  F58A         	movff	?___fldiv+2,efgtoa@u+2
  4000   0043AC  C506  F58B         	movff	?___fldiv+3,efgtoa@u+3
  4001   0043B0                     
  4002                           ;/Applications/microchip/xc8/v2.41/pic/sources/c99/common/doprnt.c: 614:     --e;
  4003   0043B0  0105               	movlb	5	; () banked
  4004   0043B2  076F               	decf	efgtoa@e& (0+255),f,b
  4005   0043B4  A0D8               	btfss	status,0,c
  4006   0043B6  0770               	decf	(efgtoa@e+1)& (0+255),f,b
  4007   0043B8                     
  4008                           ; BSR set to: 5
  4009                           ;/Applications/microchip/xc8/v2.41/pic/sources/c99/common/doprnt.c: 615:     if ((labs((
      +                          g).u-(u).u) <= 1)) {
  4010   0043B8  5188               	movf	efgtoa@u& (0+255),w,b
  4011   0043BA  5D82               	subwf	efgtoa@g& (0+255),w,b
  4012   0043BC  6E03               	movwf	labs@a^(0+1280),c
  4013   0043BE  5189               	movf	(efgtoa@u+1)& (0+255),w,b
  4014   0043C0  5983               	subwfb	(efgtoa@g+1)& (0+255),w,b
  4015   0043C2  6E04               	movwf	(labs@a+1)^(0+1280),c
  4016   0043C4  518A               	movf	(efgtoa@u+2)& (0+255),w,b
  4017   0043C6  5984               	subwfb	(efgtoa@g+2)& (0+255),w,b
  4018   0043C8  6E05               	movwf	(labs@a+2)^(0+1280),c
  4019   0043CA  518B               	movf	(efgtoa@u+3)& (0+255),w,b
  4020   0043CC  5985               	subwfb	(efgtoa@g+3)& (0+255),w,b
  4021   0043CE  6E06               	movwf	(labs@a+3)^(0+1280),c
  4022   0043D0  ECB9  F034         	call	_labs	;wreg free
  4023   0043D4  BE06               	btfsc	(?_labs+3)^(0+1280),7,c
  4024   0043D6  EFFA  F021         	goto	u5620
  4025   0043DA  5006               	movf	(?_labs+3)^(0+1280),w,c
  4026   0043DC  1005               	iorwf	(?_labs+2)^(0+1280),w,c
  4027   0043DE  1004               	iorwf	(?_labs+1)^(0+1280),w,c
  4028   0043E0  E107               	bnz	u5621
  4029   0043E2  0E02               	movlw	2
  4030   0043E4  5C03               	subwf	?_labs^(0+1280),w,c
  4031   0043E6  B0D8               	btfsc	status,0,c
  4032   0043E8  EFF8  F021         	goto	u5621
  4033   0043EC  EFFA  F021         	goto	u5620
  4034   0043F0                     u5621:
  4035   0043F0  EFFC  F021         	goto	l5708
  4036   0043F4                     u5620:
  4037   0043F4  EFB4  F021         	goto	l5698
  4038   0043F8                     l5708:
  4039                           
  4040                           ;/Applications/microchip/xc8/v2.41/pic/sources/c99/common/doprnt.c: 612:    while (g.f <
      +                           u.f) {
  4041   0043F8  C582  F51C         	movff	efgtoa@g,___flge@ff1
  4042   0043FC  C583  F51D         	movff	efgtoa@g+1,___flge@ff1+1
  4043   004400  C584  F51E         	movff	efgtoa@g+2,___flge@ff1+2
  4044   004404  C585  F51F         	movff	efgtoa@g+3,___flge@ff1+3
  4045   004408  C588  F520         	movff	efgtoa@u,___flge@ff2
  4046   00440C  C589  F521         	movff	efgtoa@u+1,___flge@ff2+1
  4047   004410  C58A  F522         	movff	efgtoa@u+2,___flge@ff2+2
  4048   004414  C58B  F523         	movff	efgtoa@u+3,___flge@ff2+3
  4049   004418  EC0C  F030         	call	___flge	;wreg free
  4050   00441C  A0D8               	btfss	status,0,c
  4051   00441E  EF13  F022         	goto	u5631
  4052   004422  EF15  F022         	goto	u5630
  4053   004426                     u5631:
  4054   004426  EFBE  F021         	goto	l5700
  4055   00442A                     u5630:
  4056   00442A                     l1458:
  4057                           
  4058                           ;/Applications/microchip/xc8/v2.41/pic/sources/c99/common/doprnt.c: 627:  mode = c;
  4059   00442A  C53A  F569         	movff	efgtoa@c,efgtoa@mode
  4060                           
  4061                           ;/Applications/microchip/xc8/v2.41/pic/sources/c99/common/doprnt.c: 629:     nmode = mod
      +                          e;
  4062   00442E  C569  F56A         	movff	efgtoa@mode,efgtoa@nmode
  4063   004432                     
  4064                           ;/Applications/microchip/xc8/v2.41/pic/sources/c99/common/doprnt.c: 639:  {;/Application
      +                          s/microchip/xc8/v2.41/pic/sources/c99/common/doprnt.c: 640:         p = (prec < 0) ? 6 :
      +                           prec;
  4065   004432  0105               	movlb	5	; () banked
  4066   004434  BFCD               	btfsc	(_prec+1)& (0+255),7,b
  4067   004436  EF1F  F022         	goto	u5641
  4068   00443A  EF21  F022         	goto	u5640
  4069   00443E                     u5641:
  4070   00443E  EF27  F022         	goto	l5714
  4071   004442                     u5640:
  4072   004442                     
  4073                           ; BSR set to: 5
  4074   004442  C5CC  F562         	movff	_prec,efgtoa@p
  4075   004446  C5CD  F563         	movff	_prec+1,efgtoa@p+1
  4076   00444A  EF2B  F022         	goto	l5716
  4077   00444E                     l5714:
  4078                           
  4079                           ; BSR set to: 5
  4080   00444E  0E00               	movlw	0
  4081   004450  6F63               	movwf	(efgtoa@p+1)& (0+255),b
  4082   004452  0E06               	movlw	6
  4083   004454  6F62               	movwf	efgtoa@p& (0+255),b
  4084   004456                     l5716:
  4085                           
  4086                           ; BSR set to: 5
  4087                           ;/Applications/microchip/xc8/v2.41/pic/sources/c99/common/doprnt.c: 641:     };/Applicat
      +                          ions/microchip/xc8/v2.41/pic/sources/c99/common/doprnt.c: 655:     m = p;
  4088   004456  C562  F56D         	movff	efgtoa@p,efgtoa@m
  4089   00445A  C563  F56E         	movff	efgtoa@p+1,efgtoa@m+1
  4090   00445E                     
  4091                           ; BSR set to: 5
  4092                           ;/Applications/microchip/xc8/v2.41/pic/sources/c99/common/doprnt.c: 659:  {;/Application
      +                          s/microchip/xc8/v2.41/pic/sources/c99/common/doprnt.c: 660:         ++m;
  4093   00445E  4B6D               	infsnz	efgtoa@m& (0+255),f,b
  4094   004460  2B6E               	incf	(efgtoa@m+1)& (0+255),f,b
  4095   004462                     
  4096                           ; BSR set to: 5
  4097                           ;/Applications/microchip/xc8/v2.41/pic/sources/c99/common/doprnt.c: 661:     };/Applicat
      +                          ions/microchip/xc8/v2.41/pic/sources/c99/common/doprnt.c: 665:     if (nmode == 'f') {
  4098   004462  0E66               	movlw	102
  4099   004464  196A               	xorwf	efgtoa@nmode& (0+255),w,b
  4100   004466  A4D8               	btfss	status,2,c
  4101   004468  EF38  F022         	goto	u5651
  4102   00446C  EF3A  F022         	goto	u5650
  4103   004470                     u5651:
  4104   004470  EF5A  F022         	goto	l5730
  4105   004474                     u5650:
  4106   004474                     
  4107                           ; BSR set to: 5
  4108                           ;/Applications/microchip/xc8/v2.41/pic/sources/c99/common/doprnt.c: 666:         if (e <
      +                           0) {
  4109   004474  BF70               	btfsc	(efgtoa@e+1)& (0+255),7,b
  4110   004476  EF41  F022         	goto	u5660
  4111   00447A  EF3F  F022         	goto	u5661
  4112   00447E                     u5661:
  4113   00447E  EF4D  F022         	goto	l5726
  4114   004482                     u5660:
  4115   004482                     
  4116                           ; BSR set to: 5
  4117                           ;/Applications/microchip/xc8/v2.41/pic/sources/c99/common/doprnt.c: 667:             u.f
      +                           = 1.0;
  4118   004482  0E00               	movlw	0
  4119   004484  6F88               	movwf	efgtoa@u& (0+255),b
  4120   004486  0E00               	movlw	0
  4121   004488  6F89               	movwf	(efgtoa@u+1)& (0+255),b
  4122   00448A  0E80               	movlw	128
  4123   00448C  6F8A               	movwf	(efgtoa@u+2)& (0+255),b
  4124   00448E  0E3F               	movlw	63
  4125   004490  6F8B               	movwf	(efgtoa@u+3)& (0+255),b
  4126                           
  4127                           ;/Applications/microchip/xc8/v2.41/pic/sources/c99/common/doprnt.c: 668:             e =
      +                           0;
  4128   004492  0E00               	movlw	0
  4129   004494  6F70               	movwf	(efgtoa@e+1)& (0+255),b
  4130   004496  0E00               	movlw	0
  4131   004498  6F6F               	movwf	efgtoa@e& (0+255),b
  4132   00449A                     l5726:
  4133                           
  4134                           ; BSR set to: 5
  4135                           ;/Applications/microchip/xc8/v2.41/pic/sources/c99/common/doprnt.c: 670:         if (!(m
      +                          ode == 'g')) {
  4136   00449A  0E67               	movlw	103
  4137   00449C  1969               	xorwf	efgtoa@mode& (0+255),w,b
  4138   00449E  B4D8               	btfsc	status,2,c
  4139   0044A0  EF54  F022         	goto	u5671
  4140   0044A4  EF56  F022         	goto	u5670
  4141   0044A8                     u5671:
  4142   0044A8  EF5A  F022         	goto	l5730
  4143   0044AC                     u5670:
  4144   0044AC                     
  4145                           ; BSR set to: 5
  4146                           ;/Applications/microchip/xc8/v2.41/pic/sources/c99/common/doprnt.c: 671:             m +
      +                          = e;
  4147   0044AC  516F               	movf	efgtoa@e& (0+255),w,b
  4148   0044AE  276D               	addwf	efgtoa@m& (0+255),f,b
  4149   0044B0  5170               	movf	(efgtoa@e+1)& (0+255),w,b
  4150   0044B2  236E               	addwfc	(efgtoa@m+1)& (0+255),f,b
  4151   0044B4                     l5730:
  4152                           
  4153                           ; BSR set to: 5
  4154                           ;/Applications/microchip/xc8/v2.41/pic/sources/c99/common/doprnt.c: 677:     i = 0;
  4155   0044B4  0E00               	movlw	0
  4156   0044B6  6F78               	movwf	(efgtoa@i+1)& (0+255),b
  4157   0044B8  0E00               	movlw	0
  4158   0044BA  6F77               	movwf	efgtoa@i& (0+255),b
  4159   0044BC                     
  4160                           ; BSR set to: 5
  4161                           ;/Applications/microchip/xc8/v2.41/pic/sources/c99/common/doprnt.c: 678:     h = g.f;
  4162   0044BC  C582  F579         	movff	efgtoa@g,efgtoa@h
  4163   0044C0  C583  F57A         	movff	efgtoa@g+1,efgtoa@h+1
  4164   0044C4  C584  F57B         	movff	efgtoa@g+2,efgtoa@h+2
  4165   0044C8  C585  F57C         	movff	efgtoa@g+3,efgtoa@h+3
  4166   0044CC                     
  4167                           ; BSR set to: 5
  4168                           ;/Applications/microchip/xc8/v2.41/pic/sources/c99/common/doprnt.c: 679:     ou = u;
  4169   0044CC  C588  F573         	movff	efgtoa@u,efgtoa@ou
  4170   0044D0  C589  F574         	movff	efgtoa@u+1,efgtoa@ou+1
  4171   0044D4  C58A  F575         	movff	efgtoa@u+2,efgtoa@ou+2
  4172   0044D8  C58B  F576         	movff	efgtoa@u+3,efgtoa@ou+3
  4173                           
  4174                           ;/Applications/microchip/xc8/v2.41/pic/sources/c99/common/doprnt.c: 680:     while (i < 
      +                          m) {
  4175   0044DC  EFEB  F022         	goto	l5744
  4176   0044E0                     l5736:
  4177                           
  4178                           ; BSR set to: 5
  4179                           ;/Applications/microchip/xc8/v2.41/pic/sources/c99/common/doprnt.c: 681:         l = flo
      +                          orf(h/u.f);
  4180   0044E0  C579  F503         	movff	efgtoa@h,___fldiv@b
  4181   0044E4  C57A  F504         	movff	efgtoa@h+1,___fldiv@b+1
  4182   0044E8  C57B  F505         	movff	efgtoa@h+2,___fldiv@b+2
  4183   0044EC  C57C  F506         	movff	efgtoa@h+3,___fldiv@b+3
  4184   0044F0  C588  F507         	movff	efgtoa@u,___fldiv@a
  4185   0044F4  C589  F508         	movff	efgtoa@u+1,___fldiv@a+1
  4186   0044F8  C58A  F509         	movff	efgtoa@u+2,___fldiv@a+2
  4187   0044FC  C58B  F50A         	movff	efgtoa@u+3,___fldiv@a+3
  4188   004500  ECBD  F029         	call	___fldiv	;wreg free
  4189   004504  C503  F51C         	movff	?___fldiv,floorf@x
  4190   004508  C504  F51D         	movff	?___fldiv+1,floorf@x+1
  4191   00450C  C505  F51E         	movff	?___fldiv+2,floorf@x+2
  4192   004510  C506  F51F         	movff	?___fldiv+3,floorf@x+3
  4193   004514  ECCB  F02C         	call	_floorf	;wreg free
  4194   004518  C51C  F57D         	movff	?_floorf,efgtoa@l
  4195   00451C  C51D  F57E         	movff	?_floorf+1,efgtoa@l+1
  4196   004520  C51E  F57F         	movff	?_floorf+2,efgtoa@l+2
  4197   004524  C51F  F580         	movff	?_floorf+3,efgtoa@l+3
  4198                           
  4199                           ;/Applications/microchip/xc8/v2.41/pic/sources/c99/common/doprnt.c: 682:         d = (in
      +                          t)l;
  4200   004528  C57D  F503         	movff	efgtoa@l,___fltol@f1
  4201   00452C  C57E  F504         	movff	efgtoa@l+1,___fltol@f1+1
  4202   004530  C57F  F505         	movff	efgtoa@l+2,___fltol@f1+2
  4203   004534  C580  F506         	movff	efgtoa@l+3,___fltol@f1+3
  4204   004538  EC89  F02F         	call	___fltol	;wreg free
  4205   00453C  C503  F56B         	movff	?___fltol,efgtoa@d
  4206   004540  C504  F56C         	movff	?___fltol+1,efgtoa@d+1
  4207   004544                     
  4208                           ;/Applications/microchip/xc8/v2.41/pic/sources/c99/common/doprnt.c: 683:         h -= l*
      +                          u.f;
  4209   004544  C579  F52C         	movff	efgtoa@h,___flsub@b
  4210   004548  C57A  F52D         	movff	efgtoa@h+1,___flsub@b+1
  4211   00454C  C57B  F52E         	movff	efgtoa@h+2,___flsub@b+2
  4212   004550  C57C  F52F         	movff	efgtoa@h+3,___flsub@b+3
  4213   004554  C57D  F507         	movff	efgtoa@l,___flmul@a
  4214   004558  C57E  F508         	movff	efgtoa@l+1,___flmul@a+1
  4215   00455C  C57F  F509         	movff	efgtoa@l+2,___flmul@a+2
  4216   004560  C580  F50A         	movff	efgtoa@l+3,___flmul@a+3
  4217   004564  C588  F503         	movff	efgtoa@u,___flmul@b
  4218   004568  C589  F504         	movff	efgtoa@u+1,___flmul@b+1
  4219   00456C  C58A  F505         	movff	efgtoa@u+2,___flmul@b+2
  4220   004570  C58B  F506         	movff	efgtoa@u+3,___flmul@b+3
  4221   004574  ECA8  F027         	call	___flmul	;wreg free
  4222   004578  C503  F530         	movff	?___flmul,___flsub@a
  4223   00457C  C504  F531         	movff	?___flmul+1,___flsub@a+1
  4224   004580  C505  F532         	movff	?___flmul+2,___flsub@a+2
  4225   004584  C506  F533         	movff	?___flmul+3,___flsub@a+3
  4226   004588  EC96  F035         	call	___flsub	;wreg free
  4227   00458C  C52C  F579         	movff	?___flsub,efgtoa@h
  4228   004590  C52D  F57A         	movff	?___flsub+1,efgtoa@h+1
  4229   004594  C52E  F57B         	movff	?___flsub+2,efgtoa@h+2
  4230   004598  C52F  F57C         	movff	?___flsub+3,efgtoa@h+3
  4231   00459C                     
  4232                           ;/Applications/microchip/xc8/v2.41/pic/sources/c99/common/doprnt.c: 684:         u.f = u
      +                          .f/10.0;
  4233   00459C  C588  F503         	movff	efgtoa@u,___fldiv@b
  4234   0045A0  C589  F504         	movff	efgtoa@u+1,___fldiv@b+1
  4235   0045A4  C58A  F505         	movff	efgtoa@u+2,___fldiv@b+2
  4236   0045A8  C58B  F506         	movff	efgtoa@u+3,___fldiv@b+3
  4237   0045AC  0E00               	movlw	0
  4238   0045AE  6E07               	movwf	___fldiv@a^(0+1280),c
  4239   0045B0  0E00               	movlw	0
  4240   0045B2  6E08               	movwf	(___fldiv@a+1)^(0+1280),c
  4241   0045B4  0E20               	movlw	32
  4242   0045B6  6E09               	movwf	(___fldiv@a+2)^(0+1280),c
  4243   0045B8  0E41               	movlw	65
  4244   0045BA  6E0A               	movwf	(___fldiv@a+3)^(0+1280),c
  4245   0045BC  ECBD  F029         	call	___fldiv	;wreg free
  4246   0045C0  C503  F588         	movff	?___fldiv,efgtoa@u
  4247   0045C4  C504  F589         	movff	?___fldiv+1,efgtoa@u+1
  4248   0045C8  C505  F58A         	movff	?___fldiv+2,efgtoa@u+2
  4249   0045CC  C506  F58B         	movff	?___fldiv+3,efgtoa@u+3
  4250   0045D0                     
  4251                           ;/Applications/microchip/xc8/v2.41/pic/sources/c99/common/doprnt.c: 685:         ++i;
  4252   0045D0  0105               	movlb	5	; () banked
  4253   0045D2  4B77               	infsnz	efgtoa@i& (0+255),f,b
  4254   0045D4  2B78               	incf	(efgtoa@i+1)& (0+255),f,b
  4255   0045D6                     l5744:
  4256                           
  4257                           ; BSR set to: 5
  4258                           ;/Applications/microchip/xc8/v2.41/pic/sources/c99/common/doprnt.c: 680:     while (i < 
      +                          m) {
  4259   0045D6  516D               	movf	efgtoa@m& (0+255),w,b
  4260   0045D8  5D77               	subwf	efgtoa@i& (0+255),w,b
  4261   0045DA  5178               	movf	(efgtoa@i+1)& (0+255),w,b
  4262   0045DC  0A80               	xorlw	128
  4263   0045DE  6E3B               	movwf	??_efgtoa^(0+1280),c
  4264   0045E0  516E               	movf	(efgtoa@m+1)& (0+255),w,b
  4265   0045E2  0A80               	xorlw	128
  4266   0045E4  583B               	subwfb	??_efgtoa^(0+1280),w,c
  4267   0045E6  A0D8               	btfss	status,0,c
  4268   0045E8  EFF8  F022         	goto	u5681
  4269   0045EC  EFFA  F022         	goto	u5680
  4270   0045F0                     u5681:
  4271   0045F0  EF70  F022         	goto	l5736
  4272   0045F4                     u5680:
  4273   0045F4                     
  4274                           ; BSR set to: 5
  4275                           ;/Applications/microchip/xc8/v2.41/pic/sources/c99/common/doprnt.c: 689:     l = u.f*5.0
      +                          ;
  4276   0045F4  C588  F503         	movff	efgtoa@u,___flmul@b
  4277   0045F8  C589  F504         	movff	efgtoa@u+1,___flmul@b+1
  4278   0045FC  C58A  F505         	movff	efgtoa@u+2,___flmul@b+2
  4279   004600  C58B  F506         	movff	efgtoa@u+3,___flmul@b+3
  4280   004604  0E00               	movlw	0
  4281   004606  6E07               	movwf	___flmul@a^(0+1280),c
  4282   004608  0E00               	movlw	0
  4283   00460A  6E08               	movwf	(___flmul@a+1)^(0+1280),c
  4284   00460C  0EA0               	movlw	160
  4285   00460E  6E09               	movwf	(___flmul@a+2)^(0+1280),c
  4286   004610  0E40               	movlw	64
  4287   004612  6E0A               	movwf	(___flmul@a+3)^(0+1280),c
  4288   004614  ECA8  F027         	call	___flmul	;wreg free
  4289   004618  C503  F57D         	movff	?___flmul,efgtoa@l
  4290   00461C  C504  F57E         	movff	?___flmul+1,efgtoa@l+1
  4291   004620  C505  F57F         	movff	?___flmul+2,efgtoa@l+2
  4292   004624  C506  F580         	movff	?___flmul+3,efgtoa@l+3
  4293   004628                     
  4294                           ;/Applications/microchip/xc8/v2.41/pic/sources/c99/common/doprnt.c: 690:     if (h < l) 
      +                          {
  4295   004628  C579  F51C         	movff	efgtoa@h,___flge@ff1
  4296   00462C  C57A  F51D         	movff	efgtoa@h+1,___flge@ff1+1
  4297   004630  C57B  F51E         	movff	efgtoa@h+2,___flge@ff1+2
  4298   004634  C57C  F51F         	movff	efgtoa@h+3,___flge@ff1+3
  4299   004638  C57D  F520         	movff	efgtoa@l,___flge@ff2
  4300   00463C  C57E  F521         	movff	efgtoa@l+1,___flge@ff2+1
  4301   004640  C57F  F522         	movff	efgtoa@l+2,___flge@ff2+2
  4302   004644  C580  F523         	movff	efgtoa@l+3,___flge@ff2+3
  4303   004648  EC0C  F030         	call	___flge	;wreg free
  4304   00464C  B0D8               	btfsc	status,0,c
  4305   00464E  EF2B  F023         	goto	u5691
  4306   004652  EF2D  F023         	goto	u5690
  4307   004656                     u5691:
  4308   004656  EF38  F023         	goto	l5752
  4309   00465A                     u5690:
  4310   00465A                     
  4311                           ;/Applications/microchip/xc8/v2.41/pic/sources/c99/common/doprnt.c: 691:         l = 0.0
      +                          ;
  4312   00465A  0E00               	movlw	0
  4313   00465C  0105               	movlb	5	; () banked
  4314   00465E  6F7D               	movwf	efgtoa@l& (0+255),b
  4315   004660  0E00               	movlw	0
  4316   004662  6F7E               	movwf	(efgtoa@l+1)& (0+255),b
  4317   004664  0E00               	movlw	0
  4318   004666  6F7F               	movwf	(efgtoa@l+2)& (0+255),b
  4319   004668  0E00               	movlw	0
  4320   00466A  6F80               	movwf	(efgtoa@l+3)& (0+255),b
  4321                           
  4322                           ;/Applications/microchip/xc8/v2.41/pic/sources/c99/common/doprnt.c: 692:     } else {
  4323   00466C  EF61  F023         	goto	l5758
  4324   004670                     l5752:
  4325                           
  4326                           ;/Applications/microchip/xc8/v2.41/pic/sources/c99/common/doprnt.c: 694:         if ((h 
      +                          == l) && !(d % 2)) {
  4327   004670  C579  F503         	movff	efgtoa@h,___fleq@ff1
  4328   004674  C57A  F504         	movff	efgtoa@h+1,___fleq@ff1+1
  4329   004678  C57B  F505         	movff	efgtoa@h+2,___fleq@ff1+2
  4330   00467C  C57C  F506         	movff	efgtoa@h+3,___fleq@ff1+3
  4331   004680  C57D  F507         	movff	efgtoa@l,___fleq@ff2
  4332   004684  C57E  F508         	movff	efgtoa@l+1,___fleq@ff2+1
  4333   004688  C57F  F509         	movff	efgtoa@l+2,___fleq@ff2+2
  4334   00468C  C580  F50A         	movff	efgtoa@l+3,___fleq@ff2+3
  4335   004690  EC67  F033         	call	___fleq	;wreg free
  4336   004694  A0D8               	btfss	status,0,c
  4337   004696  EF4F  F023         	goto	u5701
  4338   00469A  EF51  F023         	goto	u5700
  4339   00469E                     u5701:
  4340   00469E  EF61  F023         	goto	l5758
  4341   0046A2                     u5700:
  4342   0046A2  0105               	movlb	5	; () banked
  4343   0046A4  B16B               	btfsc	efgtoa@d& (0+255),0,b
  4344   0046A6  EF57  F023         	goto	u5711
  4345   0046AA  EF59  F023         	goto	u5710
  4346   0046AE                     u5711:
  4347   0046AE  EF61  F023         	goto	l5758
  4348   0046B2                     u5710:
  4349   0046B2                     
  4350                           ; BSR set to: 5
  4351                           ;/Applications/microchip/xc8/v2.41/pic/sources/c99/common/doprnt.c: 695:             l =
      +                           0.0;
  4352   0046B2  0E00               	movlw	0
  4353   0046B4  6F7D               	movwf	efgtoa@l& (0+255),b
  4354   0046B6  0E00               	movlw	0
  4355   0046B8  6F7E               	movwf	(efgtoa@l+1)& (0+255),b
  4356   0046BA  0E00               	movlw	0
  4357   0046BC  6F7F               	movwf	(efgtoa@l+2)& (0+255),b
  4358   0046BE  0E00               	movlw	0
  4359   0046C0  6F80               	movwf	(efgtoa@l+3)& (0+255),b
  4360   0046C2                     l5758:
  4361                           
  4362                           ;/Applications/microchip/xc8/v2.41/pic/sources/c99/common/doprnt.c: 700:     h = g.f + l
      +                          ;
  4363   0046C2  C582  F51C         	movff	efgtoa@g,___fladd@b
  4364   0046C6  C583  F51D         	movff	efgtoa@g+1,___fladd@b+1
  4365   0046CA  C584  F51E         	movff	efgtoa@g+2,___fladd@b+2
  4366   0046CE  C585  F51F         	movff	efgtoa@g+3,___fladd@b+3
  4367   0046D2  C57D  F520         	movff	efgtoa@l,___fladd@a
  4368   0046D6  C57E  F521         	movff	efgtoa@l+1,___fladd@a+1
  4369   0046DA  C57F  F522         	movff	efgtoa@l+2,___fladd@a+2
  4370   0046DE  C580  F523         	movff	efgtoa@l+3,___fladd@a+3
  4371   0046E2  EC48  F025         	call	___fladd	;wreg free
  4372   0046E6  C51C  F579         	movff	?___fladd,efgtoa@h
  4373   0046EA  C51D  F57A         	movff	?___fladd+1,efgtoa@h+1
  4374   0046EE  C51E  F57B         	movff	?___fladd+2,efgtoa@h+2
  4375   0046F2  C51F  F57C         	movff	?___fladd+3,efgtoa@h+3
  4376   0046F6                     
  4377                           ;/Applications/microchip/xc8/v2.41/pic/sources/c99/common/doprnt.c: 702:  if (h >= (ou.f
      +                          *10.0)) {
  4378   0046F6  C579  F51C         	movff	efgtoa@h,___flge@ff1
  4379   0046FA  C57A  F51D         	movff	efgtoa@h+1,___flge@ff1+1
  4380   0046FE  C57B  F51E         	movff	efgtoa@h+2,___flge@ff1+2
  4381   004702  C57C  F51F         	movff	efgtoa@h+3,___flge@ff1+3
  4382   004706  0E00               	movlw	0
  4383   004708  6E07               	movwf	___flmul@a^(0+1280),c
  4384   00470A  0E00               	movlw	0
  4385   00470C  6E08               	movwf	(___flmul@a+1)^(0+1280),c
  4386   00470E  0E20               	movlw	32
  4387   004710  6E09               	movwf	(___flmul@a+2)^(0+1280),c
  4388   004712  0E41               	movlw	65
  4389   004714  6E0A               	movwf	(___flmul@a+3)^(0+1280),c
  4390   004716  C573  F503         	movff	efgtoa@ou,___flmul@b
  4391   00471A  C574  F504         	movff	efgtoa@ou+1,___flmul@b+1
  4392   00471E  C575  F505         	movff	efgtoa@ou+2,___flmul@b+2
  4393   004722  C576  F506         	movff	efgtoa@ou+3,___flmul@b+3
  4394   004726  ECA8  F027         	call	___flmul	;wreg free
  4395   00472A  C503  F520         	movff	?___flmul,___flge@ff2
  4396   00472E  C504  F521         	movff	?___flmul+1,___flge@ff2+1
  4397   004732  C505  F522         	movff	?___flmul+2,___flge@ff2+2
  4398   004736  C506  F523         	movff	?___flmul+3,___flge@ff2+3
  4399   00473A  EC0C  F030         	call	___flge	;wreg free
  4400   00473E  A0D8               	btfss	status,0,c
  4401   004740  EFA4  F023         	goto	u5721
  4402   004744  EFA6  F023         	goto	u5720
  4403   004748                     u5721:
  4404   004748  EFCF  F023         	goto	l5770
  4405   00474C                     u5720:
  4406   00474C                     
  4407                           ;/Applications/microchip/xc8/v2.41/pic/sources/c99/common/doprnt.c: 703:   e++;
  4408   00474C  0105               	movlb	5	; () banked
  4409   00474E  4B6F               	infsnz	efgtoa@e& (0+255),f,b
  4410   004750  2B70               	incf	(efgtoa@e+1)& (0+255),f,b
  4411   004752                     
  4412                           ; BSR set to: 5
  4413                           ;/Applications/microchip/xc8/v2.41/pic/sources/c99/common/doprnt.c: 704:   ou.f *= 10.0;
  4414   004752  C573  F503         	movff	efgtoa@ou,___flmul@b
  4415   004756  C574  F504         	movff	efgtoa@ou+1,___flmul@b+1
  4416   00475A  C575  F505         	movff	efgtoa@ou+2,___flmul@b+2
  4417   00475E  C576  F506         	movff	efgtoa@ou+3,___flmul@b+3
  4418   004762  0E00               	movlw	0
  4419   004764  6E07               	movwf	___flmul@a^(0+1280),c
  4420   004766  0E00               	movlw	0
  4421   004768  6E08               	movwf	(___flmul@a+1)^(0+1280),c
  4422   00476A  0E20               	movlw	32
  4423   00476C  6E09               	movwf	(___flmul@a+2)^(0+1280),c
  4424   00476E  0E41               	movlw	65
  4425   004770  6E0A               	movwf	(___flmul@a+3)^(0+1280),c
  4426   004772  ECA8  F027         	call	___flmul	;wreg free
  4427   004776  C503  F573         	movff	?___flmul,efgtoa@ou
  4428   00477A  C504  F574         	movff	?___flmul+1,efgtoa@ou+1
  4429   00477E  C505  F575         	movff	?___flmul+2,efgtoa@ou+2
  4430   004782  C506  F576         	movff	?___flmul+3,efgtoa@ou+3
  4431   004786                     
  4432                           ;/Applications/microchip/xc8/v2.41/pic/sources/c99/common/doprnt.c: 706:   if (nmode == 
      +                          'f') {
  4433   004786  0E66               	movlw	102
  4434   004788  0105               	movlb	5	; () banked
  4435   00478A  196A               	xorwf	efgtoa@nmode& (0+255),w,b
  4436   00478C  A4D8               	btfss	status,2,c
  4437   00478E  EFCB  F023         	goto	u5731
  4438   004792  EFCD  F023         	goto	u5730
  4439   004796                     u5731:
  4440   004796  EFCF  F023         	goto	l5770
  4441   00479A                     u5730:
  4442   00479A                     
  4443                           ; BSR set to: 5
  4444                           ;/Applications/microchip/xc8/v2.41/pic/sources/c99/common/doprnt.c: 708:    m++;
  4445   00479A  4B6D               	infsnz	efgtoa@m& (0+255),f,b
  4446   00479C  2B6E               	incf	(efgtoa@m+1)& (0+255),f,b
  4447   00479E                     l5770:
  4448                           
  4449                           ;/Applications/microchip/xc8/v2.41/pic/sources/c99/common/doprnt.c: 714:     u = ou;
  4450   00479E  C573  F588         	movff	efgtoa@ou,efgtoa@u
  4451   0047A2  C574  F589         	movff	efgtoa@ou+1,efgtoa@u+1
  4452   0047A6  C575  F58A         	movff	efgtoa@ou+2,efgtoa@u+2
  4453   0047AA  C576  F58B         	movff	efgtoa@ou+3,efgtoa@u+3
  4454   0047AE                     
  4455                           ;/Applications/microchip/xc8/v2.41/pic/sources/c99/common/doprnt.c: 718:  ne = e;
  4456   0047AE  C56F  F560         	movff	efgtoa@e,efgtoa@ne
  4457   0047B2  C570  F561         	movff	efgtoa@e+1,efgtoa@ne+1
  4458   0047B6                     
  4459                           ;/Applications/microchip/xc8/v2.41/pic/sources/c99/common/doprnt.c: 720:     pp = 0;
  4460   0047B6  0E00               	movlw	0
  4461   0047B8  0105               	movlb	5	; () banked
  4462   0047BA  6F68               	movwf	efgtoa@pp& (0+255),b
  4463   0047BC                     
  4464                           ; BSR set to: 5
  4465                           ;/Applications/microchip/xc8/v2.41/pic/sources/c99/common/doprnt.c: 721:     t = 0;
  4466   0047BC  0E00               	movlw	0
  4467   0047BE  6F65               	movwf	(efgtoa@t+1)& (0+255),b
  4468   0047C0  0E00               	movlw	0
  4469   0047C2  6F64               	movwf	efgtoa@t& (0+255),b
  4470   0047C4                     
  4471                           ; BSR set to: 5
  4472                           ;/Applications/microchip/xc8/v2.41/pic/sources/c99/common/doprnt.c: 722:     i = 0;
  4473   0047C4  0E00               	movlw	0
  4474   0047C6  6F78               	movwf	(efgtoa@i+1)& (0+255),b
  4475   0047C8  0E00               	movlw	0
  4476   0047CA  6F77               	movwf	efgtoa@i& (0+255),b
  4477                           
  4478                           ;/Applications/microchip/xc8/v2.41/pic/sources/c99/common/doprnt.c: 723:     while ((i <
      +                           m) && (n < (80 - 5))) {
  4479   0047CC  EFCD  F024         	goto	l5820
  4480   0047D0                     l5780:
  4481                           
  4482                           ; BSR set to: 5
  4483                           ;/Applications/microchip/xc8/v2.41/pic/sources/c99/common/doprnt.c: 724:         l = flo
      +                          orf(h/u.f);
  4484   0047D0  C579  F503         	movff	efgtoa@h,___fldiv@b
  4485   0047D4  C57A  F504         	movff	efgtoa@h+1,___fldiv@b+1
  4486   0047D8  C57B  F505         	movff	efgtoa@h+2,___fldiv@b+2
  4487   0047DC  C57C  F506         	movff	efgtoa@h+3,___fldiv@b+3
  4488   0047E0  C588  F507         	movff	efgtoa@u,___fldiv@a
  4489   0047E4  C589  F508         	movff	efgtoa@u+1,___fldiv@a+1
  4490   0047E8  C58A  F509         	movff	efgtoa@u+2,___fldiv@a+2
  4491   0047EC  C58B  F50A         	movff	efgtoa@u+3,___fldiv@a+3
  4492   0047F0  ECBD  F029         	call	___fldiv	;wreg free
  4493   0047F4  C503  F51C         	movff	?___fldiv,floorf@x
  4494   0047F8  C504  F51D         	movff	?___fldiv+1,floorf@x+1
  4495   0047FC  C505  F51E         	movff	?___fldiv+2,floorf@x+2
  4496   004800  C506  F51F         	movff	?___fldiv+3,floorf@x+3
  4497   004804  ECCB  F02C         	call	_floorf	;wreg free
  4498   004808  C51C  F57D         	movff	?_floorf,efgtoa@l
  4499   00480C  C51D  F57E         	movff	?_floorf+1,efgtoa@l+1
  4500   004810  C51E  F57F         	movff	?_floorf+2,efgtoa@l+2
  4501   004814  C51F  F580         	movff	?_floorf+3,efgtoa@l+3
  4502                           
  4503                           ;/Applications/microchip/xc8/v2.41/pic/sources/c99/common/doprnt.c: 725:         d = (in
      +                          t)l > 9 ? 9 : (int)l;
  4504   004818  C57D  F503         	movff	efgtoa@l,___fltol@f1
  4505   00481C  C57E  F504         	movff	efgtoa@l+1,___fltol@f1+1
  4506   004820  C57F  F505         	movff	efgtoa@l+2,___fltol@f1+2
  4507   004824  C580  F506         	movff	efgtoa@l+3,___fltol@f1+3
  4508   004828  EC89  F02F         	call	___fltol	;wreg free
  4509   00482C  BE04               	btfsc	(?___fltol+1)^(0+1280),7,c
  4510   00482E  EF24  F024         	goto	u5740
  4511   004832  5004               	movf	(?___fltol+1)^(0+1280),w,c
  4512   004834  E107               	bnz	u5741
  4513   004836  0E0A               	movlw	10
  4514   004838  5C03               	subwf	?___fltol^(0+1280),w,c
  4515   00483A  B0D8               	btfsc	status,0,c
  4516   00483C  EF22  F024         	goto	u5741
  4517   004840  EF24  F024         	goto	u5740
  4518   004844                     u5741:
  4519   004844  EF34  F024         	goto	l5784
  4520   004848                     u5740:
  4521   004848  C57D  F503         	movff	efgtoa@l,___fltol@f1
  4522   00484C  C57E  F504         	movff	efgtoa@l+1,___fltol@f1+1
  4523   004850  C57F  F505         	movff	efgtoa@l+2,___fltol@f1+2
  4524   004854  C580  F506         	movff	efgtoa@l+3,___fltol@f1+3
  4525   004858  EC89  F02F         	call	___fltol	;wreg free
  4526   00485C  C503  F56B         	movff	?___fltol,efgtoa@d
  4527   004860  C504  F56C         	movff	?___fltol+1,efgtoa@d+1
  4528   004864  EF39  F024         	goto	l1488
  4529   004868                     l5784:
  4530   004868  0E00               	movlw	0
  4531   00486A  0105               	movlb	5	; () banked
  4532   00486C  6F6C               	movwf	(efgtoa@d+1)& (0+255),b
  4533   00486E  0E09               	movlw	9
  4534   004870  6F6B               	movwf	efgtoa@d& (0+255),b
  4535   004872                     l1488:
  4536                           
  4537                           ;/Applications/microchip/xc8/v2.41/pic/sources/c99/common/doprnt.c: 736:   {;/Applicatio
      +                          ns/microchip/xc8/v2.41/pic/sources/c99/common/doprnt.c: 737:             if (!pp && (ne 
      +                          < 0)) {
  4538   004872  0105               	movlb	5	; () banked
  4539   004874  5168               	movf	efgtoa@pp& (0+255),w,b
  4540   004876  A4D8               	btfss	status,2,c
  4541   004878  EF40  F024         	goto	u5751
  4542   00487C  EF42  F024         	goto	u5750
  4543   004880                     u5751:
  4544   004880  EF6A  F024         	goto	l5804
  4545   004884                     u5750:
  4546   004884                     
  4547                           ; BSR set to: 5
  4548   004884  BF61               	btfsc	(efgtoa@ne+1)& (0+255),7,b
  4549   004886  EF49  F024         	goto	u5760
  4550   00488A  EF47  F024         	goto	u5761
  4551   00488E                     u5761:
  4552   00488E  EF6A  F024         	goto	l5804
  4553   004892                     u5760:
  4554   004892                     
  4555                           ; BSR set to: 5
  4556                           ;/Applications/microchip/xc8/v2.41/pic/sources/c99/common/doprnt.c: 738:                
      +                           dbuf[n++] = '.';
  4557   004892  0E00               	movlw	low _dbuf
  4558   004894  2586               	addwf	efgtoa@n& (0+255),w,b
  4559   004896  6ED9               	movwf	fsr2l,c
  4560   004898  0E06               	movlw	high _dbuf
  4561   00489A  2187               	addwfc	(efgtoa@n+1)& (0+255),w,b
  4562   00489C  6EDA               	movwf	fsr2h,c
  4563   00489E  0E2E               	movlw	46
  4564   0048A0  6EDF               	movwf	indf2,c
  4565   0048A2                     
  4566                           ; BSR set to: 5
  4567   0048A2  4B86               	infsnz	efgtoa@n& (0+255),f,b
  4568   0048A4  2B87               	incf	(efgtoa@n+1)& (0+255),f,b
  4569   0048A6                     
  4570                           ; BSR set to: 5
  4571                           ;/Applications/microchip/xc8/v2.41/pic/sources/c99/common/doprnt.c: 739:                
      +                           --w;
  4572   0048A6  0771               	decf	efgtoa@w& (0+255),f,b
  4573   0048A8  A0D8               	btfss	status,0,c
  4574   0048AA  0772               	decf	(efgtoa@w+1)& (0+255),f,b
  4575   0048AC                     
  4576                           ; BSR set to: 5
  4577                           ;/Applications/microchip/xc8/v2.41/pic/sources/c99/common/doprnt.c: 740:                
      +                           pp = 1;
  4578   0048AC  0E01               	movlw	1
  4579   0048AE  6F68               	movwf	efgtoa@pp& (0+255),b
  4580   0048B0  EF6A  F024         	goto	l5804
  4581   0048B4                     l5796:
  4582                           
  4583                           ; BSR set to: 5
  4584                           ;/Applications/microchip/xc8/v2.41/pic/sources/c99/common/doprnt.c: 743:                
      +                           dbuf[n++] = '0';
  4585   0048B4  0E00               	movlw	low _dbuf
  4586   0048B6  2586               	addwf	efgtoa@n& (0+255),w,b
  4587   0048B8  6ED9               	movwf	fsr2l,c
  4588   0048BA  0E06               	movlw	high _dbuf
  4589   0048BC  2187               	addwfc	(efgtoa@n+1)& (0+255),w,b
  4590   0048BE  6EDA               	movwf	fsr2h,c
  4591   0048C0  0E30               	movlw	48
  4592   0048C2  6EDF               	movwf	indf2,c
  4593   0048C4                     
  4594                           ; BSR set to: 5
  4595   0048C4  4B86               	infsnz	efgtoa@n& (0+255),f,b
  4596   0048C6  2B87               	incf	(efgtoa@n+1)& (0+255),f,b
  4597   0048C8                     
  4598                           ; BSR set to: 5
  4599                           ;/Applications/microchip/xc8/v2.41/pic/sources/c99/common/doprnt.c: 744:                
      +                           --w;
  4600   0048C8  0771               	decf	efgtoa@w& (0+255),f,b
  4601   0048CA  A0D8               	btfss	status,0,c
  4602   0048CC  0772               	decf	(efgtoa@w+1)& (0+255),f,b
  4603   0048CE                     
  4604                           ; BSR set to: 5
  4605                           ;/Applications/microchip/xc8/v2.41/pic/sources/c99/common/doprnt.c: 745:                
      +                           --t;
  4606   0048CE  0764               	decf	efgtoa@t& (0+255),f,b
  4607   0048D0  A0D8               	btfss	status,0,c
  4608   0048D2  0765               	decf	(efgtoa@t+1)& (0+255),f,b
  4609   0048D4                     l5804:
  4610                           
  4611                           ; BSR set to: 5
  4612                           ;/Applications/microchip/xc8/v2.41/pic/sources/c99/common/doprnt.c: 742:             whi
      +                          le (t) {
  4613   0048D4  5164               	movf	efgtoa@t& (0+255),w,b
  4614   0048D6  1165               	iorwf	(efgtoa@t+1)& (0+255),w,b
  4615   0048D8  A4D8               	btfss	status,2,c
  4616   0048DA  EF71  F024         	goto	u5771
  4617   0048DE  EF73  F024         	goto	u5770
  4618   0048E2                     u5771:
  4619   0048E2  EF5A  F024         	goto	l5796
  4620   0048E6                     u5770:
  4621   0048E6                     
  4622                           ; BSR set to: 5
  4623                           ;/Applications/microchip/xc8/v2.41/pic/sources/c99/common/doprnt.c: 747:             dbu
      +                          f[n++] = (char)((int)'0' + d);
  4624   0048E6  0E00               	movlw	low _dbuf
  4625   0048E8  2586               	addwf	efgtoa@n& (0+255),w,b
  4626   0048EA  6ED9               	movwf	fsr2l,c
  4627   0048EC  0E06               	movlw	high _dbuf
  4628   0048EE  2187               	addwfc	(efgtoa@n+1)& (0+255),w,b
  4629   0048F0  6EDA               	movwf	fsr2h,c
  4630   0048F2  516B               	movf	efgtoa@d& (0+255),w,b
  4631   0048F4  0F30               	addlw	48
  4632   0048F6  6EDF               	movwf	indf2,c
  4633   0048F8                     
  4634                           ; BSR set to: 5
  4635   0048F8  4B86               	infsnz	efgtoa@n& (0+255),f,b
  4636   0048FA  2B87               	incf	(efgtoa@n+1)& (0+255),f,b
  4637   0048FC                     
  4638                           ; BSR set to: 5
  4639                           ;/Applications/microchip/xc8/v2.41/pic/sources/c99/common/doprnt.c: 748:             --w
      +                          ;
  4640   0048FC  0771               	decf	efgtoa@w& (0+255),f,b
  4641   0048FE  A0D8               	btfss	status,0,c
  4642   004900  0772               	decf	(efgtoa@w+1)& (0+255),f,b
  4643   004902                     
  4644                           ; BSR set to: 5
  4645                           ;/Applications/microchip/xc8/v2.41/pic/sources/c99/common/doprnt.c: 749:         };/Appl
      +                          ications/microchip/xc8/v2.41/pic/sources/c99/common/doprnt.c: 750:         h -= l*u.f;
  4646   004902  C579  F52C         	movff	efgtoa@h,___flsub@b
  4647   004906  C57A  F52D         	movff	efgtoa@h+1,___flsub@b+1
  4648   00490A  C57B  F52E         	movff	efgtoa@h+2,___flsub@b+2
  4649   00490E  C57C  F52F         	movff	efgtoa@h+3,___flsub@b+3
  4650   004912  C57D  F507         	movff	efgtoa@l,___flmul@a
  4651   004916  C57E  F508         	movff	efgtoa@l+1,___flmul@a+1
  4652   00491A  C57F  F509         	movff	efgtoa@l+2,___flmul@a+2
  4653   00491E  C580  F50A         	movff	efgtoa@l+3,___flmul@a+3
  4654   004922  C588  F503         	movff	efgtoa@u,___flmul@b
  4655   004926  C589  F504         	movff	efgtoa@u+1,___flmul@b+1
  4656   00492A  C58A  F505         	movff	efgtoa@u+2,___flmul@b+2
  4657   00492E  C58B  F506         	movff	efgtoa@u+3,___flmul@b+3
  4658   004932  ECA8  F027         	call	___flmul	;wreg free
  4659   004936  C503  F530         	movff	?___flmul,___flsub@a
  4660   00493A  C504  F531         	movff	?___flmul+1,___flsub@a+1
  4661   00493E  C505  F532         	movff	?___flmul+2,___flsub@a+2
  4662   004942  C506  F533         	movff	?___flmul+3,___flsub@a+3
  4663   004946  EC96  F035         	call	___flsub	;wreg free
  4664   00494A  C52C  F579         	movff	?___flsub,efgtoa@h
  4665   00494E  C52D  F57A         	movff	?___flsub+1,efgtoa@h+1
  4666   004952  C52E  F57B         	movff	?___flsub+2,efgtoa@h+2
  4667   004956  C52F  F57C         	movff	?___flsub+3,efgtoa@h+3
  4668   00495A                     
  4669                           ;/Applications/microchip/xc8/v2.41/pic/sources/c99/common/doprnt.c: 751:         u.f = u
      +                          .f/10.0;
  4670   00495A  C588  F503         	movff	efgtoa@u,___fldiv@b
  4671   00495E  C589  F504         	movff	efgtoa@u+1,___fldiv@b+1
  4672   004962  C58A  F505         	movff	efgtoa@u+2,___fldiv@b+2
  4673   004966  C58B  F506         	movff	efgtoa@u+3,___fldiv@b+3
  4674   00496A  0E00               	movlw	0
  4675   00496C  6E07               	movwf	___fldiv@a^(0+1280),c
  4676   00496E  0E00               	movlw	0
  4677   004970  6E08               	movwf	(___fldiv@a+1)^(0+1280),c
  4678   004972  0E20               	movlw	32
  4679   004974  6E09               	movwf	(___fldiv@a+2)^(0+1280),c
  4680   004976  0E41               	movlw	65
  4681   004978  6E0A               	movwf	(___fldiv@a+3)^(0+1280),c
  4682   00497A  ECBD  F029         	call	___fldiv	;wreg free
  4683   00497E  C503  F588         	movff	?___fldiv,efgtoa@u
  4684   004982  C504  F589         	movff	?___fldiv+1,efgtoa@u+1
  4685   004986  C505  F58A         	movff	?___fldiv+2,efgtoa@u+2
  4686   00498A  C506  F58B         	movff	?___fldiv+3,efgtoa@u+3
  4687   00498E                     
  4688                           ;/Applications/microchip/xc8/v2.41/pic/sources/c99/common/doprnt.c: 752:         --ne;
  4689   00498E  0105               	movlb	5	; () banked
  4690   004990  0760               	decf	efgtoa@ne& (0+255),f,b
  4691   004992  A0D8               	btfss	status,0,c
  4692   004994  0761               	decf	(efgtoa@ne+1)& (0+255),f,b
  4693   004996                     
  4694                           ; BSR set to: 5
  4695                           ;/Applications/microchip/xc8/v2.41/pic/sources/c99/common/doprnt.c: 753:         ++i;
  4696   004996  4B77               	infsnz	efgtoa@i& (0+255),f,b
  4697   004998  2B78               	incf	(efgtoa@i+1)& (0+255),f,b
  4698   00499A                     l5820:
  4699                           
  4700                           ; BSR set to: 5
  4701                           ;/Applications/microchip/xc8/v2.41/pic/sources/c99/common/doprnt.c: 723:     while ((i <
      +                           m) && (n < (80 - 5))) {
  4702   00499A  516D               	movf	efgtoa@m& (0+255),w,b
  4703   00499C  5D77               	subwf	efgtoa@i& (0+255),w,b
  4704   00499E  5178               	movf	(efgtoa@i+1)& (0+255),w,b
  4705   0049A0  0A80               	xorlw	128
  4706   0049A2  6E3B               	movwf	??_efgtoa^(0+1280),c
  4707   0049A4  516E               	movf	(efgtoa@m+1)& (0+255),w,b
  4708   0049A6  0A80               	xorlw	128
  4709   0049A8  583B               	subwfb	??_efgtoa^(0+1280),w,c
  4710   0049AA  B0D8               	btfsc	status,0,c
  4711   0049AC  EFDA  F024         	goto	u5781
  4712   0049B0  EFDC  F024         	goto	u5780
  4713   0049B4                     u5781:
  4714   0049B4  EFEA  F024         	goto	l5824
  4715   0049B8                     u5780:
  4716   0049B8                     
  4717                           ; BSR set to: 5
  4718   0049B8  BF87               	btfsc	(efgtoa@n+1)& (0+255),7,b
  4719   0049BA  EFE8  F024         	goto	u5791
  4720   0049BE  5187               	movf	(efgtoa@n+1)& (0+255),w,b
  4721   0049C0  E109               	bnz	u5790
  4722   0049C2  0E4B               	movlw	75
  4723   0049C4  5D86               	subwf	efgtoa@n& (0+255),w,b
  4724   0049C6  A0D8               	btfss	status,0,c
  4725   0049C8  EFE8  F024         	goto	u5791
  4726   0049CC  EFEA  F024         	goto	u5790
  4727   0049D0                     u5791:
  4728   0049D0  EFE8  F023         	goto	l5780
  4729   0049D4                     u5790:
  4730   0049D4                     l5824:
  4731                           
  4732                           ; BSR set to: 5
  4733                           ;/Applications/microchip/xc8/v2.41/pic/sources/c99/common/doprnt.c: 760:  i = sizeof(dbu
      +                          f) - 1;
  4734   0049D4  0E00               	movlw	0
  4735   0049D6  6F78               	movwf	(efgtoa@i+1)& (0+255),b
  4736   0049D8  0E4F               	movlw	79
  4737   0049DA  6F77               	movwf	efgtoa@i& (0+255),b
  4738   0049DC                     
  4739                           ; BSR set to: 5
  4740                           ;/Applications/microchip/xc8/v2.41/pic/sources/c99/common/doprnt.c: 761:     dbuf[i] = '
      +                          \0';
  4741   0049DC  0E00               	movlw	low _dbuf
  4742   0049DE  2577               	addwf	efgtoa@i& (0+255),w,b
  4743   0049E0  6ED9               	movwf	fsr2l,c
  4744   0049E2  0E06               	movlw	high _dbuf
  4745   0049E4  2178               	addwfc	(efgtoa@i+1)& (0+255),w,b
  4746   0049E6  6EDA               	movwf	fsr2h,c
  4747   0049E8  6ADF               	clrf	indf2,c
  4748   0049EA                     
  4749                           ; BSR set to: 5
  4750                           ;/Applications/microchip/xc8/v2.41/pic/sources/c99/common/doprnt.c: 792:  memcpy(&dbuf[i
      +                          -n], &dbuf[0], (size_t)n);
  4751   0049EA  0E00               	movlw	low _dbuf
  4752   0049EC  6E3B               	movwf	??_efgtoa^(0+1280),c
  4753   0049EE  0E06               	movlw	high _dbuf
  4754   0049F0  6E3C               	movwf	(??_efgtoa+1)^(0+1280),c
  4755   0049F2  5186               	movf	efgtoa@n& (0+255),w,b
  4756   0049F4  5E3B               	subwf	??_efgtoa^(0+1280),f,c
  4757   0049F6  5187               	movf	(efgtoa@n+1)& (0+255),w,b
  4758   0049F8  5A3C               	subwfb	(??_efgtoa+1)^(0+1280),f,c
  4759   0049FA  5177               	movf	efgtoa@i& (0+255),w,b
  4760   0049FC  243B               	addwf	??_efgtoa^(0+1280),w,c
  4761   0049FE  6E03               	movwf	memcpy@d1^(0+1280),c
  4762   004A00  5178               	movf	(efgtoa@i+1)& (0+255),w,b
  4763   004A02  203C               	addwfc	(??_efgtoa+1)^(0+1280),w,c
  4764   004A04  6E04               	movwf	(memcpy@d1+1)^(0+1280),c
  4765   004A06  0E00               	movlw	low _dbuf
  4766   004A08  6E05               	movwf	memcpy@s1^(0+1280),c
  4767   004A0A  0E06               	movlw	high _dbuf
  4768   004A0C  6E06               	movwf	(memcpy@s1+1)^(0+1280),c
  4769   004A0E  C586  F507         	movff	efgtoa@n,memcpy@n
  4770   004A12  C587  F508         	movff	efgtoa@n+1,memcpy@n+1
  4771   004A16  EC6E  F035         	call	_memcpy	;wreg free
  4772   004A1A                     
  4773                           ;/Applications/microchip/xc8/v2.41/pic/sources/c99/common/doprnt.c: 793:  n = i-n;
  4774   004A1A  0105               	movlb	5	; () banked
  4775   004A1C  5186               	movf	efgtoa@n& (0+255),w,b
  4776   004A1E  5D77               	subwf	efgtoa@i& (0+255),w,b
  4777   004A20  6F86               	movwf	efgtoa@n& (0+255),b
  4778   004A22  5187               	movf	(efgtoa@n+1)& (0+255),w,b
  4779   004A24  5978               	subwfb	(efgtoa@i+1)& (0+255),w,b
  4780   004A26  6F87               	movwf	(efgtoa@n+1)& (0+255),b
  4781   004A28                     
  4782                           ; BSR set to: 5
  4783                           ;/Applications/microchip/xc8/v2.41/pic/sources/c99/common/doprnt.c: 794:  i = sign == 0 
      +                          ? 0 : 1;
  4784   004A28  5181               	movf	efgtoa@sign& (0+255),w,b
  4785   004A2A  A4D8               	btfss	status,2,c
  4786   004A2C  EF1A  F025         	goto	u5801
  4787   004A30  EF1D  F025         	goto	u5800
  4788   004A34                     u5801:
  4789   004A34  0E01               	movlw	1
  4790   004A36  EF1E  F025         	goto	u5810
  4791   004A3A                     u5800:
  4792   004A3A  0E00               	movlw	0
  4793   004A3C                     u5810:
  4794   004A3C  6F77               	movwf	efgtoa@i& (0+255),b
  4795   004A3E  6B78               	clrf	(efgtoa@i+1)& (0+255),b
  4796   004A40                     
  4797                           ; BSR set to: 5
  4798                           ;/Applications/microchip/xc8/v2.41/pic/sources/c99/common/doprnt.c: 805:  if (sign) {
  4799   004A40  5181               	movf	efgtoa@sign& (0+255),w,b
  4800   004A42  B4D8               	btfsc	status,2,c
  4801   004A44  EF26  F025         	goto	u5821
  4802   004A48  EF28  F025         	goto	u5820
  4803   004A4C                     u5821:
  4804   004A4C  EF33  F025         	goto	l5838
  4805   004A50                     u5820:
  4806   004A50                     
  4807                           ; BSR set to: 5
  4808                           ;/Applications/microchip/xc8/v2.41/pic/sources/c99/common/doprnt.c: 806:   dbuf[--n] = s
      +                          ign;
  4809   004A50  0786               	decf	efgtoa@n& (0+255),f,b
  4810   004A52  A0D8               	btfss	status,0,c
  4811   004A54  0787               	decf	(efgtoa@n+1)& (0+255),f,b
  4812   004A56  0E00               	movlw	low _dbuf
  4813   004A58  2586               	addwf	efgtoa@n& (0+255),w,b
  4814   004A5A  6ED9               	movwf	fsr2l,c
  4815   004A5C  0E06               	movlw	high _dbuf
  4816   004A5E  2187               	addwfc	(efgtoa@n+1)& (0+255),w,b
  4817   004A60  6EDA               	movwf	fsr2h,c
  4818   004A62  C581  F4DF         	movff	efgtoa@sign,indf2
  4819   004A66                     l5838:
  4820                           
  4821                           ; BSR set to: 5
  4822                           ;/Applications/microchip/xc8/v2.41/pic/sources/c99/common/doprnt.c: 808:  w -= i;
  4823   004A66  5177               	movf	efgtoa@i& (0+255),w,b
  4824   004A68  5F71               	subwf	efgtoa@w& (0+255),f,b
  4825   004A6A  5178               	movf	(efgtoa@i+1)& (0+255),w,b
  4826   004A6C  5B72               	subwfb	(efgtoa@w+1)& (0+255),f,b
  4827   004A6E                     
  4828                           ; BSR set to: 5
  4829                           ;/Applications/microchip/xc8/v2.41/pic/sources/c99/common/doprnt.c: 811:     return (voi
      +                          d) pad(fp, &dbuf[n], w);
  4830   004A6E  C534  F515         	movff	efgtoa@fp,pad@fp
  4831   004A72  C535  F516         	movff	efgtoa@fp+1,pad@fp+1
  4832   004A76  0E00               	movlw	low _dbuf
  4833   004A78  2586               	addwf	efgtoa@n& (0+255),w,b
  4834   004A7A  6E17               	movwf	pad@buf^(0+1280),c
  4835   004A7C  0E06               	movlw	high _dbuf
  4836   004A7E  2187               	addwfc	(efgtoa@n+1)& (0+255),w,b
  4837   004A80  6E18               	movwf	(pad@buf+1)^(0+1280),c
  4838   004A82  C571  F519         	movff	efgtoa@w,pad@p
  4839   004A86  C572  F51A         	movff	efgtoa@w+1,pad@p+1
  4840   004A8A  EC48  F034         	call	_pad	;wreg free
  4841   004A8E                     l1455:
  4842   004A8E  0012               	return		;funcret
  4843   004A90                     __end_of_efgtoa:
  4844                           	callstack 0
  4845                           
  4846 ;; *************** function _strcpy *****************
  4847 ;; Defined at:
  4848 ;;		line 3 in file "/Applications/microchip/xc8/v2.41/pic/sources/c99/common/strcpy.c"
  4849 ;; Parameters:    Size  Location     Type
  4850 ;;  dest            2    2[COMRAM] PTR unsigned char 
  4851 ;;		 -> dbuf(80), 
  4852 ;;  src             2    4[COMRAM] PTR const unsigned char 
  4853 ;;		 -> STR_8(4), STR_5(4), 
  4854 ;; Auto vars:     Size  Location     Type
  4855 ;;  d               2    8[COMRAM] PTR unsigned char 
  4856 ;;		 -> dbuf(80), 
  4857 ;;  s               2    6[COMRAM] PTR const unsigned char 
  4858 ;;		 -> STR_8(4), STR_5(4), 
  4859 ;; Return value:  Size  Location     Type
  4860 ;;                  2    2[COMRAM] PTR unsigned char 
  4861 ;; Registers used:
  4862 ;;		wreg, fsr2l, fsr2h, status,2, status,0, tblptrl, tblptrh, tblptru
  4863 ;; Tracked objects:
  4864 ;;		On entry : 0/0
  4865 ;;		On exit  : 0/0
  4866 ;;		Unchanged: 0/0
  4867 ;; Data sizes:     COMRAM   BANK5   BANK6   BANK7   BANK8   BANK9  BANK10  BANK11  BANK12  BANK13  BANK14  BANK15  BANK1
      +6  BANK17  BANK18  BANK19  BANK20  BANK21  BANK22  BANK23  BANK24  BANK25  BANK26  BANK27  BANK28  BANK29  BANK30  BANK3
      +1  BANK32  BANK33  BANK34  BANK35  BANK36  BANK37  BANK38  BANK39  BANK40  BANK41  BANK42  BANK43  BANK44  BANK45  BANK4
      +6  BANK47  BANK48  BANK49  BANK50  BANK51  BANK52  BANK53  BANK54
  4868 ;;      Params:         4       0       0       0       0       0       0       0       0       0       0       0       
      +0       0       0       0       0       0       0       0       0       0       0       0       0       0       0       
      +0       0       0       0       0       0       0       0       0       0       0       0       0       0       0       
      +0       0       0       0       0       0       0       0       0
  4869 ;;      Locals:         4       0       0       0       0       0       0       0       0       0       0       0       
      +0       0       0       0       0       0       0       0       0       0       0       0       0       0       0       
      +0       0       0       0       0       0       0       0       0       0       0       0       0       0       0       
      +0       0       0       0       0       0       0       0       0
  4870 ;;      Temps:          0       0       0       0       0       0       0       0       0       0       0       0       
      +0       0       0       0       0       0       0       0       0       0       0       0       0       0       0       
      +0       0       0       0       0       0       0       0       0       0       0       0       0       0       0       
      +0       0       0       0       0       0       0       0       0
  4871 ;;      Totals:         8       0       0       0       0       0       0       0       0       0       0       0       
      +0       0       0       0       0       0       0       0       0       0       0       0       0       0       0       
      +0       0       0       0       0       0       0       0       0       0       0       0       0       0       0       
      +0       0       0       0       0       0       0       0       0
  4872 ;;Total ram usage:        8 bytes
  4873 ;; Hardware stack levels used: 1
  4874 ;; Hardware stack levels required when called: 4
  4875 ;; This function calls:
  4876 ;;		Nothing
  4877 ;; This function is called by:
  4878 ;;		_efgtoa
  4879 ;; This function uses a non-reentrant model
  4880 ;;
  4881                           
  4882                           	psect	text25
  4883   006B72                     __ptext25:
  4884                           	callstack 0
  4885   006B72                     _strcpy:
  4886                           	callstack 117
  4887   006B72  C505  F507         	movff	strcpy@src,strcpy@s
  4888   006B76  C506  F508         	movff	strcpy@src+1,strcpy@s+1
  4889   006B7A  C503  F509         	movff	strcpy@dest,strcpy@d
  4890   006B7E  C504  F50A         	movff	strcpy@dest+1,strcpy@d+1
  4891   006B82                     l5576:
  4892   006B82  C507  F4F6         	movff	strcpy@s,tblptrl
  4893   006B86  C508  F4F7         	movff	strcpy@s+1,tblptrh
  4894   006B8A  4A07               	infsnz	strcpy@s^(0+1280),f,c
  4895   006B8C  2A08               	incf	(strcpy@s+1)^(0+1280),f,c
  4896   006B8E                     	if	0	;tblptru may be non-zero
  4897   006B8E                     	endif
  4898   006B8E                     	if	1	;Program memory is > 0xFFFF, there are 3 active tblptr bytes
  4899   006B8E  0E00               	movlw	low (__mediumconst shr (0+16))
  4900   006B90  6EF8               	movwf	tblptru,c
  4901   006B92                     	endif
  4902   006B92  C509  F4D9         	movff	strcpy@d,fsr2l
  4903   006B96  C50A  F4DA         	movff	strcpy@d+1,fsr2h
  4904   006B9A  4A09               	infsnz	strcpy@d^(0+1280),f,c
  4905   006B9C  2A0A               	incf	(strcpy@d+1)^(0+1280),f,c
  4906   006B9E  0008               	tblrd		*
  4907   006BA0  C4F5 F4DF          	movff	tablat,indf2
  4908   006BA4  50DF               	movf	indf2,w,c
  4909   006BA6  A4D8               	btfss	status,2,c
  4910   006BA8  EFD8  F035         	goto	u5381
  4911   006BAC  EFDA  F035         	goto	u5380
  4912   006BB0                     u5381:
  4913   006BB0  EFC1  F035         	goto	l5576
  4914   006BB4                     u5380:
  4915   006BB4  0012               	return		;funcret
  4916   006BB6                     __end_of_strcpy:
  4917                           	callstack 0
  4918                           
  4919 ;; *************** function _pad *****************
  4920 ;; Defined at:
  4921 ;;		line 152 in file "/Applications/microchip/xc8/v2.41/pic/sources/c99/common/doprnt.c"
  4922 ;; Parameters:    Size  Location     Type
  4923 ;;  fp              2   20[COMRAM] PTR struct _IO_FILE
  4924 ;;		 -> NULL(0), 
  4925 ;;  buf             2   22[COMRAM] PTR unsigned char 
  4926 ;;		 -> dbuf(80), 
  4927 ;;  p               2   24[COMRAM] int 
  4928 ;; Auto vars:     Size  Location     Type
  4929 ;;  w               2   29[COMRAM] int 
  4930 ;;  i               2   27[COMRAM] int 
  4931 ;; Return value:  Size  Location     Type
  4932 ;;                  1    wreg      void 
  4933 ;; Registers used:
  4934 ;;		wreg, fsr1l, fsr1h, fsr2l, fsr2h, status,2, status,0, cstack
  4935 ;; Tracked objects:
  4936 ;;		On entry : 0/0
  4937 ;;		On exit  : 0/0
  4938 ;;		Unchanged: 0/0
  4939 ;; Data sizes:     COMRAM   BANK5   BANK6   BANK7   BANK8   BANK9  BANK10  BANK11  BANK12  BANK13  BANK14  BANK15  BANK1
      +6  BANK17  BANK18  BANK19  BANK20  BANK21  BANK22  BANK23  BANK24  BANK25  BANK26  BANK27  BANK28  BANK29  BANK30  BANK3
      +1  BANK32  BANK33  BANK34  BANK35  BANK36  BANK37  BANK38  BANK39  BANK40  BANK41  BANK42  BANK43  BANK44  BANK45  BANK4
      +6  BANK47  BANK48  BANK49  BANK50  BANK51  BANK52  BANK53  BANK54
  4940 ;;      Params:         6       0       0       0       0       0       0       0       0       0       0       0       
      +0       0       0       0       0       0       0       0       0       0       0       0       0       0       0       
      +0       0       0       0       0       0       0       0       0       0       0       0       0       0       0       
      +0       0       0       0       0       0       0       0       0
  4941 ;;      Locals:         4       0       0       0       0       0       0       0       0       0       0       0       
      +0       0       0       0       0       0       0       0       0       0       0       0       0       0       0       
      +0       0       0       0       0       0       0       0       0       0       0       0       0       0       0       
      +0       0       0       0       0       0       0       0       0
  4942 ;;      Temps:          1       0       0       0       0       0       0       0       0       0       0       0       
      +0       0       0       0       0       0       0       0       0       0       0       0       0       0       0       
      +0       0       0       0       0       0       0       0       0       0       0       0       0       0       0       
      +0       0       0       0       0       0       0       0       0
  4943 ;;      Totals:        11       0       0       0       0       0       0       0       0       0       0       0       
      +0       0       0       0       0       0       0       0       0       0       0       0       0       0       0       
      +0       0       0       0       0       0       0       0       0       0       0       0       0       0       0       
      +0       0       0       0       0       0       0       0       0
  4944 ;;Total ram usage:       11 bytes
  4945 ;; Hardware stack levels used: 1
  4946 ;; Hardware stack levels required when called: 8
  4947 ;; This function calls:
  4948 ;;		_fputc
  4949 ;;		_fputs
  4950 ;; This function is called by:
  4951 ;;		_efgtoa
  4952 ;; This function uses a non-reentrant model
  4953 ;;
  4954                           
  4955                           	psect	text26
  4956   006890                     __ptext26:
  4957                           	callstack 0
  4958   006890                     _pad:
  4959                           	callstack 113
  4960   006890                     
  4961                           ;/Applications/microchip/xc8/v2.41/pic/sources/c99/common/doprnt.c: 152: static void pad
      +                          (FILE *fp, char *buf, int p);/Applications/microchip/xc8/v2.41/pic/sources/c99/common/do
      +                          prnt.c: 153: {;/Applications/microchip/xc8/v2.41/pic/sources/c99/common/doprnt.c: 154:  
      +                             int i, w;;/Applications/microchip/xc8/v2.41/pic/sources/c99/common/doprnt.c: 164:    
      +                           w = (p < 0) ? 0 : p;
  4962   006890  BE1A               	btfsc	(pad@p+1)^(0+1280),7,c
  4963   006892  EF4D  F034         	goto	u5291
  4964   006896  EF4F  F034         	goto	u5290
  4965   00689A                     u5291:
  4966   00689A  EF55  F034         	goto	l5542
  4967   00689E                     u5290:
  4968   00689E  C519  F51E         	movff	pad@p,pad@w
  4969   0068A2  C51A  F51F         	movff	pad@p+1,pad@w+1
  4970   0068A6  EF59  F034         	goto	l1440
  4971   0068AA                     l5542:
  4972   0068AA  0E00               	movlw	0
  4973   0068AC  6E1F               	movwf	(pad@w+1)^(0+1280),c
  4974   0068AE  0E00               	movlw	0
  4975   0068B0  6E1E               	movwf	pad@w^(0+1280),c
  4976   0068B2                     l1440:
  4977                           
  4978                           ;/Applications/microchip/xc8/v2.41/pic/sources/c99/common/doprnt.c: 165:     i = 0;
  4979   0068B2  0E00               	movlw	0
  4980   0068B4  6E1D               	movwf	(pad@i+1)^(0+1280),c
  4981   0068B6  0E00               	movlw	0
  4982   0068B8  6E1C               	movwf	pad@i^(0+1280),c
  4983                           
  4984                           ;/Applications/microchip/xc8/v2.41/pic/sources/c99/common/doprnt.c: 166:     while (i < 
      +                          w) {
  4985   0068BA  EF6B  F034         	goto	l5548
  4986   0068BE                     l5544:
  4987                           
  4988                           ;/Applications/microchip/xc8/v2.41/pic/sources/c99/common/doprnt.c: 167:         fputc('
      +                           ', fp);
  4989   0068BE  0E00               	movlw	0
  4990   0068C0  6E06               	movwf	(fputc@c+1)^(0+1280),c
  4991   0068C2  0E20               	movlw	32
  4992   0068C4  6E05               	movwf	fputc@c^(0+1280),c
  4993   0068C6  C515  F507         	movff	pad@fp,fputc@fp
  4994   0068CA  C516  F508         	movff	pad@fp+1,fputc@fp+1
  4995   0068CE  ECE8  F031         	call	_fputc	;wreg free
  4996   0068D2                     
  4997                           ;/Applications/microchip/xc8/v2.41/pic/sources/c99/common/doprnt.c: 168:         ++i;
  4998   0068D2  4A1C               	infsnz	pad@i^(0+1280),f,c
  4999   0068D4  2A1D               	incf	(pad@i+1)^(0+1280),f,c
  5000   0068D6                     l5548:
  5001                           
  5002                           ;/Applications/microchip/xc8/v2.41/pic/sources/c99/common/doprnt.c: 166:     while (i < 
      +                          w) {
  5003   0068D6  501E               	movf	pad@w^(0+1280),w,c
  5004   0068D8  5C1C               	subwf	pad@i^(0+1280),w,c
  5005   0068DA  501D               	movf	(pad@i+1)^(0+1280),w,c
  5006   0068DC  0A80               	xorlw	128
  5007   0068DE  6E1B               	movwf	??_pad^(0+1280),c
  5008   0068E0  501F               	movf	(pad@w+1)^(0+1280),w,c
  5009   0068E2  0A80               	xorlw	128
  5010   0068E4  581B               	subwfb	??_pad^(0+1280),w,c
  5011   0068E6  A0D8               	btfss	status,0,c
  5012   0068E8  EF78  F034         	goto	u5301
  5013   0068EC  EF7A  F034         	goto	u5300
  5014   0068F0                     u5301:
  5015   0068F0  EF5F  F034         	goto	l5544
  5016   0068F4                     u5300:
  5017   0068F4                     
  5018                           ;/Applications/microchip/xc8/v2.41/pic/sources/c99/common/doprnt.c: 175:         fputs((
      +                          const char *)buf, fp);
  5019   0068F4  C517  F50E         	movff	pad@buf,fputs@s
  5020   0068F8  C518  F50F         	movff	pad@buf+1,fputs@s+1
  5021   0068FC  C515  F510         	movff	pad@fp,fputs@fp
  5022   006900  C516  F511         	movff	pad@fp+1,fputs@fp+1
  5023   006904  ECDB  F035         	call	_fputs	;wreg free
  5024   006908  0012               	return		;funcret
  5025   00690A                     __end_of_pad:
  5026                           	callstack 0
  5027                           
  5028 ;; *************** function _fputs *****************
  5029 ;; Defined at:
  5030 ;;		line 8 in file "/Applications/microchip/xc8/v2.41/pic/sources/c99/common/nf_fputs.c"
  5031 ;; Parameters:    Size  Location     Type
  5032 ;;  s               2   13[COMRAM] PTR const unsigned char 
  5033 ;;		 -> dbuf(80), 
  5034 ;;  fp              2   15[COMRAM] PTR struct _IO_FILE
  5035 ;;		 -> NULL(0), 
  5036 ;; Auto vars:     Size  Location     Type
  5037 ;;  i               2   18[COMRAM] int 
  5038 ;;  c               1   17[COMRAM] unsigned char 
  5039 ;; Return value:  Size  Location     Type
  5040 ;;                  2   13[COMRAM] int 
  5041 ;; Registers used:
  5042 ;;		wreg, fsr1l, fsr1h, fsr2l, fsr2h, status,2, status,0, cstack
  5043 ;; Tracked objects:
  5044 ;;		On entry : 0/0
  5045 ;;		On exit  : 0/0
  5046 ;;		Unchanged: 0/0
  5047 ;; Data sizes:     COMRAM   BANK5   BANK6   BANK7   BANK8   BANK9  BANK10  BANK11  BANK12  BANK13  BANK14  BANK15  BANK1
      +6  BANK17  BANK18  BANK19  BANK20  BANK21  BANK22  BANK23  BANK24  BANK25  BANK26  BANK27  BANK28  BANK29  BANK30  BANK3
      +1  BANK32  BANK33  BANK34  BANK35  BANK36  BANK37  BANK38  BANK39  BANK40  BANK41  BANK42  BANK43  BANK44  BANK45  BANK4
      +6  BANK47  BANK48  BANK49  BANK50  BANK51  BANK52  BANK53  BANK54
  5048 ;;      Params:         4       0       0       0       0       0       0       0       0       0       0       0       
      +0       0       0       0       0       0       0       0       0       0       0       0       0       0       0       
      +0       0       0       0       0       0       0       0       0       0       0       0       0       0       0       
      +0       0       0       0       0       0       0       0       0
  5049 ;;      Locals:         3       0       0       0       0       0       0       0       0       0       0       0       
      +0       0       0       0       0       0       0       0       0       0       0       0       0       0       0       
      +0       0       0       0       0       0       0       0       0       0       0       0       0       0       0       
      +0       0       0       0       0       0       0       0       0
  5050 ;;      Temps:          0       0       0       0       0       0       0       0       0       0       0       0       
      +0       0       0       0       0       0       0       0       0       0       0       0       0       0       0       
      +0       0       0       0       0       0       0       0       0       0       0       0       0       0       0       
      +0       0       0       0       0       0       0       0       0
  5051 ;;      Totals:         7       0       0       0       0       0       0       0       0       0       0       0       
      +0       0       0       0       0       0       0       0       0       0       0       0       0       0       0       
      +0       0       0       0       0       0       0       0       0       0       0       0       0       0       0       
      +0       0       0       0       0       0       0       0       0
  5052 ;;Total ram usage:        7 bytes
  5053 ;; Hardware stack levels used: 1
  5054 ;; Hardware stack levels required when called: 7
  5055 ;; This function calls:
  5056 ;;		_fputc
  5057 ;; This function is called by:
  5058 ;;		_pad
  5059 ;; This function uses a non-reentrant model
  5060 ;;
  5061                           
  5062                           	psect	text27
  5063   006BB6                     __ptext27:
  5064                           	callstack 0
  5065   006BB6                     _fputs:
  5066                           	callstack 113
  5067   006BB6  0E00               	movlw	0
  5068   006BB8  6E14               	movwf	(fputs@i+1)^(0+1280),c
  5069   006BBA  0E00               	movlw	0
  5070   006BBC  6E13               	movwf	fputs@i^(0+1280),c
  5071   006BBE  EFEC  F035         	goto	l5166
  5072   006BC2                     l5162:
  5073   006BC2  C512  F505         	movff	fputs@c,fputc@c
  5074   006BC6  6A06               	clrf	(fputc@c+1)^(0+1280),c
  5075   006BC8  C510  F507         	movff	fputs@fp,fputc@fp
  5076   006BCC  C511  F508         	movff	fputs@fp+1,fputc@fp+1
  5077   006BD0  ECE8  F031         	call	_fputc	;wreg free
  5078   006BD4  4A13               	infsnz	fputs@i^(0+1280),f,c
  5079   006BD6  2A14               	incf	(fputs@i+1)^(0+1280),f,c
  5080   006BD8                     l5166:
  5081   006BD8  5013               	movf	fputs@i^(0+1280),w,c
  5082   006BDA  240E               	addwf	fputs@s^(0+1280),w,c
  5083   006BDC  6ED9               	movwf	fsr2l,c
  5084   006BDE  5014               	movf	(fputs@i+1)^(0+1280),w,c
  5085   006BE0  200F               	addwfc	(fputs@s+1)^(0+1280),w,c
  5086   006BE2  6EDA               	movwf	fsr2h,c
  5087   006BE4  50DF               	movf	indf2,w,c
  5088   006BE6  6E12               	movwf	fputs@c^(0+1280),c
  5089   006BE8  5012               	movf	fputs@c^(0+1280),w,c
  5090   006BEA  A4D8               	btfss	status,2,c
  5091   006BEC  EFFA  F035         	goto	u4701
  5092   006BF0  EFFC  F035         	goto	u4700
  5093   006BF4                     u4701:
  5094   006BF4  EFE1  F035         	goto	l5162
  5095   006BF8                     u4700:
  5096   006BF8  0012               	return		;funcret
  5097   006BFA                     __end_of_fputs:
  5098                           	callstack 0
  5099                           
  5100 ;; *************** function _fputc *****************
  5101 ;; Defined at:
  5102 ;;		line 8 in file "/Applications/microchip/xc8/v2.41/pic/sources/c99/common/nf_fputc.c"
  5103 ;; Parameters:    Size  Location     Type
  5104 ;;  c               2    4[COMRAM] int 
  5105 ;;  fp              2    6[COMRAM] PTR struct _IO_FILE
  5106 ;;		 -> NULL(0), 
  5107 ;; Auto vars:     Size  Location     Type
  5108 ;;		None
  5109 ;; Return value:  Size  Location     Type
  5110 ;;                  2    4[COMRAM] int 
  5111 ;; Registers used:
  5112 ;;		wreg, fsr1l, fsr1h, fsr2l, fsr2h, status,2, status,0, cstack
  5113 ;; Tracked objects:
  5114 ;;		On entry : 0/0
  5115 ;;		On exit  : 0/0
  5116 ;;		Unchanged: 0/0
  5117 ;; Data sizes:     COMRAM   BANK5   BANK6   BANK7   BANK8   BANK9  BANK10  BANK11  BANK12  BANK13  BANK14  BANK15  BANK1
      +6  BANK17  BANK18  BANK19  BANK20  BANK21  BANK22  BANK23  BANK24  BANK25  BANK26  BANK27  BANK28  BANK29  BANK30  BANK3
      +1  BANK32  BANK33  BANK34  BANK35  BANK36  BANK37  BANK38  BANK39  BANK40  BANK41  BANK42  BANK43  BANK44  BANK45  BANK4
      +6  BANK47  BANK48  BANK49  BANK50  BANK51  BANK52  BANK53  BANK54
  5118 ;;      Params:         4       0       0       0       0       0       0       0       0       0       0       0       
      +0       0       0       0       0       0       0       0       0       0       0       0       0       0       0       
      +0       0       0       0       0       0       0       0       0       0       0       0       0       0       0       
      +0       0       0       0       0       0       0       0       0
  5119 ;;      Locals:         0       0       0       0       0       0       0       0       0       0       0       0       
      +0       0       0       0       0       0       0       0       0       0       0       0       0       0       0       
      +0       0       0       0       0       0       0       0       0       0       0       0       0       0       0       
      +0       0       0       0       0       0       0       0       0
  5120 ;;      Temps:          5       0       0       0       0       0       0       0       0       0       0       0       
      +0       0       0       0       0       0       0       0       0       0       0       0       0       0       0       
      +0       0       0       0       0       0       0       0       0       0       0       0       0       0       0       
      +0       0       0       0       0       0       0       0       0
  5121 ;;      Totals:         9       0       0       0       0       0       0       0       0       0       0       0       
      +0       0       0       0       0       0       0       0       0       0       0       0       0       0       0       
      +0       0       0       0       0       0       0       0       0       0       0       0       0       0       0       
      +0       0       0       0       0       0       0       0       0
  5122 ;;Total ram usage:        9 bytes
  5123 ;; Hardware stack levels used: 1
  5124 ;; Hardware stack levels required when called: 6
  5125 ;; This function calls:
  5126 ;;		_putch
  5127 ;; This function is called by:
  5128 ;;		_pad
  5129 ;;		_vfpfcnvrt
  5130 ;;		_fputs
  5131 ;; This function uses a non-reentrant model
  5132 ;;
  5133                           
  5134                           	psect	text28
  5135   0063D0                     __ptext28:
  5136                           	callstack 0
  5137   0063D0                     _fputc:
  5138                           	callstack 116
  5139   0063D0  5007               	movf	fputc@fp^(0+1280),w,c
  5140   0063D2  1008               	iorwf	(fputc@fp+1)^(0+1280),w,c
  5141   0063D4  B4D8               	btfsc	status,2,c
  5142   0063D6  EFEF  F031         	goto	u4271
  5143   0063DA  EFF1  F031         	goto	u4270
  5144   0063DE                     u4271:
  5145   0063DE  EFFA  F031         	goto	l4948
  5146   0063E2                     u4270:
  5147   0063E2  5007               	movf	fputc@fp^(0+1280),w,c
  5148   0063E4  1008               	iorwf	(fputc@fp+1)^(0+1280),w,c
  5149   0063E6  A4D8               	btfss	status,2,c
  5150   0063E8  EFF8  F031         	goto	u4281
  5151   0063EC  EFFA  F031         	goto	u4280
  5152   0063F0                     u4281:
  5153   0063F0  EFFF  F031         	goto	l4950
  5154   0063F4                     u4280:
  5155   0063F4                     l4948:
  5156   0063F4  5005               	movf	fputc@c^(0+1280),w,c
  5157   0063F6  EC24  F037         	call	_putch
  5158   0063FA  EF4C  F032         	goto	l1580
  5159   0063FE                     l4950:
  5160   0063FE  EE20 F00A          	lfsr	2,10
  5161   006402  5007               	movf	fputc@fp^(0+1280),w,c
  5162   006404  26D9               	addwf	fsr2l,f,c
  5163   006406  5008               	movf	(fputc@fp+1)^(0+1280),w,c
  5164   006408  22DA               	addwfc	fsr2h,f,c
  5165   00640A  50DE               	movf	postinc2,w,c
  5166   00640C  10DE               	iorwf	postinc2,w,c
  5167   00640E  B4D8               	btfsc	status,2,c
  5168   006410  EF0C  F032         	goto	u4291
  5169   006414  EF0E  F032         	goto	u4290
  5170   006418                     u4291:
  5171   006418  EF29  F032         	goto	l4954
  5172   00641C                     u4290:
  5173   00641C  EE20 F00A          	lfsr	2,10
  5174   006420  5007               	movf	fputc@fp^(0+1280),w,c
  5175   006422  26D9               	addwf	fsr2l,f,c
  5176   006424  5008               	movf	(fputc@fp+1)^(0+1280),w,c
  5177   006426  22DA               	addwfc	fsr2h,f,c
  5178   006428  EE10 F003          	lfsr	1,3
  5179   00642C  5007               	movf	fputc@fp^(0+1280),w,c
  5180   00642E  26E1               	addwf	fsr1l,f,c
  5181   006430  5008               	movf	(fputc@fp+1)^(0+1280),w,c
  5182   006432  22E2               	addwfc	fsr1h,f,c
  5183   006434  50DE               	movf	postinc2,w,c
  5184   006436  5CE6               	subwf	postinc1,w,c
  5185   006438  50E6               	movf	postinc1,w,c
  5186   00643A  0A80               	xorlw	128
  5187   00643C  6E0D               	movwf	(??_fputc+4)^(0+1280),c
  5188   00643E  50DE               	movf	postinc2,w,c
  5189   006440  0A80               	xorlw	128
  5190   006442  580D               	subwfb	(??_fputc+4)^(0+1280),w,c
  5191   006444  B0D8               	btfsc	status,0,c
  5192   006446  EF27  F032         	goto	u4301
  5193   00644A  EF29  F032         	goto	u4300
  5194   00644E                     u4301:
  5195   00644E  EF4C  F032         	goto	l1580
  5196   006452                     u4300:
  5197   006452                     l4954:
  5198   006452  EE20 F003          	lfsr	2,3
  5199   006456  5007               	movf	fputc@fp^(0+1280),w,c
  5200   006458  26D9               	addwf	fsr2l,f,c
  5201   00645A  5008               	movf	(fputc@fp+1)^(0+1280),w,c
  5202   00645C  22DA               	addwfc	fsr2h,f,c
  5203   00645E  C4DE F509          	movff	postinc2,??_fputc
  5204   006462  C4DD F50A          	movff	postdec2,??_fputc+1
  5205   006466  C507  F4D9         	movff	fputc@fp,fsr2l
  5206   00646A  C508  F4DA         	movff	fputc@fp+1,fsr2h
  5207   00646E  C4DE F50B          	movff	postinc2,??_fputc+2
  5208   006472  C4DD F50C          	movff	postdec2,??_fputc+3
  5209   006476  5009               	movf	??_fputc^(0+1280),w,c
  5210   006478  240B               	addwf	(??_fputc+2)^(0+1280),w,c
  5211   00647A  6ED9               	movwf	fsr2l,c
  5212   00647C  500A               	movf	(??_fputc+1)^(0+1280),w,c
  5213   00647E  200C               	addwfc	(??_fputc+3)^(0+1280),w,c
  5214   006480  6EDA               	movwf	fsr2h,c
  5215   006482  C505  F4DF         	movff	fputc@c,indf2
  5216   006486  EE20 F003          	lfsr	2,3
  5217   00648A  5007               	movf	fputc@fp^(0+1280),w,c
  5218   00648C  26D9               	addwf	fsr2l,f,c
  5219   00648E  5008               	movf	(fputc@fp+1)^(0+1280),w,c
  5220   006490  22DA               	addwfc	fsr2h,f,c
  5221   006492  2ADE               	incf	postinc2,f,c
  5222   006494  0E00               	movlw	0
  5223   006496  22DD               	addwfc	postdec2,f,c
  5224   006498                     l1580:
  5225   006498  0012               	return		;funcret
  5226   00649A                     __end_of_fputc:
  5227                           	callstack 0
  5228                           
  5229 ;; *************** function _putch *****************
  5230 ;; Defined at:
  5231 ;;		line 231 in file "mcc_generated_files/uart1.c"
  5232 ;; Parameters:    Size  Location     Type
  5233 ;;  txData          1    wreg     unsigned char 
  5234 ;; Auto vars:     Size  Location     Type
  5235 ;;  txData          1    3[COMRAM] unsigned char 
  5236 ;; Return value:  Size  Location     Type
  5237 ;;                  1    wreg      void 
  5238 ;; Registers used:
  5239 ;;		wreg, fsr2l, fsr2h, status,2, status,0, cstack
  5240 ;; Tracked objects:
  5241 ;;		On entry : 0/0
  5242 ;;		On exit  : 0/0
  5243 ;;		Unchanged: 0/0
  5244 ;; Data sizes:     COMRAM   BANK5   BANK6   BANK7   BANK8   BANK9  BANK10  BANK11  BANK12  BANK13  BANK14  BANK15  BANK1
      +6  BANK17  BANK18  BANK19  BANK20  BANK21  BANK22  BANK23  BANK24  BANK25  BANK26  BANK27  BANK28  BANK29  BANK30  BANK3
      +1  BANK32  BANK33  BANK34  BANK35  BANK36  BANK37  BANK38  BANK39  BANK40  BANK41  BANK42  BANK43  BANK44  BANK45  BANK4
      +6  BANK47  BANK48  BANK49  BANK50  BANK51  BANK52  BANK53  BANK54
  5245 ;;      Params:         0       0       0       0       0       0       0       0       0       0       0       0       
      +0       0       0       0       0       0       0       0       0       0       0       0       0       0       0       
      +0       0       0       0       0       0       0       0       0       0       0       0       0       0       0       
      +0       0       0       0       0       0       0       0       0
  5246 ;;      Locals:         1       0       0       0       0       0       0       0       0       0       0       0       
      +0       0       0       0       0       0       0       0       0       0       0       0       0       0       0       
      +0       0       0       0       0       0       0       0       0       0       0       0       0       0       0       
      +0       0       0       0       0       0       0       0       0
  5247 ;;      Temps:          0       0       0       0       0       0       0       0       0       0       0       0       
      +0       0       0       0       0       0       0       0       0       0       0       0       0       0       0       
      +0       0       0       0       0       0       0       0       0       0       0       0       0       0       0       
      +0       0       0       0       0       0       0       0       0
  5248 ;;      Totals:         1       0       0       0       0       0       0       0       0       0       0       0       
      +0       0       0       0       0       0       0       0       0       0       0       0       0       0       0       
      +0       0       0       0       0       0       0       0       0       0       0       0       0       0       0       
      +0       0       0       0       0       0       0       0       0
  5249 ;;Total ram usage:        1 bytes
  5250 ;; Hardware stack levels used: 1
  5251 ;; Hardware stack levels required when called: 5
  5252 ;; This function calls:
  5253 ;;		_UART1_Write
  5254 ;; This function is called by:
  5255 ;;		_fputc
  5256 ;; This function uses a non-reentrant model
  5257 ;;
  5258                           
  5259                           	psect	text29
  5260   006E48                     __ptext29:
  5261                           	callstack 0
  5262   006E48                     _putch:
  5263                           	callstack 116
  5264                           
  5265                           ;incstack = 0
  5266                           ;putch@txData stored from wreg
  5267   006E48  6E04               	movwf	putch@txData^(0+1280),c
  5268   006E4A                     
  5269                           ;mcc_generated_files/uart1.c: 231: void putch(char txData);mcc_generated_files/uart1.c: 
      +                          232: {;mcc_generated_files/uart1.c: 233:     UART1_Write(txData);
  5270   006E4A  5004               	movf	putch@txData^(0+1280),w,c
  5271   006E4C  EC43  F035         	call	_UART1_Write
  5272   006E50  0012               	return		;funcret
  5273   006E52                     __end_of_putch:
  5274                           	callstack 0
  5275                           
  5276 ;; *************** function _UART1_Write *****************
  5277 ;; Defined at:
  5278 ;;		line 202 in file "mcc_generated_files/uart1.c"
  5279 ;; Parameters:    Size  Location     Type
  5280 ;;  txData          1    wreg     unsigned char 
  5281 ;; Auto vars:     Size  Location     Type
  5282 ;;  txData          1    2[COMRAM] unsigned char 
  5283 ;; Return value:  Size  Location     Type
  5284 ;;                  1    wreg      void 
  5285 ;; Registers used:
  5286 ;;		wreg, fsr2l, fsr2h, status,2, status,0
  5287 ;; Tracked objects:
  5288 ;;		On entry : 0/0
  5289 ;;		On exit  : 0/0
  5290 ;;		Unchanged: 0/0
  5291 ;; Data sizes:     COMRAM   BANK5   BANK6   BANK7   BANK8   BANK9  BANK10  BANK11  BANK12  BANK13  BANK14  BANK15  BANK1
      +6  BANK17  BANK18  BANK19  BANK20  BANK21  BANK22  BANK23  BANK24  BANK25  BANK26  BANK27  BANK28  BANK29  BANK30  BANK3
      +1  BANK32  BANK33  BANK34  BANK35  BANK36  BANK37  BANK38  BANK39  BANK40  BANK41  BANK42  BANK43  BANK44  BANK45  BANK4
      +6  BANK47  BANK48  BANK49  BANK50  BANK51  BANK52  BANK53  BANK54
  5292 ;;      Params:         0       0       0       0       0       0       0       0       0       0       0       0       
      +0       0       0       0       0       0       0       0       0       0       0       0       0       0       0       
      +0       0       0       0       0       0       0       0       0       0       0       0       0       0       0       
      +0       0       0       0       0       0       0       0       0
  5293 ;;      Locals:         1       0       0       0       0       0       0       0       0       0       0       0       
      +0       0       0       0       0       0       0       0       0       0       0       0       0       0       0       
      +0       0       0       0       0       0       0       0       0       0       0       0       0       0       0       
      +0       0       0       0       0       0       0       0       0
  5294 ;;      Temps:          0       0       0       0       0       0       0       0       0       0       0       0       
      +0       0       0       0       0       0       0       0       0       0       0       0       0       0       0       
      +0       0       0       0       0       0       0       0       0       0       0       0       0       0       0       
      +0       0       0       0       0       0       0       0       0
  5295 ;;      Totals:         1       0       0       0       0       0       0       0       0       0       0       0       
      +0       0       0       0       0       0       0       0       0       0       0       0       0       0       0       
      +0       0       0       0       0       0       0       0       0       0       0       0       0       0       0       
      +0       0       0       0       0       0       0       0       0
  5296 ;;Total ram usage:        1 bytes
  5297 ;; Hardware stack levels used: 1
  5298 ;; Hardware stack levels required when called: 4
  5299 ;; This function calls:
  5300 ;;		Nothing
  5301 ;; This function is called by:
  5302 ;;		_putch
  5303 ;; This function uses a non-reentrant model
  5304 ;;
  5305                           
  5306                           	psect	text30
  5307   006A86                     __ptext30:
  5308                           	callstack 0
  5309   006A86                     _UART1_Write:
  5310                           	callstack 116
  5311                           
  5312                           ;incstack = 0
  5313                           ;UART1_Write@txData stored from wreg
  5314   006A86  6E03               	movwf	UART1_Write@txData^(0+1280),c
  5315   006A88                     l4926:
  5316                           
  5317                           ;mcc_generated_files/uart1.c: 204:     while(0 == uart1TxBufferRemaining)
  5318   006A88  5057               	movf	_uart1TxBufferRemaining^(0+1280),w,c	;volatile
  5319   006A8A  B4D8               	btfsc	status,2,c
  5320   006A8C  EF4A  F035         	goto	u4241
  5321   006A90  EF4C  F035         	goto	u4240
  5322   006A94                     u4241:
  5323   006A94  EF44  F035         	goto	l4926
  5324   006A98                     u4240:
  5325   006A98                     
  5326                           ;mcc_generated_files/uart1.c: 208:     if(0 == PIE4bits.U1TXIE)
  5327   006A98  B2A2               	btfsc	162,1,c	;volatile
  5328   006A9A  EF51  F035         	goto	u4251
  5329   006A9E  EF53  F035         	goto	u4250
  5330   006AA2                     u4251:
  5331   006AA2  EF57  F035         	goto	l490
  5332   006AA6                     u4250:
  5333   006AA6                     
  5334                           ;mcc_generated_files/uart1.c: 209:     {;mcc_generated_files/uart1.c: 210:         U1TXB
      +                           = txData;
  5335   006AA6  C503  F2A3         	movff	UART1_Write@txData,675	;volatile
  5336                           
  5337                           ;mcc_generated_files/uart1.c: 211:     }
  5338   006AAA  EF6C  F035         	goto	l4940
  5339   006AAE                     l490:
  5340                           
  5341                           ;mcc_generated_files/uart1.c: 213:     {;mcc_generated_files/uart1.c: 214:         PIE4b
      +                          its.U1TXIE = 0;
  5342   006AAE  92A2               	bcf	162,1,c	;volatile
  5343   006AB0                     
  5344                           ;mcc_generated_files/uart1.c: 215:         uart1TxBuffer[uart1TxHead++] = txData;
  5345   006AB0  0E58               	movlw	low _uart1TxBuffer
  5346   006AB2  245A               	addwf	_uart1TxHead^(0+1280),w,c	;volatile
  5347   006AB4  6ED9               	movwf	fsr2l,c
  5348   006AB6  6ADA               	clrf	fsr2h,c
  5349   006AB8  0E05               	movlw	high _uart1TxBuffer
  5350   006ABA  22DA               	addwfc	fsr2h,f,c
  5351   006ABC  C503  F4DF         	movff	UART1_Write@txData,indf2
  5352   006AC0  2A5A               	incf	_uart1TxHead^(0+1280),f,c	;volatile
  5353   006AC2                     
  5354                           ;mcc_generated_files/uart1.c: 216:         if(sizeof(uart1TxBuffer) <= uart1TxHead)
  5355   006AC2  505A               	movf	_uart1TxHead^(0+1280),w,c	;volatile
  5356   006AC4  B4D8               	btfsc	status,2,c
  5357   006AC6  EF67  F035         	goto	u4261
  5358   006ACA  EF69  F035         	goto	u4260
  5359   006ACE                     u4261:
  5360   006ACE  EF6B  F035         	goto	l4938
  5361   006AD2                     u4260:
  5362   006AD2                     
  5363                           ;mcc_generated_files/uart1.c: 217:         {;mcc_generated_files/uart1.c: 218:          
      +                             uart1TxHead = 0;
  5364   006AD2  0E00               	movlw	0
  5365   006AD4  6E5A               	movwf	_uart1TxHead^(0+1280),c	;volatile
  5366   006AD6                     l4938:
  5367                           
  5368                           ;mcc_generated_files/uart1.c: 220:         uart1TxBufferRemaining--;
  5369   006AD6  0657               	decf	_uart1TxBufferRemaining^(0+1280),f,c	;volatile
  5370   006AD8                     l4940:
  5371                           
  5372                           ;mcc_generated_files/uart1.c: 222:     PIE4bits.U1TXIE = 1;
  5373   006AD8  82A2               	bsf	162,1,c	;volatile
  5374   006ADA  0012               	return		;funcret
  5375   006ADC                     __end_of_UART1_Write:
  5376                           	callstack 0
  5377                           
  5378 ;; *************** function _memcpy *****************
  5379 ;; Defined at:
  5380 ;;		line 4 in file "/Applications/microchip/xc8/v2.41/pic/sources/c99/common/memcpy.c"
  5381 ;; Parameters:    Size  Location     Type
  5382 ;;  d1              2    2[COMRAM] PTR void 
  5383 ;;		 -> dbuf(80), 
  5384 ;;  s1              2    4[COMRAM] PTR const void 
  5385 ;;		 -> dbuf(80), 
  5386 ;;  n               2    6[COMRAM] unsigned int 
  5387 ;; Auto vars:     Size  Location     Type
  5388 ;;  s               2   11[COMRAM] PTR const unsigned char 
  5389 ;;		 -> dbuf(80), 
  5390 ;;  d               2    9[COMRAM] PTR unsigned char 
  5391 ;;		 -> dbuf(80), 
  5392 ;;  tmp             1    8[COMRAM] unsigned char 
  5393 ;; Return value:  Size  Location     Type
  5394 ;;                  2    2[COMRAM] PTR void 
  5395 ;; Registers used:
  5396 ;;		wreg, fsr2l, fsr2h, status,2, status,0
  5397 ;; Tracked objects:
  5398 ;;		On entry : 0/0
  5399 ;;		On exit  : 0/0
  5400 ;;		Unchanged: 0/0
  5401 ;; Data sizes:     COMRAM   BANK5   BANK6   BANK7   BANK8   BANK9  BANK10  BANK11  BANK12  BANK13  BANK14  BANK15  BANK1
      +6  BANK17  BANK18  BANK19  BANK20  BANK21  BANK22  BANK23  BANK24  BANK25  BANK26  BANK27  BANK28  BANK29  BANK30  BANK3
      +1  BANK32  BANK33  BANK34  BANK35  BANK36  BANK37  BANK38  BANK39  BANK40  BANK41  BANK42  BANK43  BANK44  BANK45  BANK4
      +6  BANK47  BANK48  BANK49  BANK50  BANK51  BANK52  BANK53  BANK54
  5402 ;;      Params:         6       0       0       0       0       0       0       0       0       0       0       0       
      +0       0       0       0       0       0       0       0       0       0       0       0       0       0       0       
      +0       0       0       0       0       0       0       0       0       0       0       0       0       0       0       
      +0       0       0       0       0       0       0       0       0
  5403 ;;      Locals:         5       0       0       0       0       0       0       0       0       0       0       0       
      +0       0       0       0       0       0       0       0       0       0       0       0       0       0       0       
      +0       0       0       0       0       0       0       0       0       0       0       0       0       0       0       
      +0       0       0       0       0       0       0       0       0
  5404 ;;      Temps:          0       0       0       0       0       0       0       0       0       0       0       0       
      +0       0       0       0       0       0       0       0       0       0       0       0       0       0       0       
      +0       0       0       0       0       0       0       0       0       0       0       0       0       0       0       
      +0       0       0       0       0       0       0       0       0
  5405 ;;      Totals:        11       0       0       0       0       0       0       0       0       0       0       0       
      +0       0       0       0       0       0       0       0       0       0       0       0       0       0       0       
      +0       0       0       0       0       0       0       0       0       0       0       0       0       0       0       
      +0       0       0       0       0       0       0       0       0
  5406 ;;Total ram usage:       11 bytes
  5407 ;; Hardware stack levels used: 1
  5408 ;; Hardware stack levels required when called: 4
  5409 ;; This function calls:
  5410 ;;		Nothing
  5411 ;; This function is called by:
  5412 ;;		_efgtoa
  5413 ;; This function uses a non-reentrant model
  5414 ;;
  5415                           
  5416                           	psect	text31
  5417   006ADC                     __ptext31:
  5418                           	callstack 0
  5419   006ADC                     _memcpy:
  5420                           	callstack 117
  5421   006ADC  C505  F50C         	movff	memcpy@s1,memcpy@s
  5422   006AE0  C506  F50D         	movff	memcpy@s1+1,memcpy@s+1
  5423   006AE4  C503  F50A         	movff	memcpy@d1,memcpy@d
  5424   006AE8  C504  F50B         	movff	memcpy@d1+1,memcpy@d+1
  5425   006AEC  EF88  F035         	goto	l5620
  5426   006AF0                     l5612:
  5427   006AF0  C50C  F4D9         	movff	memcpy@s,fsr2l
  5428   006AF4  C50D  F4DA         	movff	memcpy@s+1,fsr2h
  5429   006AF8  50DF               	movf	indf2,w,c
  5430   006AFA  6E09               	movwf	memcpy@tmp^(0+1280),c
  5431   006AFC  4A0C               	infsnz	memcpy@s^(0+1280),f,c
  5432   006AFE  2A0D               	incf	(memcpy@s+1)^(0+1280),f,c
  5433   006B00  C50A  F4D9         	movff	memcpy@d,fsr2l
  5434   006B04  C50B  F4DA         	movff	memcpy@d+1,fsr2h
  5435   006B08  C509  F4DF         	movff	memcpy@tmp,indf2
  5436   006B0C  4A0A               	infsnz	memcpy@d^(0+1280),f,c
  5437   006B0E  2A0B               	incf	(memcpy@d+1)^(0+1280),f,c
  5438   006B10                     l5620:
  5439   006B10  0607               	decf	memcpy@n^(0+1280),f,c
  5440   006B12  A0D8               	btfss	status,0,c
  5441   006B14  0608               	decf	(memcpy@n+1)^(0+1280),f,c
  5442   006B16  2807               	incf	memcpy@n^(0+1280),w,c
  5443   006B18  E106               	bnz	u5501
  5444   006B1A  2808               	incf	(memcpy@n+1)^(0+1280),w,c
  5445   006B1C  A4D8               	btfss	status,2,c
  5446   006B1E  EF93  F035         	goto	u5501
  5447   006B22  EF95  F035         	goto	u5500
  5448   006B26                     u5501:
  5449   006B26  EF78  F035         	goto	l5612
  5450   006B2A                     u5500:
  5451   006B2A  0012               	return		;funcret
  5452   006B2C                     __end_of_memcpy:
  5453                           	callstack 0
  5454                           
  5455 ;; *************** function _labs *****************
  5456 ;; Defined at:
  5457 ;;		line 1 in file "/Applications/microchip/xc8/v2.41/pic/sources/c99/common/labs.c"
  5458 ;; Parameters:    Size  Location     Type
  5459 ;;  a               4    2[COMRAM] long 
  5460 ;; Auto vars:     Size  Location     Type
  5461 ;;		None
  5462 ;; Return value:  Size  Location     Type
  5463 ;;                  4    2[COMRAM] long 
  5464 ;; Registers used:
  5465 ;;		wreg, status,2, status,0
  5466 ;; Tracked objects:
  5467 ;;		On entry : 0/0
  5468 ;;		On exit  : 0/0
  5469 ;;		Unchanged: 0/0
  5470 ;; Data sizes:     COMRAM   BANK5   BANK6   BANK7   BANK8   BANK9  BANK10  BANK11  BANK12  BANK13  BANK14  BANK15  BANK1
      +6  BANK17  BANK18  BANK19  BANK20  BANK21  BANK22  BANK23  BANK24  BANK25  BANK26  BANK27  BANK28  BANK29  BANK30  BANK3
      +1  BANK32  BANK33  BANK34  BANK35  BANK36  BANK37  BANK38  BANK39  BANK40  BANK41  BANK42  BANK43  BANK44  BANK45  BANK4
      +6  BANK47  BANK48  BANK49  BANK50  BANK51  BANK52  BANK53  BANK54
  5471 ;;      Params:         4       0       0       0       0       0       0       0       0       0       0       0       
      +0       0       0       0       0       0       0       0       0       0       0       0       0       0       0       
      +0       0       0       0       0       0       0       0       0       0       0       0       0       0       0       
      +0       0       0       0       0       0       0       0       0
  5472 ;;      Locals:         0       0       0       0       0       0       0       0       0       0       0       0       
      +0       0       0       0       0       0       0       0       0       0       0       0       0       0       0       
      +0       0       0       0       0       0       0       0       0       0       0       0       0       0       0       
      +0       0       0       0       0       0       0       0       0
  5473 ;;      Temps:          4       0       0       0       0       0       0       0       0       0       0       0       
      +0       0       0       0       0       0       0       0       0       0       0       0       0       0       0       
      +0       0       0       0       0       0       0       0       0       0       0       0       0       0       0       
      +0       0       0       0       0       0       0       0       0
  5474 ;;      Totals:         8       0       0       0       0       0       0       0       0       0       0       0       
      +0       0       0       0       0       0       0       0       0       0       0       0       0       0       0       
      +0       0       0       0       0       0       0       0       0       0       0       0       0       0       0       
      +0       0       0       0       0       0       0       0       0
  5475 ;;Total ram usage:        8 bytes
  5476 ;; Hardware stack levels used: 1
  5477 ;; Hardware stack levels required when called: 4
  5478 ;; This function calls:
  5479 ;;		Nothing
  5480 ;; This function is called by:
  5481 ;;		_efgtoa
  5482 ;; This function uses a non-reentrant model
  5483 ;;
  5484                           
  5485                           	psect	text32
  5486   006972                     __ptext32:
  5487                           	callstack 0
  5488   006972                     _labs:
  5489                           	callstack 117
  5490   006972  BE06               	btfsc	(labs@a+3)^(0+1280),7,c
  5491   006974  EFC8  F034         	goto	u5390
  5492   006978  5006               	movf	(labs@a+3)^(0+1280),w,c
  5493   00697A  1005               	iorwf	(labs@a+2)^(0+1280),w,c
  5494   00697C  1004               	iorwf	(labs@a+1)^(0+1280),w,c
  5495   00697E  E106               	bnz	u5391
  5496   006980  0403               	decf	labs@a^(0+1280),w,c
  5497   006982  B0D8               	btfsc	status,0,c
  5498   006984  EFC6  F034         	goto	u5391
  5499   006988  EFC8  F034         	goto	u5390
  5500   00698C                     u5391:
  5501   00698C  EFE3  F034         	goto	l1559
  5502   006990                     u5390:
  5503   006990  C503  F507         	movff	labs@a,??_labs
  5504   006994  C504  F508         	movff	labs@a+1,??_labs+1
  5505   006998  C505  F509         	movff	labs@a+2,??_labs+2
  5506   00699C  C506  F50A         	movff	labs@a+3,??_labs+3
  5507   0069A0  1E07               	comf	??_labs^(0+1280),f,c
  5508   0069A2  1E08               	comf	(??_labs+1)^(0+1280),f,c
  5509   0069A4  1E09               	comf	(??_labs+2)^(0+1280),f,c
  5510   0069A6  1E0A               	comf	(??_labs+3)^(0+1280),f,c
  5511   0069A8  2A07               	incf	??_labs^(0+1280),f,c
  5512   0069AA  0E00               	movlw	0
  5513   0069AC  2208               	addwfc	(??_labs+1)^(0+1280),f,c
  5514   0069AE  2209               	addwfc	(??_labs+2)^(0+1280),f,c
  5515   0069B0  220A               	addwfc	(??_labs+3)^(0+1280),f,c
  5516   0069B2  C507  F503         	movff	??_labs,?_labs
  5517   0069B6  C508  F504         	movff	??_labs+1,?_labs+1
  5518   0069BA  C509  F505         	movff	??_labs+2,?_labs+2
  5519   0069BE  C50A  F506         	movff	??_labs+3,?_labs+3
  5520   0069C2  EFEB  F034         	goto	l1562
  5521   0069C6                     l1559:
  5522   0069C6  C503  F503         	movff	labs@a,?_labs
  5523   0069CA  C504  F504         	movff	labs@a+1,?_labs+1
  5524   0069CE  C505  F505         	movff	labs@a+2,?_labs+2
  5525   0069D2  C506  F506         	movff	labs@a+3,?_labs+3
  5526   0069D6                     l1562:
  5527   0069D6  0012               	return		;funcret
  5528   0069D8                     __end_of_labs:
  5529                           	callstack 0
  5530                           
  5531 ;; *************** function _floorf *****************
  5532 ;; Defined at:
  5533 ;;		line 3 in file "/Applications/microchip/xc8/v2.41/pic/sources/c99/common/floorf.c"
  5534 ;; Parameters:    Size  Location     Type
  5535 ;;  x               4   27[COMRAM] float 
  5536 ;; Auto vars:     Size  Location     Type
  5537 ;;  u               4   43[COMRAM] struct .
  5538 ;;  m               4   37[COMRAM] unsigned long 
  5539 ;;  e               2   41[COMRAM] int 
  5540 ;; Return value:  Size  Location     Type
  5541 ;;                  4   27[COMRAM] float 
  5542 ;; Registers used:
  5543 ;;		wreg, status,2, status,0
  5544 ;; Tracked objects:
  5545 ;;		On entry : 0/0
  5546 ;;		On exit  : 0/0
  5547 ;;		Unchanged: 0/0
  5548 ;; Data sizes:     COMRAM   BANK5   BANK6   BANK7   BANK8   BANK9  BANK10  BANK11  BANK12  BANK13  BANK14  BANK15  BANK1
      +6  BANK17  BANK18  BANK19  BANK20  BANK21  BANK22  BANK23  BANK24  BANK25  BANK26  BANK27  BANK28  BANK29  BANK30  BANK3
      +1  BANK32  BANK33  BANK34  BANK35  BANK36  BANK37  BANK38  BANK39  BANK40  BANK41  BANK42  BANK43  BANK44  BANK45  BANK4
      +6  BANK47  BANK48  BANK49  BANK50  BANK51  BANK52  BANK53  BANK54
  5549 ;;      Params:         4       0       0       0       0       0       0       0       0       0       0       0       
      +0       0       0       0       0       0       0       0       0       0       0       0       0       0       0       
      +0       0       0       0       0       0       0       0       0       0       0       0       0       0       0       
      +0       0       0       0       0       0       0       0       0
  5550 ;;      Locals:        10       0       0       0       0       0       0       0       0       0       0       0       
      +0       0       0       0       0       0       0       0       0       0       0       0       0       0       0       
      +0       0       0       0       0       0       0       0       0       0       0       0       0       0       0       
      +0       0       0       0       0       0       0       0       0
  5551 ;;      Temps:          6       0       0       0       0       0       0       0       0       0       0       0       
      +0       0       0       0       0       0       0       0       0       0       0       0       0       0       0       
      +0       0       0       0       0       0       0       0       0       0       0       0       0       0       0       
      +0       0       0       0       0       0       0       0       0
  5552 ;;      Totals:        20       0       0       0       0       0       0       0       0       0       0       0       
      +0       0       0       0       0       0       0       0       0       0       0       0       0       0       0       
      +0       0       0       0       0       0       0       0       0       0       0       0       0       0       0       
      +0       0       0       0       0       0       0       0       0
  5553 ;;Total ram usage:       20 bytes
  5554 ;; Hardware stack levels used: 1
  5555 ;; Hardware stack levels required when called: 4
  5556 ;; This function calls:
  5557 ;;		Nothing
  5558 ;; This function is called by:
  5559 ;;		_efgtoa
  5560 ;; This function uses a non-reentrant model
  5561 ;;
  5562                           
  5563                           	psect	text33
  5564   005996                     __ptext33:
  5565                           	callstack 0
  5566   005996                     _floorf:
  5567                           	callstack 117
  5568   005996  C5BE  F52C         	movff	floorf@F526,floorf@u
  5569   00599A  C5BF  F52D         	movff	floorf@F526+1,floorf@u+1
  5570   00599E  C5C0  F52E         	movff	floorf@F526+2,floorf@u+2
  5571   0059A2  C5C1  F52F         	movff	floorf@F526+3,floorf@u+3
  5572   0059A6  C51C  F52C         	movff	floorf@x,floorf@u
  5573   0059AA  C51D  F52D         	movff	floorf@x+1,floorf@u+1
  5574   0059AE  C51E  F52E         	movff	floorf@x+2,floorf@u+2
  5575   0059B2  C51F  F52F         	movff	floorf@x+3,floorf@u+3
  5576   0059B6  0E81               	movlw	129
  5577   0059B8  6E20               	movwf	??_floorf^(0+1280),c
  5578   0059BA  0EFF               	movlw	255
  5579   0059BC  6E21               	movwf	(??_floorf+1)^(0+1280),c
  5580   0059BE  C52C  F522         	movff	floorf@u,??_floorf+2
  5581   0059C2  C52D  F523         	movff	floorf@u+1,??_floorf+3
  5582   0059C6  C52E  F524         	movff	floorf@u+2,??_floorf+4
  5583   0059CA  C52F  F525         	movff	floorf@u+3,??_floorf+5
  5584   0059CE  0E18               	movlw	24
  5585   0059D0  EFEF  F02C         	goto	u5400
  5586   0059D4                     u5405:
  5587   0059D4  90D8               	bcf	status,0,c
  5588   0059D6  3225               	rrcf	(??_floorf+5)^(0+1280),f,c
  5589   0059D8  3224               	rrcf	(??_floorf+4)^(0+1280),f,c
  5590   0059DA  3223               	rrcf	(??_floorf+3)^(0+1280),f,c
  5591   0059DC  3222               	rrcf	(??_floorf+2)^(0+1280),f,c
  5592   0059DE                     u5400:
  5593   0059DE  2EE8               	decfsz	wreg,f,c
  5594   0059E0  EFEA  F02C         	goto	u5405
  5595   0059E4  5022               	movf	(??_floorf+2)^(0+1280),w,c
  5596   0059E6  2420               	addwf	??_floorf^(0+1280),w,c
  5597   0059E8  6E2A               	movwf	floorf@e^(0+1280),c
  5598   0059EA  0E00               	movlw	0
  5599   0059EC  2021               	addwfc	(??_floorf+1)^(0+1280),w,c
  5600   0059EE  6E2B               	movwf	(floorf@e+1)^(0+1280),c
  5601   0059F0  BE2B               	btfsc	(floorf@e+1)^(0+1280),7,c
  5602   0059F2  EF04  F02D         	goto	u5411
  5603   0059F6  502B               	movf	(floorf@e+1)^(0+1280),w,c
  5604   0059F8  E109               	bnz	u5410
  5605   0059FA  0E17               	movlw	23
  5606   0059FC  5C2A               	subwf	floorf@e^(0+1280),w,c
  5607   0059FE  A0D8               	btfss	status,0,c
  5608   005A00  EF04  F02D         	goto	u5411
  5609   005A04  EF06  F02D         	goto	u5410
  5610   005A08                     u5411:
  5611   005A08  EF10  F02D         	goto	l5588
  5612   005A0C                     u5410:
  5613   005A0C                     l5586:
  5614   005A0C  C51C  F51C         	movff	floorf@x,?_floorf
  5615   005A10  C51D  F51D         	movff	floorf@x+1,?_floorf+1
  5616   005A14  C51E  F51E         	movff	floorf@x+2,?_floorf+2
  5617   005A18  C51F  F51F         	movff	floorf@x+3,?_floorf+3
  5618   005A1C  EFD3  F02D         	goto	l1548
  5619   005A20                     l5588:
  5620   005A20  BE2B               	btfsc	(floorf@e+1)^(0+1280),7,c
  5621   005A22  EF15  F02D         	goto	u5421
  5622   005A26  EF17  F02D         	goto	u5420
  5623   005A2A                     u5421:
  5624   005A2A  EF87  F02D         	goto	l5598
  5625   005A2E                     u5420:
  5626   005A2E  C52A  F520         	movff	floorf@e,??_floorf
  5627   005A32  0EFF               	movlw	255
  5628   005A34  6E21               	movwf	(??_floorf+1)^(0+1280),c
  5629   005A36  0EFF               	movlw	255
  5630   005A38  6E22               	movwf	(??_floorf+2)^(0+1280),c
  5631   005A3A  0E7F               	movlw	127
  5632   005A3C  6E23               	movwf	(??_floorf+3)^(0+1280),c
  5633   005A3E  0E00               	movlw	0
  5634   005A40  6E24               	movwf	(??_floorf+4)^(0+1280),c
  5635   005A42                     u5435:
  5636   005A42  6620               	tstfsz	??_floorf^(0+1280),c
  5637   005A44  EF26  F02D         	goto	u5436
  5638   005A48  EF2E  F02D         	goto	u5437
  5639   005A4C                     u5436:
  5640   005A4C  3424               	rlcf	(??_floorf+4)^(0+1280),w,c
  5641   005A4E  3224               	rrcf	(??_floorf+4)^(0+1280),f,c
  5642   005A50  3223               	rrcf	(??_floorf+3)^(0+1280),f,c
  5643   005A52  3222               	rrcf	(??_floorf+2)^(0+1280),f,c
  5644   005A54  3221               	rrcf	(??_floorf+1)^(0+1280),f,c
  5645   005A56  2E20               	decfsz	??_floorf^(0+1280),f,c
  5646   005A58  EF21  F02D         	goto	u5435
  5647   005A5C                     u5437:
  5648   005A5C  C521  F526         	movff	??_floorf+1,floorf@m
  5649   005A60  C522  F527         	movff	??_floorf+2,floorf@m+1
  5650   005A64  C523  F528         	movff	??_floorf+3,floorf@m+2
  5651   005A68  C524  F529         	movff	??_floorf+4,floorf@m+3
  5652   005A6C  5026               	movf	floorf@m^(0+1280),w,c
  5653   005A6E  142C               	andwf	floorf@u^(0+1280),w,c
  5654   005A70  6E20               	movwf	??_floorf^(0+1280),c
  5655   005A72  5027               	movf	(floorf@m+1)^(0+1280),w,c
  5656   005A74  142D               	andwf	(floorf@u+1)^(0+1280),w,c
  5657   005A76  6E21               	movwf	(??_floorf+1)^(0+1280),c
  5658   005A78  5028               	movf	(floorf@m+2)^(0+1280),w,c
  5659   005A7A  142E               	andwf	(floorf@u+2)^(0+1280),w,c
  5660   005A7C  6E22               	movwf	(??_floorf+2)^(0+1280),c
  5661   005A7E  5029               	movf	(floorf@m+3)^(0+1280),w,c
  5662   005A80  142F               	andwf	(floorf@u+3)^(0+1280),w,c
  5663   005A82  6E23               	movwf	(??_floorf+3)^(0+1280),c
  5664   005A84  5020               	movf	??_floorf^(0+1280),w,c
  5665   005A86  1021               	iorwf	(??_floorf+1)^(0+1280),w,c
  5666   005A88  1022               	iorwf	(??_floorf+2)^(0+1280),w,c
  5667   005A8A  1023               	iorwf	(??_floorf+3)^(0+1280),w,c
  5668   005A8C  A4D8               	btfss	status,2,c
  5669   005A8E  EF4B  F02D         	goto	u5441
  5670   005A92  EF4D  F02D         	goto	u5440
  5671   005A96                     u5441:
  5672   005A96  EF4F  F02D         	goto	l5594
  5673   005A9A                     u5440:
  5674   005A9A  EF06  F02D         	goto	l5586
  5675   005A9E                     l5594:
  5676   005A9E  C52C  F520         	movff	floorf@u,??_floorf
  5677   005AA2  C52D  F521         	movff	floorf@u+1,??_floorf+1
  5678   005AA6  C52E  F522         	movff	floorf@u+2,??_floorf+2
  5679   005AAA  C52F  F523         	movff	floorf@u+3,??_floorf+3
  5680   005AAE  0E20               	movlw	32
  5681   005AB0  EF5F  F02D         	goto	u5450
  5682   005AB4                     u5455:
  5683   005AB4  90D8               	bcf	status,0,c
  5684   005AB6  3223               	rrcf	(??_floorf+3)^(0+1280),f,c
  5685   005AB8  3222               	rrcf	(??_floorf+2)^(0+1280),f,c
  5686   005ABA  3221               	rrcf	(??_floorf+1)^(0+1280),f,c
  5687   005ABC  3220               	rrcf	??_floorf^(0+1280),f,c
  5688   005ABE                     u5450:
  5689   005ABE  2EE8               	decfsz	wreg,f,c
  5690   005AC0  EF5A  F02D         	goto	u5455
  5691   005AC4  5020               	movf	??_floorf^(0+1280),w,c
  5692   005AC6  1021               	iorwf	(??_floorf+1)^(0+1280),w,c
  5693   005AC8  1022               	iorwf	(??_floorf+2)^(0+1280),w,c
  5694   005ACA  1023               	iorwf	(??_floorf+3)^(0+1280),w,c
  5695   005ACC  B4D8               	btfsc	status,2,c
  5696   005ACE  EF6B  F02D         	goto	u5461
  5697   005AD2  EF6D  F02D         	goto	u5460
  5698   005AD6                     u5461:
  5699   005AD6  EF75  F02D         	goto	l1551
  5700   005ADA                     u5460:
  5701   005ADA  5026               	movf	floorf@m^(0+1280),w,c
  5702   005ADC  262C               	addwf	floorf@u^(0+1280),f,c
  5703   005ADE  5027               	movf	(floorf@m+1)^(0+1280),w,c
  5704   005AE0  222D               	addwfc	(floorf@u+1)^(0+1280),f,c
  5705   005AE2  5028               	movf	(floorf@m+2)^(0+1280),w,c
  5706   005AE4  222E               	addwfc	(floorf@u+2)^(0+1280),f,c
  5707   005AE6  5029               	movf	(floorf@m+3)^(0+1280),w,c
  5708   005AE8  222F               	addwfc	(floorf@u+3)^(0+1280),f,c
  5709   005AEA                     l1551:
  5710   005AEA  1C26               	comf	floorf@m^(0+1280),w,c
  5711   005AEC  6E20               	movwf	??_floorf^(0+1280),c
  5712   005AEE  1C27               	comf	(floorf@m+1)^(0+1280),w,c
  5713   005AF0  6E21               	movwf	(??_floorf+1)^(0+1280),c
  5714   005AF2  1C28               	comf	(floorf@m+2)^(0+1280),w,c
  5715   005AF4  6E22               	movwf	(??_floorf+2)^(0+1280),c
  5716   005AF6  1C29               	comf	(floorf@m+3)^(0+1280),w,c
  5717   005AF8  6E23               	movwf	(??_floorf+3)^(0+1280),c
  5718   005AFA  5020               	movf	??_floorf^(0+1280),w,c
  5719   005AFC  162C               	andwf	floorf@u^(0+1280),f,c
  5720   005AFE  5021               	movf	(??_floorf+1)^(0+1280),w,c
  5721   005B00  162D               	andwf	(floorf@u+1)^(0+1280),f,c
  5722   005B02  5022               	movf	(??_floorf+2)^(0+1280),w,c
  5723   005B04  162E               	andwf	(floorf@u+2)^(0+1280),f,c
  5724   005B06  5023               	movf	(??_floorf+3)^(0+1280),w,c
  5725   005B08  162F               	andwf	(floorf@u+3)^(0+1280),f,c
  5726   005B0A  EFCB  F02D         	goto	l5606
  5727   005B0E                     l5598:
  5728   005B0E  C52C  F520         	movff	floorf@u,??_floorf
  5729   005B12  C52D  F521         	movff	floorf@u+1,??_floorf+1
  5730   005B16  C52E  F522         	movff	floorf@u+2,??_floorf+2
  5731   005B1A  C52F  F523         	movff	floorf@u+3,??_floorf+3
  5732   005B1E  0E20               	movlw	32
  5733   005B20  EF97  F02D         	goto	u5470
  5734   005B24                     u5475:
  5735   005B24  90D8               	bcf	status,0,c
  5736   005B26  3223               	rrcf	(??_floorf+3)^(0+1280),f,c
  5737   005B28  3222               	rrcf	(??_floorf+2)^(0+1280),f,c
  5738   005B2A  3221               	rrcf	(??_floorf+1)^(0+1280),f,c
  5739   005B2C  3220               	rrcf	??_floorf^(0+1280),f,c
  5740   005B2E                     u5470:
  5741   005B2E  2EE8               	decfsz	wreg,f,c
  5742   005B30  EF92  F02D         	goto	u5475
  5743   005B34  5020               	movf	??_floorf^(0+1280),w,c
  5744   005B36  1021               	iorwf	(??_floorf+1)^(0+1280),w,c
  5745   005B38  1022               	iorwf	(??_floorf+2)^(0+1280),w,c
  5746   005B3A  1023               	iorwf	(??_floorf+3)^(0+1280),w,c
  5747   005B3C  A4D8               	btfss	status,2,c
  5748   005B3E  EFA3  F02D         	goto	u5481
  5749   005B42  EFA5  F02D         	goto	u5480
  5750   005B46                     u5481:
  5751   005B46  EFAF  F02D         	goto	l5602
  5752   005B4A                     u5480:
  5753   005B4A  0E00               	movlw	0
  5754   005B4C  6E2C               	movwf	floorf@u^(0+1280),c
  5755   005B4E  0E00               	movlw	0
  5756   005B50  6E2D               	movwf	(floorf@u+1)^(0+1280),c
  5757   005B52  0E00               	movlw	0
  5758   005B54  6E2E               	movwf	(floorf@u+2)^(0+1280),c
  5759   005B56  0E00               	movlw	0
  5760   005B58  6E2F               	movwf	(floorf@u+3)^(0+1280),c
  5761   005B5A  EFCB  F02D         	goto	l5606
  5762   005B5E                     l5602:
  5763   005B5E  90D8               	bcf	status,0,c
  5764   005B60  342C               	rlcf	floorf@u^(0+1280),w,c
  5765   005B62  6E20               	movwf	??_floorf^(0+1280),c
  5766   005B64  342D               	rlcf	(floorf@u+1)^(0+1280),w,c
  5767   005B66  6E21               	movwf	(??_floorf+1)^(0+1280),c
  5768   005B68  342E               	rlcf	(floorf@u+2)^(0+1280),w,c
  5769   005B6A  6E22               	movwf	(??_floorf+2)^(0+1280),c
  5770   005B6C  342F               	rlcf	(floorf@u+3)^(0+1280),w,c
  5771   005B6E  6E23               	movwf	(??_floorf+3)^(0+1280),c
  5772   005B70  5020               	movf	??_floorf^(0+1280),w,c
  5773   005B72  1021               	iorwf	(??_floorf+1)^(0+1280),w,c
  5774   005B74  1022               	iorwf	(??_floorf+2)^(0+1280),w,c
  5775   005B76  1023               	iorwf	(??_floorf+3)^(0+1280),w,c
  5776   005B78  B4D8               	btfsc	status,2,c
  5777   005B7A  EFC1  F02D         	goto	u5491
  5778   005B7E  EFC3  F02D         	goto	u5490
  5779   005B82                     u5491:
  5780   005B82  EFCB  F02D         	goto	l5606
  5781   005B86                     u5490:
  5782   005B86  0E00               	movlw	0
  5783   005B88  6E2C               	movwf	floorf@u^(0+1280),c
  5784   005B8A  0E00               	movlw	0
  5785   005B8C  6E2D               	movwf	(floorf@u+1)^(0+1280),c
  5786   005B8E  0E80               	movlw	128
  5787   005B90  6E2E               	movwf	(floorf@u+2)^(0+1280),c
  5788   005B92  0EBF               	movlw	191
  5789   005B94  6E2F               	movwf	(floorf@u+3)^(0+1280),c
  5790   005B96                     l5606:
  5791   005B96  C52C  F51C         	movff	floorf@u,?_floorf
  5792   005B9A  C52D  F51D         	movff	floorf@u+1,?_floorf+1
  5793   005B9E  C52E  F51E         	movff	floorf@u+2,?_floorf+2
  5794   005BA2  C52F  F51F         	movff	floorf@u+3,?_floorf+3
  5795   005BA6                     l1548:
  5796   005BA6  0012               	return		;funcret
  5797   005BA8                     __end_of_floorf:
  5798                           	callstack 0
  5799                           
  5800 ;; *************** function ___fpclassifyf *****************
  5801 ;; Defined at:
  5802 ;;		line 4 in file "/Applications/microchip/xc8/v2.41/pic/sources/c99/common/__fpclassifyf.c"
  5803 ;; Parameters:    Size  Location     Type
  5804 ;;  x               4    2[COMRAM] float 
  5805 ;; Auto vars:     Size  Location     Type
  5806 ;;  u               4   12[COMRAM] struct .
  5807 ;;  e               2   10[COMRAM] int 
  5808 ;; Return value:  Size  Location     Type
  5809 ;;                  2    2[COMRAM] int 
  5810 ;; Registers used:
  5811 ;;		wreg, status,2, status,0
  5812 ;; Tracked objects:
  5813 ;;		On entry : 0/0
  5814 ;;		On exit  : 0/0
  5815 ;;		Unchanged: 0/0
  5816 ;; Data sizes:     COMRAM   BANK5   BANK6   BANK7   BANK8   BANK9  BANK10  BANK11  BANK12  BANK13  BANK14  BANK15  BANK1
      +6  BANK17  BANK18  BANK19  BANK20  BANK21  BANK22  BANK23  BANK24  BANK25  BANK26  BANK27  BANK28  BANK29  BANK30  BANK3
      +1  BANK32  BANK33  BANK34  BANK35  BANK36  BANK37  BANK38  BANK39  BANK40  BANK41  BANK42  BANK43  BANK44  BANK45  BANK4
      +6  BANK47  BANK48  BANK49  BANK50  BANK51  BANK52  BANK53  BANK54
  5817 ;;      Params:         4       0       0       0       0       0       0       0       0       0       0       0       
      +0       0       0       0       0       0       0       0       0       0       0       0       0       0       0       
      +0       0       0       0       0       0       0       0       0       0       0       0       0       0       0       
      +0       0       0       0       0       0       0       0       0
  5818 ;;      Locals:         6       0       0       0       0       0       0       0       0       0       0       0       
      +0       0       0       0       0       0       0       0       0       0       0       0       0       0       0       
      +0       0       0       0       0       0       0       0       0       0       0       0       0       0       0       
      +0       0       0       0       0       0       0       0       0
  5819 ;;      Temps:          4       0       0       0       0       0       0       0       0       0       0       0       
      +0       0       0       0       0       0       0       0       0       0       0       0       0       0       0       
      +0       0       0       0       0       0       0       0       0       0       0       0       0       0       0       
      +0       0       0       0       0       0       0       0       0
  5820 ;;      Totals:        14       0       0       0       0       0       0       0       0       0       0       0       
      +0       0       0       0       0       0       0       0       0       0       0       0       0       0       0       
      +0       0       0       0       0       0       0       0       0       0       0       0       0       0       0       
      +0       0       0       0       0       0       0       0       0
  5821 ;;Total ram usage:       14 bytes
  5822 ;; Hardware stack levels used: 1
  5823 ;; Hardware stack levels required when called: 4
  5824 ;; This function calls:
  5825 ;;		Nothing
  5826 ;; This function is called by:
  5827 ;;		_efgtoa
  5828 ;; This function uses a non-reentrant model
  5829 ;;
  5830                           
  5831                           	psect	text34
  5832   00611C                     __ptext34:
  5833                           	callstack 0
  5834   00611C                     ___fpclassifyf:
  5835                           	callstack 117
  5836   00611C  C5C2  F50D         	movff	___fpclassifyf@F465,___fpclassifyf@u
  5837   006120  C5C3  F50E         	movff	___fpclassifyf@F465+1,___fpclassifyf@u+1
  5838   006124  C5C4  F50F         	movff	___fpclassifyf@F465+2,___fpclassifyf@u+2
  5839   006128  C5C5  F510         	movff	___fpclassifyf@F465+3,___fpclassifyf@u+3
  5840   00612C  C503  F50D         	movff	___fpclassifyf@x,___fpclassifyf@u
  5841   006130  C504  F50E         	movff	___fpclassifyf@x+1,___fpclassifyf@u+1
  5842   006134  C505  F50F         	movff	___fpclassifyf@x+2,___fpclassifyf@u+2
  5843   006138  C506  F510         	movff	___fpclassifyf@x+3,___fpclassifyf@u+3
  5844   00613C  C50D  F507         	movff	___fpclassifyf@u,??___fpclassifyf
  5845   006140  C50E  F508         	movff	___fpclassifyf@u+1,??___fpclassifyf+1
  5846   006144  C50F  F509         	movff	___fpclassifyf@u+2,??___fpclassifyf+2
  5847   006148  C510  F50A         	movff	___fpclassifyf@u+3,??___fpclassifyf+3
  5848   00614C  0E18               	movlw	24
  5849   00614E  EFAE  F030         	goto	u5310
  5850   006152                     u5315:
  5851   006152  90D8               	bcf	status,0,c
  5852   006154  320A               	rrcf	(??___fpclassifyf+3)^(0+1280),f,c
  5853   006156  3209               	rrcf	(??___fpclassifyf+2)^(0+1280),f,c
  5854   006158  3208               	rrcf	(??___fpclassifyf+1)^(0+1280),f,c
  5855   00615A  3207               	rrcf	??___fpclassifyf^(0+1280),f,c
  5856   00615C                     u5310:
  5857   00615C  2EE8               	decfsz	wreg,f,c
  5858   00615E  EFA9  F030         	goto	u5315
  5859   006162  5007               	movf	??___fpclassifyf^(0+1280),w,c
  5860   006164  6E0B               	movwf	___fpclassifyf@e^(0+1280),c
  5861   006166  6A0C               	clrf	(___fpclassifyf@e+1)^(0+1280),c
  5862   006168  500B               	movf	___fpclassifyf@e^(0+1280),w,c
  5863   00616A  100C               	iorwf	(___fpclassifyf@e+1)^(0+1280),w,c
  5864   00616C  A4D8               	btfss	status,2,c
  5865   00616E  EFBB  F030         	goto	u5321
  5866   006172  EFBD  F030         	goto	u5320
  5867   006176                     u5321:
  5868   006176  EFDD  F030         	goto	l5564
  5869   00617A                     u5320:
  5870   00617A  90D8               	bcf	status,0,c
  5871   00617C  340D               	rlcf	___fpclassifyf@u^(0+1280),w,c
  5872   00617E  6E07               	movwf	??___fpclassifyf^(0+1280),c
  5873   006180  340E               	rlcf	(___fpclassifyf@u+1)^(0+1280),w,c
  5874   006182  6E08               	movwf	(??___fpclassifyf+1)^(0+1280),c
  5875   006184  340F               	rlcf	(___fpclassifyf@u+2)^(0+1280),w,c
  5876   006186  6E09               	movwf	(??___fpclassifyf+2)^(0+1280),c
  5877   006188  3410               	rlcf	(___fpclassifyf@u+3)^(0+1280),w,c
  5878   00618A  6E0A               	movwf	(??___fpclassifyf+3)^(0+1280),c
  5879   00618C  5007               	movf	??___fpclassifyf^(0+1280),w,c
  5880   00618E  1008               	iorwf	(??___fpclassifyf+1)^(0+1280),w,c
  5881   006190  1009               	iorwf	(??___fpclassifyf+2)^(0+1280),w,c
  5882   006192  100A               	iorwf	(??___fpclassifyf+3)^(0+1280),w,c
  5883   006194  A4D8               	btfss	status,2,c
  5884   006196  EFCF  F030         	goto	u5331
  5885   00619A  EFD1  F030         	goto	u5330
  5886   00619E                     u5331:
  5887   00619E  EFD7  F030         	goto	l5560
  5888   0061A2                     u5330:
  5889   0061A2  0E00               	movlw	0
  5890   0061A4  6E04               	movwf	(?___fpclassifyf+1)^(0+1280),c
  5891   0061A6  0E02               	movlw	2
  5892   0061A8  6E03               	movwf	?___fpclassifyf^(0+1280),c
  5893   0061AA  EF0C  F031         	goto	l1541
  5894   0061AE                     l5560:
  5895   0061AE  0E00               	movlw	0
  5896   0061B0  6E04               	movwf	(?___fpclassifyf+1)^(0+1280),c
  5897   0061B2  0E03               	movlw	3
  5898   0061B4  6E03               	movwf	?___fpclassifyf^(0+1280),c
  5899   0061B6  EF0C  F031         	goto	l1541
  5900   0061BA                     l5564:
  5901   0061BA  280B               	incf	___fpclassifyf@e^(0+1280),w,c
  5902   0061BC  100C               	iorwf	(___fpclassifyf@e+1)^(0+1280),w,c
  5903   0061BE  A4D8               	btfss	status,2,c
  5904   0061C0  EFE4  F030         	goto	u5341
  5905   0061C4  EFE6  F030         	goto	u5340
  5906   0061C8                     u5341:
  5907   0061C8  EF08  F031         	goto	l5570
  5908   0061CC                     u5340:
  5909   0061CC  C50D  F507         	movff	___fpclassifyf@u,??___fpclassifyf
  5910   0061D0  C50E  F508         	movff	___fpclassifyf@u+1,??___fpclassifyf+1
  5911   0061D4  C50F  F509         	movff	___fpclassifyf@u+2,??___fpclassifyf+2
  5912   0061D8  C510  F50A         	movff	___fpclassifyf@u+3,??___fpclassifyf+3
  5913   0061DC  0E09               	movlw	9
  5914   0061DE                     u5355:
  5915   0061DE  90D8               	bcf	status,0,c
  5916   0061E0  3607               	rlcf	??___fpclassifyf^(0+1280),f,c
  5917   0061E2  3608               	rlcf	(??___fpclassifyf+1)^(0+1280),f,c
  5918   0061E4  3609               	rlcf	(??___fpclassifyf+2)^(0+1280),f,c
  5919   0061E6  360A               	rlcf	(??___fpclassifyf+3)^(0+1280),f,c
  5920   0061E8  2EE8               	decfsz	wreg,f,c
  5921   0061EA  EFEF  F030         	goto	u5355
  5922   0061EE  5007               	movf	??___fpclassifyf^(0+1280),w,c
  5923   0061F0  1008               	iorwf	(??___fpclassifyf+1)^(0+1280),w,c
  5924   0061F2  1009               	iorwf	(??___fpclassifyf+2)^(0+1280),w,c
  5925   0061F4  100A               	iorwf	(??___fpclassifyf+3)^(0+1280),w,c
  5926   0061F6  B4D8               	btfsc	status,2,c
  5927   0061F8  EF00  F031         	goto	u5361
  5928   0061FC  EF03  F031         	goto	u5360
  5929   006200                     u5361:
  5930   006200  0E01               	movlw	1
  5931   006202  EF04  F031         	goto	u5370
  5932   006206                     u5360:
  5933   006206  0E00               	movlw	0
  5934   006208                     u5370:
  5935   006208  6E03               	movwf	?___fpclassifyf^(0+1280),c
  5936   00620A  6A04               	clrf	(?___fpclassifyf+1)^(0+1280),c
  5937   00620C  EF0C  F031         	goto	l1541
  5938   006210                     l5570:
  5939   006210  0E00               	movlw	0
  5940   006212  6E04               	movwf	(?___fpclassifyf+1)^(0+1280),c
  5941   006214  0E04               	movlw	4
  5942   006216  6E03               	movwf	?___fpclassifyf^(0+1280),c
  5943   006218                     l1541:
  5944   006218  0012               	return		;funcret
  5945   00621A                     __end_of___fpclassifyf:
  5946                           	callstack 0
  5947                           
  5948 ;; *************** function ___fltol *****************
  5949 ;; Defined at:
  5950 ;;		line 43 in file "/Applications/microchip/xc8/v2.41/pic/sources/c99/common/fltol.c"
  5951 ;; Parameters:    Size  Location     Type
  5952 ;;  f1              4    2[COMRAM] int 
  5953 ;; Auto vars:     Size  Location     Type
  5954 ;;  exp1            1   11[COMRAM] unsigned char 
  5955 ;;  sign1           1   10[COMRAM] unsigned char 
  5956 ;; Return value:  Size  Location     Type
  5957 ;;                  4    2[COMRAM] long 
  5958 ;; Registers used:
  5959 ;;		wreg, status,2, status,0
  5960 ;; Tracked objects:
  5961 ;;		On entry : 0/0
  5962 ;;		On exit  : 0/0
  5963 ;;		Unchanged: 0/0
  5964 ;; Data sizes:     COMRAM   BANK5   BANK6   BANK7   BANK8   BANK9  BANK10  BANK11  BANK12  BANK13  BANK14  BANK15  BANK1
      +6  BANK17  BANK18  BANK19  BANK20  BANK21  BANK22  BANK23  BANK24  BANK25  BANK26  BANK27  BANK28  BANK29  BANK30  BANK3
      +1  BANK32  BANK33  BANK34  BANK35  BANK36  BANK37  BANK38  BANK39  BANK40  BANK41  BANK42  BANK43  BANK44  BANK45  BANK4
      +6  BANK47  BANK48  BANK49  BANK50  BANK51  BANK52  BANK53  BANK54
  5965 ;;      Params:         4       0       0       0       0       0       0       0       0       0       0       0       
      +0       0       0       0       0       0       0       0       0       0       0       0       0       0       0       
      +0       0       0       0       0       0       0       0       0       0       0       0       0       0       0       
      +0       0       0       0       0       0       0       0       0
  5966 ;;      Locals:         2       0       0       0       0       0       0       0       0       0       0       0       
      +0       0       0       0       0       0       0       0       0       0       0       0       0       0       0       
      +0       0       0       0       0       0       0       0       0       0       0       0       0       0       0       
      +0       0       0       0       0       0       0       0       0
  5967 ;;      Temps:          4       0       0       0       0       0       0       0       0       0       0       0       
      +0       0       0       0       0       0       0       0       0       0       0       0       0       0       0       
      +0       0       0       0       0       0       0       0       0       0       0       0       0       0       0       
      +0       0       0       0       0       0       0       0       0
  5968 ;;      Totals:        10       0       0       0       0       0       0       0       0       0       0       0       
      +0       0       0       0       0       0       0       0       0       0       0       0       0       0       0       
      +0       0       0       0       0       0       0       0       0       0       0       0       0       0       0       
      +0       0       0       0       0       0       0       0       0
  5969 ;;Total ram usage:       10 bytes
  5970 ;; Hardware stack levels used: 1
  5971 ;; Hardware stack levels required when called: 4
  5972 ;; This function calls:
  5973 ;;		Nothing
  5974 ;; This function is called by:
  5975 ;;		_efgtoa
  5976 ;; This function uses a non-reentrant model
  5977 ;;
  5978                           
  5979                           	psect	text35
  5980   005F12                     __ptext35:
  5981                           	callstack 0
  5982   005F12                     ___fltol:
  5983                           	callstack 117
  5984   005F12  3405               	rlcf	(___fltol@f1+2)^(0+1280),w,c
  5985   005F14  3406               	rlcf	(___fltol@f1+3)^(0+1280),w,c
  5986   005F16  6E0C               	movwf	___fltol@exp1^(0+1280),c
  5987   005F18  500C               	movf	___fltol@exp1^(0+1280),w,c
  5988   005F1A  A4D8               	btfss	status,2,c
  5989   005F1C  EF92  F02F         	goto	u5221
  5990   005F20  EF94  F02F         	goto	u5220
  5991   005F24                     u5221:
  5992   005F24  EF9E  F02F         	goto	l5500
  5993   005F28                     u5220:
  5994   005F28                     l5496:
  5995   005F28  0E00               	movlw	0
  5996   005F2A  6E03               	movwf	?___fltol^(0+1280),c
  5997   005F2C  0E00               	movlw	0
  5998   005F2E  6E04               	movwf	(?___fltol+1)^(0+1280),c
  5999   005F30  0E00               	movlw	0
  6000   005F32  6E05               	movwf	(?___fltol+2)^(0+1280),c
  6001   005F34  0E00               	movlw	0
  6002   005F36  6E06               	movwf	(?___fltol+3)^(0+1280),c
  6003   005F38  EF0B  F030         	goto	l1029
  6004   005F3C                     l5500:
  6005   005F3C  C503  F507         	movff	___fltol@f1,??___fltol
  6006   005F40  C504  F508         	movff	___fltol@f1+1,??___fltol+1
  6007   005F44  C505  F509         	movff	___fltol@f1+2,??___fltol+2
  6008   005F48  C506  F50A         	movff	___fltol@f1+3,??___fltol+3
  6009   005F4C  0E20               	movlw	32
  6010   005F4E  EFAE  F02F         	goto	u5230
  6011   005F52                     u5235:
  6012   005F52  90D8               	bcf	status,0,c
  6013   005F54  320A               	rrcf	(??___fltol+3)^(0+1280),f,c
  6014   005F56  3209               	rrcf	(??___fltol+2)^(0+1280),f,c
  6015   005F58  3208               	rrcf	(??___fltol+1)^(0+1280),f,c
  6016   005F5A  3207               	rrcf	??___fltol^(0+1280),f,c
  6017   005F5C                     u5230:
  6018   005F5C  2EE8               	decfsz	wreg,f,c
  6019   005F5E  EFA9  F02F         	goto	u5235
  6020   005F62  5007               	movf	??___fltol^(0+1280),w,c
  6021   005F64  6E0B               	movwf	___fltol@sign1^(0+1280),c
  6022   005F66  8E05               	bsf	(___fltol@f1+2)^(0+1280),7,c
  6023   005F68  0EFF               	movlw	255
  6024   005F6A  1603               	andwf	___fltol@f1^(0+1280),f,c
  6025   005F6C  0EFF               	movlw	255
  6026   005F6E  1604               	andwf	(___fltol@f1+1)^(0+1280),f,c
  6027   005F70  0EFF               	movlw	255
  6028   005F72  1605               	andwf	(___fltol@f1+2)^(0+1280),f,c
  6029   005F74  0E00               	movlw	0
  6030   005F76  1606               	andwf	(___fltol@f1+3)^(0+1280),f,c
  6031   005F78  0E96               	movlw	150
  6032   005F7A  5E0C               	subwf	___fltol@exp1^(0+1280),f,c
  6033   005F7C  BE0C               	btfsc	___fltol@exp1^(0+1280),7,c
  6034   005F7E  EFC5  F02F         	goto	u5240
  6035   005F82  EFC3  F02F         	goto	u5241
  6036   005F86                     u5241:
  6037   005F86  EFDB  F02F         	goto	l5520
  6038   005F8A                     u5240:
  6039   005F8A  500C               	movf	___fltol@exp1^(0+1280),w,c
  6040   005F8C  0A80               	xorlw	128
  6041   005F8E  0F97               	addlw	151
  6042   005F90  B0D8               	btfsc	status,0,c
  6043   005F92  EFCD  F02F         	goto	u5251
  6044   005F96  EFCF  F02F         	goto	u5250
  6045   005F9A                     u5251:
  6046   005F9A  EFD1  F02F         	goto	l5516
  6047   005F9E                     u5250:
  6048   005F9E  EF94  F02F         	goto	l5496
  6049   005FA2                     l5516:
  6050   005FA2  90D8               	bcf	status,0,c
  6051   005FA4  3206               	rrcf	(___fltol@f1+3)^(0+1280),f,c
  6052   005FA6  3205               	rrcf	(___fltol@f1+2)^(0+1280),f,c
  6053   005FA8  3204               	rrcf	(___fltol@f1+1)^(0+1280),f,c
  6054   005FAA  3203               	rrcf	___fltol@f1^(0+1280),f,c
  6055   005FAC  3E0C               	incfsz	___fltol@exp1^(0+1280),f,c
  6056   005FAE  EFD1  F02F         	goto	l5516
  6057   005FB2  EFF3  F02F         	goto	l5530
  6058   005FB6                     l5520:
  6059   005FB6  0E1F               	movlw	31
  6060   005FB8  640C               	cpfsgt	___fltol@exp1^(0+1280),c
  6061   005FBA  EFE1  F02F         	goto	u5261
  6062   005FBE  EFE3  F02F         	goto	u5260
  6063   005FC2                     u5261:
  6064   005FC2  EFEB  F02F         	goto	l5528
  6065   005FC6                     u5260:
  6066   005FC6  EF94  F02F         	goto	l5496
  6067   005FCA                     l5526:
  6068   005FCA  90D8               	bcf	status,0,c
  6069   005FCC  3603               	rlcf	___fltol@f1^(0+1280),f,c
  6070   005FCE  3604               	rlcf	(___fltol@f1+1)^(0+1280),f,c
  6071   005FD0  3605               	rlcf	(___fltol@f1+2)^(0+1280),f,c
  6072   005FD2  3606               	rlcf	(___fltol@f1+3)^(0+1280),f,c
  6073   005FD4  060C               	decf	___fltol@exp1^(0+1280),f,c
  6074   005FD6                     l5528:
  6075   005FD6  500C               	movf	___fltol@exp1^(0+1280),w,c
  6076   005FD8  A4D8               	btfss	status,2,c
  6077   005FDA  EFF1  F02F         	goto	u5271
  6078   005FDE  EFF3  F02F         	goto	u5270
  6079   005FE2                     u5271:
  6080   005FE2  EFE5  F02F         	goto	l5526
  6081   005FE6                     u5270:
  6082   005FE6                     l5530:
  6083   005FE6  500B               	movf	___fltol@sign1^(0+1280),w,c
  6084   005FE8  B4D8               	btfsc	status,2,c
  6085   005FEA  EFF9  F02F         	goto	u5281
  6086   005FEE  EFFB  F02F         	goto	u5280
  6087   005FF2                     u5281:
  6088   005FF2  EF03  F030         	goto	l5534
  6089   005FF6                     u5280:
  6090   005FF6  1E06               	comf	(___fltol@f1+3)^(0+1280),f,c
  6091   005FF8  1E05               	comf	(___fltol@f1+2)^(0+1280),f,c
  6092   005FFA  1E04               	comf	(___fltol@f1+1)^(0+1280),f,c
  6093   005FFC  6C03               	negf	___fltol@f1^(0+1280),c
  6094   005FFE  0E00               	movlw	0
  6095   006000  2204               	addwfc	(___fltol@f1+1)^(0+1280),f,c
  6096   006002  2205               	addwfc	(___fltol@f1+2)^(0+1280),f,c
  6097   006004  2206               	addwfc	(___fltol@f1+3)^(0+1280),f,c
  6098   006006                     l5534:
  6099   006006  C503  F503         	movff	___fltol@f1,?___fltol
  6100   00600A  C504  F504         	movff	___fltol@f1+1,?___fltol+1
  6101   00600E  C505  F505         	movff	___fltol@f1+2,?___fltol+2
  6102   006012  C506  F506         	movff	___fltol@f1+3,?___fltol+3
  6103   006016                     l1029:
  6104   006016  0012               	return		;funcret
  6105   006018                     __end_of___fltol:
  6106                           	callstack 0
  6107                           
  6108 ;; *************** function ___flsub *****************
  6109 ;; Defined at:
  6110 ;;		line 245 in file "/Applications/microchip/xc8/v2.41/pic/sources/c99/common/sprcadd.c"
  6111 ;; Parameters:    Size  Location     Type
  6112 ;;  b               4   43[COMRAM] long 
  6113 ;;  a               4   47[COMRAM] long 
  6114 ;; Auto vars:     Size  Location     Type
  6115 ;;		None
  6116 ;; Return value:  Size  Location     Type
  6117 ;;                  4   43[COMRAM] long 
  6118 ;; Registers used:
  6119 ;;		wreg, status,2, status,0, cstack
  6120 ;; Tracked objects:
  6121 ;;		On entry : 0/0
  6122 ;;		On exit  : 0/0
  6123 ;;		Unchanged: 0/0
  6124 ;; Data sizes:     COMRAM   BANK5   BANK6   BANK7   BANK8   BANK9  BANK10  BANK11  BANK12  BANK13  BANK14  BANK15  BANK1
      +6  BANK17  BANK18  BANK19  BANK20  BANK21  BANK22  BANK23  BANK24  BANK25  BANK26  BANK27  BANK28  BANK29  BANK30  BANK3
      +1  BANK32  BANK33  BANK34  BANK35  BANK36  BANK37  BANK38  BANK39  BANK40  BANK41  BANK42  BANK43  BANK44  BANK45  BANK4
      +6  BANK47  BANK48  BANK49  BANK50  BANK51  BANK52  BANK53  BANK54
  6125 ;;      Params:         8       0       0       0       0       0       0       0       0       0       0       0       
      +0       0       0       0       0       0       0       0       0       0       0       0       0       0       0       
      +0       0       0       0       0       0       0       0       0       0       0       0       0       0       0       
      +0       0       0       0       0       0       0       0       0
  6126 ;;      Locals:         0       0       0       0       0       0       0       0       0       0       0       0       
      +0       0       0       0       0       0       0       0       0       0       0       0       0       0       0       
      +0       0       0       0       0       0       0       0       0       0       0       0       0       0       0       
      +0       0       0       0       0       0       0       0       0
  6127 ;;      Temps:          0       0       0       0       0       0       0       0       0       0       0       0       
      +0       0       0       0       0       0       0       0       0       0       0       0       0       0       0       
      +0       0       0       0       0       0       0       0       0       0       0       0       0       0       0       
      +0       0       0       0       0       0       0       0       0
  6128 ;;      Totals:         8       0       0       0       0       0       0       0       0       0       0       0       
      +0       0       0       0       0       0       0       0       0       0       0       0       0       0       0       
      +0       0       0       0       0       0       0       0       0       0       0       0       0       0       0       
      +0       0       0       0       0       0       0       0       0
  6129 ;;Total ram usage:        8 bytes
  6130 ;; Hardware stack levels used: 1
  6131 ;; Hardware stack levels required when called: 5
  6132 ;; This function calls:
  6133 ;;		___fladd
  6134 ;; This function is called by:
  6135 ;;		_efgtoa
  6136 ;; This function uses a non-reentrant model
  6137 ;;
  6138                           
  6139                           	psect	text36
  6140   006B2C                     __ptext36:
  6141                           	callstack 0
  6142   006B2C                     ___flsub:
  6143                           	callstack 116
  6144   006B2C  0E00               	movlw	0
  6145   006B2E  1A30               	xorwf	___flsub@a^(0+1280),f,c
  6146   006B30  0E00               	movlw	0
  6147   006B32  1A31               	xorwf	(___flsub@a+1)^(0+1280),f,c
  6148   006B34  0E00               	movlw	0
  6149   006B36  1A32               	xorwf	(___flsub@a+2)^(0+1280),f,c
  6150   006B38  0E80               	movlw	128
  6151   006B3A  1A33               	xorwf	(___flsub@a+3)^(0+1280),f,c
  6152   006B3C  C52C  F51C         	movff	___flsub@b,___fladd@b
  6153   006B40  C52D  F51D         	movff	___flsub@b+1,___fladd@b+1
  6154   006B44  C52E  F51E         	movff	___flsub@b+2,___fladd@b+2
  6155   006B48  C52F  F51F         	movff	___flsub@b+3,___fladd@b+3
  6156   006B4C  C530  F520         	movff	___flsub@a,___fladd@a
  6157   006B50  C531  F521         	movff	___flsub@a+1,___fladd@a+1
  6158   006B54  C532  F522         	movff	___flsub@a+2,___fladd@a+2
  6159   006B58  C533  F523         	movff	___flsub@a+3,___fladd@a+3
  6160   006B5C  EC48  F025         	call	___fladd	;wreg free
  6161   006B60  C51C  F52C         	movff	?___fladd,?___flsub
  6162   006B64  C51D  F52D         	movff	?___fladd+1,?___flsub+1
  6163   006B68  C51E  F52E         	movff	?___fladd+2,?___flsub+2
  6164   006B6C  C51F  F52F         	movff	?___fladd+3,?___flsub+3
  6165   006B70  0012               	return		;funcret
  6166   006B72                     __end_of___flsub:
  6167                           	callstack 0
  6168                           
  6169 ;; *************** function ___fladd *****************
  6170 ;; Defined at:
  6171 ;;		line 10 in file "/Applications/microchip/xc8/v2.41/pic/sources/c99/common/sprcadd.c"
  6172 ;; Parameters:    Size  Location     Type
  6173 ;;  b               4   27[COMRAM] long 
  6174 ;;  a               4   31[COMRAM] long 
  6175 ;; Auto vars:     Size  Location     Type
  6176 ;;  grs             1   42[COMRAM] unsigned char 
  6177 ;;  bexp            1   41[COMRAM] unsigned char 
  6178 ;;  aexp            1   40[COMRAM] unsigned char 
  6179 ;;  signs           1   39[COMRAM] unsigned char 
  6180 ;; Return value:  Size  Location     Type
  6181 ;;                  4   27[COMRAM] unsigned char 
  6182 ;; Registers used:
  6183 ;;		wreg, status,2, status,0
  6184 ;; Tracked objects:
  6185 ;;		On entry : 0/0
  6186 ;;		On exit  : 0/0
  6187 ;;		Unchanged: 0/0
  6188 ;; Data sizes:     COMRAM   BANK5   BANK6   BANK7   BANK8   BANK9  BANK10  BANK11  BANK12  BANK13  BANK14  BANK15  BANK1
      +6  BANK17  BANK18  BANK19  BANK20  BANK21  BANK22  BANK23  BANK24  BANK25  BANK26  BANK27  BANK28  BANK29  BANK30  BANK3
      +1  BANK32  BANK33  BANK34  BANK35  BANK36  BANK37  BANK38  BANK39  BANK40  BANK41  BANK42  BANK43  BANK44  BANK45  BANK4
      +6  BANK47  BANK48  BANK49  BANK50  BANK51  BANK52  BANK53  BANK54
  6189 ;;      Params:         8       0       0       0       0       0       0       0       0       0       0       0       
      +0       0       0       0       0       0       0       0       0       0       0       0       0       0       0       
      +0       0       0       0       0       0       0       0       0       0       0       0       0       0       0       
      +0       0       0       0       0       0       0       0       0
  6190 ;;      Locals:         4       0       0       0       0       0       0       0       0       0       0       0       
      +0       0       0       0       0       0       0       0       0       0       0       0       0       0       0       
      +0       0       0       0       0       0       0       0       0       0       0       0       0       0       0       
      +0       0       0       0       0       0       0       0       0
  6191 ;;      Temps:          4       0       0       0       0       0       0       0       0       0       0       0       
      +0       0       0       0       0       0       0       0       0       0       0       0       0       0       0       
      +0       0       0       0       0       0       0       0       0       0       0       0       0       0       0       
      +0       0       0       0       0       0       0       0       0
  6192 ;;      Totals:        16       0       0       0       0       0       0       0       0       0       0       0       
      +0       0       0       0       0       0       0       0       0       0       0       0       0       0       0       
      +0       0       0       0       0       0       0       0       0       0       0       0       0       0       0       
      +0       0       0       0       0       0       0       0       0
  6193 ;;Total ram usage:       16 bytes
  6194 ;; Hardware stack levels used: 1
  6195 ;; Hardware stack levels required when called: 4
  6196 ;; This function calls:
  6197 ;;		Nothing
  6198 ;; This function is called by:
  6199 ;;		_ADC_Temp_routine
  6200 ;;		___flsub
  6201 ;;		_efgtoa
  6202 ;; This function uses a non-reentrant model
  6203 ;;
  6204                           
  6205                           	psect	text37
  6206   004A90                     __ptext37:
  6207                           	callstack 0
  6208   004A90                     ___fladd:
  6209                           	callstack 116
  6210   004A90  501F               	movf	(___fladd@b+3)^(0+1280),w,c
  6211   004A92  0B80               	andlw	128
  6212   004A94  6E28               	movwf	___fladd@signs^(0+1280),c
  6213   004A96  501F               	movf	(___fladd@b+3)^(0+1280),w,c
  6214   004A98  241F               	addwf	(___fladd@b+3)^(0+1280),w,c
  6215   004A9A  6E2A               	movwf	___fladd@bexp^(0+1280),c
  6216   004A9C  AE1E               	btfss	(___fladd@b+2)^(0+1280),7,c
  6217   004A9E  EF53  F025         	goto	u4311
  6218   004AA2  EF55  F025         	goto	u4310
  6219   004AA6                     u4311:
  6220   004AA6  EF56  F025         	goto	l4964
  6221   004AAA                     u4310:
  6222   004AAA  802A               	bsf	___fladd@bexp^(0+1280),0,c
  6223   004AAC                     l4964:
  6224   004AAC  502A               	movf	___fladd@bexp^(0+1280),w,c
  6225   004AAE  B4D8               	btfsc	status,2,c
  6226   004AB0  EF5C  F025         	goto	u4321
  6227   004AB4  EF5E  F025         	goto	u4320
  6228   004AB8                     u4321:
  6229   004AB8  EF73  F025         	goto	l4974
  6230   004ABC                     u4320:
  6231   004ABC  282A               	incf	___fladd@bexp^(0+1280),w,c
  6232   004ABE  A4D8               	btfss	status,2,c
  6233   004AC0  EF64  F025         	goto	u4331
  6234   004AC4  EF66  F025         	goto	u4330
  6235   004AC8                     u4331:
  6236   004AC8  EF6E  F025         	goto	l4970
  6237   004ACC                     u4330:
  6238   004ACC  0E00               	movlw	0
  6239   004ACE  6E1C               	movwf	___fladd@b^(0+1280),c
  6240   004AD0  0E00               	movlw	0
  6241   004AD2  6E1D               	movwf	(___fladd@b+1)^(0+1280),c
  6242   004AD4  0E00               	movlw	0
  6243   004AD6  6E1E               	movwf	(___fladd@b+2)^(0+1280),c
  6244   004AD8  0E00               	movlw	0
  6245   004ADA  6E1F               	movwf	(___fladd@b+3)^(0+1280),c
  6246   004ADC                     l4970:
  6247   004ADC  8E1E               	bsf	(___fladd@b+2)^(0+1280),7,c
  6248   004ADE  0E00               	movlw	0
  6249   004AE0  6E1F               	movwf	(___fladd@b+3)^(0+1280),c
  6250   004AE2  EF7B  F025         	goto	l4976
  6251   004AE6                     l4974:
  6252   004AE6  0E00               	movlw	0
  6253   004AE8  6E1C               	movwf	___fladd@b^(0+1280),c
  6254   004AEA  0E00               	movlw	0
  6255   004AEC  6E1D               	movwf	(___fladd@b+1)^(0+1280),c
  6256   004AEE  0E00               	movlw	0
  6257   004AF0  6E1E               	movwf	(___fladd@b+2)^(0+1280),c
  6258   004AF2  0E00               	movlw	0
  6259   004AF4  6E1F               	movwf	(___fladd@b+3)^(0+1280),c
  6260   004AF6                     l4976:
  6261   004AF6  5023               	movf	(___fladd@a+3)^(0+1280),w,c
  6262   004AF8  0B80               	andlw	128
  6263   004AFA  6E29               	movwf	___fladd@aexp^(0+1280),c
  6264   004AFC  5028               	movf	___fladd@signs^(0+1280),w,c
  6265   004AFE  1829               	xorwf	___fladd@aexp^(0+1280),w,c
  6266   004B00  B4D8               	btfsc	status,2,c
  6267   004B02  EF85  F025         	goto	u4341
  6268   004B06  EF87  F025         	goto	u4340
  6269   004B0A                     u4341:
  6270   004B0A  EF88  F025         	goto	l4982
  6271   004B0E                     u4340:
  6272   004B0E  8C28               	bsf	___fladd@signs^(0+1280),6,c
  6273   004B10                     l4982:
  6274   004B10  5023               	movf	(___fladd@a+3)^(0+1280),w,c
  6275   004B12  2423               	addwf	(___fladd@a+3)^(0+1280),w,c
  6276   004B14  6E29               	movwf	___fladd@aexp^(0+1280),c
  6277   004B16  AE22               	btfss	(___fladd@a+2)^(0+1280),7,c
  6278   004B18  EF90  F025         	goto	u4351
  6279   004B1C  EF92  F025         	goto	u4350
  6280   004B20                     u4351:
  6281   004B20  EF93  F025         	goto	l4988
  6282   004B24                     u4350:
  6283   004B24  8029               	bsf	___fladd@aexp^(0+1280),0,c
  6284   004B26                     l4988:
  6285   004B26  5029               	movf	___fladd@aexp^(0+1280),w,c
  6286   004B28  B4D8               	btfsc	status,2,c
  6287   004B2A  EF99  F025         	goto	u4361
  6288   004B2E  EF9B  F025         	goto	u4360
  6289   004B32                     u4361:
  6290   004B32  EFB0  F025         	goto	l4998
  6291   004B36                     u4360:
  6292   004B36  2829               	incf	___fladd@aexp^(0+1280),w,c
  6293   004B38  A4D8               	btfss	status,2,c
  6294   004B3A  EFA1  F025         	goto	u4371
  6295   004B3E  EFA3  F025         	goto	u4370
  6296   004B42                     u4371:
  6297   004B42  EFAB  F025         	goto	l4994
  6298   004B46                     u4370:
  6299   004B46  0E00               	movlw	0
  6300   004B48  6E20               	movwf	___fladd@a^(0+1280),c
  6301   004B4A  0E00               	movlw	0
  6302   004B4C  6E21               	movwf	(___fladd@a+1)^(0+1280),c
  6303   004B4E  0E00               	movlw	0
  6304   004B50  6E22               	movwf	(___fladd@a+2)^(0+1280),c
  6305   004B52  0E00               	movlw	0
  6306   004B54  6E23               	movwf	(___fladd@a+3)^(0+1280),c
  6307   004B56                     l4994:
  6308   004B56  8E22               	bsf	(___fladd@a+2)^(0+1280),7,c
  6309   004B58  0E00               	movlw	0
  6310   004B5A  6E23               	movwf	(___fladd@a+3)^(0+1280),c
  6311   004B5C  EFB8  F025         	goto	l5000
  6312   004B60                     l4998:
  6313   004B60  0E00               	movlw	0
  6314   004B62  6E20               	movwf	___fladd@a^(0+1280),c
  6315   004B64  0E00               	movlw	0
  6316   004B66  6E21               	movwf	(___fladd@a+1)^(0+1280),c
  6317   004B68  0E00               	movlw	0
  6318   004B6A  6E22               	movwf	(___fladd@a+2)^(0+1280),c
  6319   004B6C  0E00               	movlw	0
  6320   004B6E  6E23               	movwf	(___fladd@a+3)^(0+1280),c
  6321   004B70                     l5000:
  6322   004B70  502A               	movf	___fladd@bexp^(0+1280),w,c
  6323   004B72  5C29               	subwf	___fladd@aexp^(0+1280),w,c
  6324   004B74  B0D8               	btfsc	status,0,c
  6325   004B76  EFBF  F025         	goto	u4381
  6326   004B7A  EFC1  F025         	goto	u4380
  6327   004B7E                     u4381:
  6328   004B7E  EFE8  F025         	goto	l5036
  6329   004B82                     u4380:
  6330   004B82  AC28               	btfss	___fladd@signs^(0+1280),6,c
  6331   004B84  EFC6  F025         	goto	u4391
  6332   004B88  EFC8  F025         	goto	u4390
  6333   004B8C                     u4391:
  6334   004B8C  EFCA  F025         	goto	l5006
  6335   004B90                     u4390:
  6336   004B90  0E80               	movlw	128
  6337   004B92  1A28               	xorwf	___fladd@signs^(0+1280),f,c
  6338   004B94                     l5006:
  6339   004B94  C52A  F52B         	movff	___fladd@bexp,___fladd@grs
  6340   004B98  C529  F52A         	movff	___fladd@aexp,___fladd@bexp
  6341   004B9C  C52B  F529         	movff	___fladd@grs,___fladd@aexp
  6342   004BA0  C51C  F52B         	movff	___fladd@b,___fladd@grs
  6343   004BA4  C520  F51C         	movff	___fladd@a,___fladd@b
  6344   004BA8  C52B  F520         	movff	___fladd@grs,___fladd@a
  6345   004BAC  C51D  F52B         	movff	___fladd@b+1,___fladd@grs
  6346   004BB0  C521  F51D         	movff	___fladd@a+1,___fladd@b+1
  6347   004BB4  C52B  F521         	movff	___fladd@grs,___fladd@a+1
  6348   004BB8  C51E  F52B         	movff	___fladd@b+2,___fladd@grs
  6349   004BBC  C522  F51E         	movff	___fladd@a+2,___fladd@b+2
  6350   004BC0  C52B  F522         	movff	___fladd@grs,___fladd@a+2
  6351   004BC4  C51F  F52B         	movff	___fladd@b+3,___fladd@grs
  6352   004BC8  C523  F51F         	movff	___fladd@a+3,___fladd@b+3
  6353   004BCC  C52B  F523         	movff	___fladd@grs,___fladd@a+3
  6354   004BD0                     l5036:
  6355   004BD0  0E00               	movlw	0
  6356   004BD2  6E2B               	movwf	___fladd@grs^(0+1280),c
  6357   004BD4  502A               	movf	___fladd@bexp^(0+1280),w,c
  6358   004BD6  C529  F524         	movff	___fladd@aexp,??___fladd
  6359   004BDA  6A25               	clrf	(??___fladd+1)^(0+1280),c
  6360   004BDC  5E24               	subwf	??___fladd^(0+1280),f,c
  6361   004BDE  0E00               	movlw	0
  6362   004BE0  5A25               	subwfb	(??___fladd+1)^(0+1280),f,c
  6363   004BE2  BE25               	btfsc	(??___fladd+1)^(0+1280),7,c
  6364   004BE4  EFFD  F025         	goto	u4401
  6365   004BE8  5025               	movf	(??___fladd+1)^(0+1280),w,c
  6366   004BEA  E109               	bnz	u4400
  6367   004BEC  0E1A               	movlw	26
  6368   004BEE  5C24               	subwf	??___fladd^(0+1280),w,c
  6369   004BF0  A0D8               	btfss	status,0,c
  6370   004BF2  EFFD  F025         	goto	u4401
  6371   004BF6  EFFF  F025         	goto	u4400
  6372   004BFA                     u4401:
  6373   004BFA  EF36  F026         	goto	l1261
  6374   004BFE                     u4400:
  6375   004BFE  501C               	movf	___fladd@b^(0+1280),w,c
  6376   004C00  101D               	iorwf	(___fladd@b+1)^(0+1280),w,c
  6377   004C02  101E               	iorwf	(___fladd@b+2)^(0+1280),w,c
  6378   004C04  101F               	iorwf	(___fladd@b+3)^(0+1280),w,c
  6379   004C06  A4D8               	btfss	status,2,c
  6380   004C08  EF08  F026         	goto	u4411
  6381   004C0C  EF0B  F026         	goto	u4410
  6382   004C10                     u4411:
  6383   004C10  0E01               	movlw	1
  6384   004C12  EF0C  F026         	goto	u4420
  6385   004C16                     u4410:
  6386   004C16  0E00               	movlw	0
  6387   004C18                     u4420:
  6388   004C18  6E2B               	movwf	___fladd@grs^(0+1280),c
  6389   004C1A  0E00               	movlw	0
  6390   004C1C  6E1C               	movwf	___fladd@b^(0+1280),c
  6391   004C1E  0E00               	movlw	0
  6392   004C20  6E1D               	movwf	(___fladd@b+1)^(0+1280),c
  6393   004C22  0E00               	movlw	0
  6394   004C24  6E1E               	movwf	(___fladd@b+2)^(0+1280),c
  6395   004C26  0E00               	movlw	0
  6396   004C28  6E1F               	movwf	(___fladd@b+3)^(0+1280),c
  6397   004C2A  C529  F52A         	movff	___fladd@aexp,___fladd@bexp
  6398   004C2E  EF3F  F026         	goto	l1260
  6399   004C32                     l1262:
  6400   004C32  A02B               	btfss	___fladd@grs^(0+1280),0,c
  6401   004C34  EF1E  F026         	goto	u4431
  6402   004C38  EF20  F026         	goto	u4430
  6403   004C3C                     u4431:
  6404   004C3C  EF26  F026         	goto	l5048
  6405   004C40                     u4430:
  6406   004C40  90D8               	bcf	status,0,c
  6407   004C42  302B               	rrcf	___fladd@grs^(0+1280),w,c
  6408   004C44  0901               	iorlw	1
  6409   004C46  6E2B               	movwf	___fladd@grs^(0+1280),c
  6410   004C48  EF28  F026         	goto	l5050
  6411   004C4C                     l5048:
  6412   004C4C  90D8               	bcf	status,0,c
  6413   004C4E  322B               	rrcf	___fladd@grs^(0+1280),f,c
  6414   004C50                     l5050:
  6415   004C50  A01C               	btfss	___fladd@b^(0+1280),0,c
  6416   004C52  EF2D  F026         	goto	u4441
  6417   004C56  EF2F  F026         	goto	u4440
  6418   004C5A                     u4441:
  6419   004C5A  EF30  F026         	goto	l5054
  6420   004C5E                     u4440:
  6421   004C5E  8E2B               	bsf	___fladd@grs^(0+1280),7,c
  6422   004C60                     l5054:
  6423   004C60  341F               	rlcf	(___fladd@b+3)^(0+1280),w,c
  6424   004C62  321F               	rrcf	(___fladd@b+3)^(0+1280),f,c
  6425   004C64  321E               	rrcf	(___fladd@b+2)^(0+1280),f,c
  6426   004C66  321D               	rrcf	(___fladd@b+1)^(0+1280),f,c
  6427   004C68  321C               	rrcf	___fladd@b^(0+1280),f,c
  6428   004C6A  2A2A               	incf	___fladd@bexp^(0+1280),f,c
  6429   004C6C                     l1261:
  6430   004C6C  5029               	movf	___fladd@aexp^(0+1280),w,c
  6431   004C6E  5C2A               	subwf	___fladd@bexp^(0+1280),w,c
  6432   004C70  A0D8               	btfss	status,0,c
  6433   004C72  EF3D  F026         	goto	u4451
  6434   004C76  EF3F  F026         	goto	u4450
  6435   004C7A                     u4451:
  6436   004C7A  EF19  F026         	goto	l1262
  6437   004C7E                     u4450:
  6438   004C7E                     l1260:
  6439   004C7E  BC28               	btfsc	___fladd@signs^(0+1280),6,c
  6440   004C80  EF44  F026         	goto	u4461
  6441   004C84  EF46  F026         	goto	u4460
  6442   004C88                     u4461:
  6443   004C88  EF86  F026         	goto	l5082
  6444   004C8C                     u4460:
  6445   004C8C  502A               	movf	___fladd@bexp^(0+1280),w,c
  6446   004C8E  A4D8               	btfss	status,2,c
  6447   004C90  EF4C  F026         	goto	u4471
  6448   004C94  EF4E  F026         	goto	u4470
  6449   004C98                     u4471:
  6450   004C98  EF58  F026         	goto	l5064
  6451   004C9C                     u4470:
  6452   004C9C  0E00               	movlw	0
  6453   004C9E  6E1C               	movwf	?___fladd^(0+1280),c
  6454   004CA0  0E00               	movlw	0
  6455   004CA2  6E1D               	movwf	(?___fladd+1)^(0+1280),c
  6456   004CA4  0E00               	movlw	0
  6457   004CA6  6E1E               	movwf	(?___fladd+2)^(0+1280),c
  6458   004CA8  0E00               	movlw	0
  6459   004CAA  6E1F               	movwf	(?___fladd+3)^(0+1280),c
  6460   004CAC  EFA7  F027         	goto	l1269
  6461   004CB0                     l5064:
  6462   004CB0  5020               	movf	___fladd@a^(0+1280),w,c
  6463   004CB2  261C               	addwf	___fladd@b^(0+1280),f,c
  6464   004CB4  5021               	movf	(___fladd@a+1)^(0+1280),w,c
  6465   004CB6  221D               	addwfc	(___fladd@b+1)^(0+1280),f,c
  6466   004CB8  5022               	movf	(___fladd@a+2)^(0+1280),w,c
  6467   004CBA  221E               	addwfc	(___fladd@b+2)^(0+1280),f,c
  6468   004CBC  5023               	movf	(___fladd@a+3)^(0+1280),w,c
  6469   004CBE  221F               	addwfc	(___fladd@b+3)^(0+1280),f,c
  6470   004CC0  A01F               	btfss	(___fladd@b+3)^(0+1280),0,c
  6471   004CC2  EF65  F026         	goto	u4481
  6472   004CC6  EF67  F026         	goto	u4480
  6473   004CCA                     u4481:
  6474   004CCA  EF13  F027         	goto	l5118
  6475   004CCE                     u4480:
  6476   004CCE  A02B               	btfss	___fladd@grs^(0+1280),0,c
  6477   004CD0  EF6C  F026         	goto	u4491
  6478   004CD4  EF6E  F026         	goto	u4490
  6479   004CD8                     u4491:
  6480   004CD8  EF74  F026         	goto	l5072
  6481   004CDC                     u4490:
  6482   004CDC  90D8               	bcf	status,0,c
  6483   004CDE  302B               	rrcf	___fladd@grs^(0+1280),w,c
  6484   004CE0  0901               	iorlw	1
  6485   004CE2  6E2B               	movwf	___fladd@grs^(0+1280),c
  6486   004CE4  EF76  F026         	goto	l5074
  6487   004CE8                     l5072:
  6488   004CE8  90D8               	bcf	status,0,c
  6489   004CEA  322B               	rrcf	___fladd@grs^(0+1280),f,c
  6490   004CEC                     l5074:
  6491   004CEC  A01C               	btfss	___fladd@b^(0+1280),0,c
  6492   004CEE  EF7B  F026         	goto	u4501
  6493   004CF2  EF7D  F026         	goto	u4500
  6494   004CF6                     u4501:
  6495   004CF6  EF7E  F026         	goto	l5078
  6496   004CFA                     u4500:
  6497   004CFA  8E2B               	bsf	___fladd@grs^(0+1280),7,c
  6498   004CFC                     l5078:
  6499   004CFC  341F               	rlcf	(___fladd@b+3)^(0+1280),w,c
  6500   004CFE  321F               	rrcf	(___fladd@b+3)^(0+1280),f,c
  6501   004D00  321E               	rrcf	(___fladd@b+2)^(0+1280),f,c
  6502   004D02  321D               	rrcf	(___fladd@b+1)^(0+1280),f,c
  6503   004D04  321C               	rrcf	___fladd@b^(0+1280),f,c
  6504   004D06  2A2A               	incf	___fladd@bexp^(0+1280),f,c
  6505   004D08  EF13  F027         	goto	l5118
  6506   004D0C                     l5082:
  6507   004D0C  5020               	movf	___fladd@a^(0+1280),w,c
  6508   004D0E  5C1C               	subwf	___fladd@b^(0+1280),w,c
  6509   004D10  5021               	movf	(___fladd@a+1)^(0+1280),w,c
  6510   004D12  581D               	subwfb	(___fladd@b+1)^(0+1280),w,c
  6511   004D14  5022               	movf	(___fladd@a+2)^(0+1280),w,c
  6512   004D16  581E               	subwfb	(___fladd@b+2)^(0+1280),w,c
  6513   004D18  501F               	movf	(___fladd@b+3)^(0+1280),w,c
  6514   004D1A  0A80               	xorlw	128
  6515   004D1C  6E24               	movwf	??___fladd^(0+1280),c
  6516   004D1E  5023               	movf	(___fladd@a+3)^(0+1280),w,c
  6517   004D20  0A80               	xorlw	128
  6518   004D22  5824               	subwfb	??___fladd^(0+1280),w,c
  6519   004D24  B0D8               	btfsc	status,0,c
  6520   004D26  EF97  F026         	goto	u4511
  6521   004D2A  EF99  F026         	goto	u4510
  6522   004D2E                     u4511:
  6523   004D2E  EFC4  F026         	goto	l5092
  6524   004D32                     u4510:
  6525   004D32  501C               	movf	___fladd@b^(0+1280),w,c
  6526   004D34  5C20               	subwf	___fladd@a^(0+1280),w,c
  6527   004D36  6E24               	movwf	??___fladd^(0+1280),c
  6528   004D38  501D               	movf	(___fladd@b+1)^(0+1280),w,c
  6529   004D3A  5821               	subwfb	(___fladd@a+1)^(0+1280),w,c
  6530   004D3C  6E25               	movwf	(??___fladd+1)^(0+1280),c
  6531   004D3E  501E               	movf	(___fladd@b+2)^(0+1280),w,c
  6532   004D40  5822               	subwfb	(___fladd@a+2)^(0+1280),w,c
  6533   004D42  6E26               	movwf	(??___fladd+2)^(0+1280),c
  6534   004D44  501F               	movf	(___fladd@b+3)^(0+1280),w,c
  6535   004D46  5823               	subwfb	(___fladd@a+3)^(0+1280),w,c
  6536   004D48  6E27               	movwf	(??___fladd+3)^(0+1280),c
  6537   004D4A  0EFF               	movlw	255
  6538   004D4C  2424               	addwf	??___fladd^(0+1280),w,c
  6539   004D4E  6E1C               	movwf	___fladd@b^(0+1280),c
  6540   004D50  0EFF               	movlw	255
  6541   004D52  2025               	addwfc	(??___fladd+1)^(0+1280),w,c
  6542   004D54  6E1D               	movwf	(___fladd@b+1)^(0+1280),c
  6543   004D56  0EFF               	movlw	255
  6544   004D58  2026               	addwfc	(??___fladd+2)^(0+1280),w,c
  6545   004D5A  6E1E               	movwf	(___fladd@b+2)^(0+1280),c
  6546   004D5C  0EFF               	movlw	255
  6547   004D5E  2027               	addwfc	(??___fladd+3)^(0+1280),w,c
  6548   004D60  6E1F               	movwf	(___fladd@b+3)^(0+1280),c
  6549   004D62  0E80               	movlw	128
  6550   004D64  1A28               	xorwf	___fladd@signs^(0+1280),f,c
  6551   004D66  6C2B               	negf	___fladd@grs^(0+1280),c
  6552   004D68  502B               	movf	___fladd@grs^(0+1280),w,c
  6553   004D6A  A4D8               	btfss	status,2,c
  6554   004D6C  EFBA  F026         	goto	u4521
  6555   004D70  EFBC  F026         	goto	u4520
  6556   004D74                     u4521:
  6557   004D74  EFCC  F026         	goto	l1277
  6558   004D78                     u4520:
  6559   004D78  0E01               	movlw	1
  6560   004D7A  261C               	addwf	___fladd@b^(0+1280),f,c
  6561   004D7C  0E00               	movlw	0
  6562   004D7E  221D               	addwfc	(___fladd@b+1)^(0+1280),f,c
  6563   004D80  221E               	addwfc	(___fladd@b+2)^(0+1280),f,c
  6564   004D82  221F               	addwfc	(___fladd@b+3)^(0+1280),f,c
  6565   004D84  EFCC  F026         	goto	l1277
  6566   004D88                     l5092:
  6567   004D88  5020               	movf	___fladd@a^(0+1280),w,c
  6568   004D8A  5E1C               	subwf	___fladd@b^(0+1280),f,c
  6569   004D8C  5021               	movf	(___fladd@a+1)^(0+1280),w,c
  6570   004D8E  5A1D               	subwfb	(___fladd@b+1)^(0+1280),f,c
  6571   004D90  5022               	movf	(___fladd@a+2)^(0+1280),w,c
  6572   004D92  5A1E               	subwfb	(___fladd@b+2)^(0+1280),f,c
  6573   004D94  5023               	movf	(___fladd@a+3)^(0+1280),w,c
  6574   004D96  5A1F               	subwfb	(___fladd@b+3)^(0+1280),f,c
  6575   004D98                     l1277:
  6576   004D98  501C               	movf	___fladd@b^(0+1280),w,c
  6577   004D9A  101D               	iorwf	(___fladd@b+1)^(0+1280),w,c
  6578   004D9C  101E               	iorwf	(___fladd@b+2)^(0+1280),w,c
  6579   004D9E  101F               	iorwf	(___fladd@b+3)^(0+1280),w,c
  6580   004DA0  A4D8               	btfss	status,2,c
  6581   004DA2  EFD5  F026         	goto	u4531
  6582   004DA6  EFD7  F026         	goto	u4530
  6583   004DAA                     u4531:
  6584   004DAA  EF0C  F027         	goto	l5116
  6585   004DAE                     u4530:
  6586   004DAE  502B               	movf	___fladd@grs^(0+1280),w,c
  6587   004DB0  A4D8               	btfss	status,2,c
  6588   004DB2  EFDD  F026         	goto	u4541
  6589   004DB6  EFDF  F026         	goto	u4540
  6590   004DBA                     u4541:
  6591   004DBA  EF0C  F027         	goto	l5116
  6592   004DBE                     u4540:
  6593   004DBE  0E00               	movlw	0
  6594   004DC0  6E1C               	movwf	?___fladd^(0+1280),c
  6595   004DC2  0E00               	movlw	0
  6596   004DC4  6E1D               	movwf	(?___fladd+1)^(0+1280),c
  6597   004DC6  0E00               	movlw	0
  6598   004DC8  6E1E               	movwf	(?___fladd+2)^(0+1280),c
  6599   004DCA  0E00               	movlw	0
  6600   004DCC  6E1F               	movwf	(?___fladd+3)^(0+1280),c
  6601   004DCE  EFA7  F027         	goto	l1269
  6602   004DD2                     l5100:
  6603   004DD2  90D8               	bcf	status,0,c
  6604   004DD4  361C               	rlcf	___fladd@b^(0+1280),f,c
  6605   004DD6  361D               	rlcf	(___fladd@b+1)^(0+1280),f,c
  6606   004DD8  361E               	rlcf	(___fladd@b+2)^(0+1280),f,c
  6607   004DDA  361F               	rlcf	(___fladd@b+3)^(0+1280),f,c
  6608   004DDC  AE2B               	btfss	___fladd@grs^(0+1280),7,c
  6609   004DDE  EFF3  F026         	goto	u4551
  6610   004DE2  EFF5  F026         	goto	u4550
  6611   004DE6                     u4551:
  6612   004DE6  EFF6  F026         	goto	l5106
  6613   004DEA                     u4550:
  6614   004DEA  801C               	bsf	___fladd@b^(0+1280),0,c
  6615   004DEC                     l5106:
  6616   004DEC  A02B               	btfss	___fladd@grs^(0+1280),0,c
  6617   004DEE  EFFB  F026         	goto	u4561
  6618   004DF2  EFFD  F026         	goto	u4560
  6619   004DF6                     u4561:
  6620   004DF6  EF01  F027         	goto	l5110
  6621   004DFA                     u4560:
  6622   004DFA  80D8               	bsf	status,0,c
  6623   004DFC  362B               	rlcf	___fladd@grs^(0+1280),f,c
  6624   004DFE  EF03  F027         	goto	l5112
  6625   004E02                     l5110:
  6626   004E02  90D8               	bcf	status,0,c
  6627   004E04  362B               	rlcf	___fladd@grs^(0+1280),f,c
  6628   004E06                     l5112:
  6629   004E06  502A               	movf	___fladd@bexp^(0+1280),w,c
  6630   004E08  B4D8               	btfsc	status,2,c
  6631   004E0A  EF09  F027         	goto	u4571
  6632   004E0E  EF0B  F027         	goto	u4570
  6633   004E12                     u4571:
  6634   004E12  EF0C  F027         	goto	l5116
  6635   004E16                     u4570:
  6636   004E16  062A               	decf	___fladd@bexp^(0+1280),f,c
  6637   004E18                     l5116:
  6638   004E18  AE1E               	btfss	(___fladd@b+2)^(0+1280),7,c
  6639   004E1A  EF11  F027         	goto	u4581
  6640   004E1E  EF13  F027         	goto	u4580
  6641   004E22                     u4581:
  6642   004E22  EFE9  F026         	goto	l5100
  6643   004E26                     u4580:
  6644   004E26                     l5118:
  6645   004E26  0E00               	movlw	0
  6646   004E28  6E29               	movwf	___fladd@aexp^(0+1280),c
  6647   004E2A  AE2B               	btfss	___fladd@grs^(0+1280),7,c
  6648   004E2C  EF1A  F027         	goto	u4591
  6649   004E30  EF1C  F027         	goto	u4590
  6650   004E34                     u4591:
  6651   004E34  EF34  F027         	goto	l1286
  6652   004E38                     u4590:
  6653   004E38  C52B  F524         	movff	___fladd@grs,??___fladd
  6654   004E3C  0E7F               	movlw	127
  6655   004E3E  1624               	andwf	??___fladd^(0+1280),f,c
  6656   004E40  B4D8               	btfsc	status,2,c
  6657   004E42  EF25  F027         	goto	u4601
  6658   004E46  EF27  F027         	goto	u4600
  6659   004E4A                     u4601:
  6660   004E4A  EF2B  F027         	goto	l1287
  6661   004E4E                     u4600:
  6662   004E4E                     l5124:
  6663   004E4E  0E01               	movlw	1
  6664   004E50  6E29               	movwf	___fladd@aexp^(0+1280),c
  6665   004E52  EF34  F027         	goto	l1286
  6666   004E56                     l1287:
  6667   004E56  A01C               	btfss	___fladd@b^(0+1280),0,c
  6668   004E58  EF30  F027         	goto	u4611
  6669   004E5C  EF32  F027         	goto	u4610
  6670   004E60                     u4611:
  6671   004E60  EF34  F027         	goto	l1286
  6672   004E64                     u4610:
  6673   004E64  EF27  F027         	goto	l5124
  6674   004E68                     l1286:
  6675   004E68  5029               	movf	___fladd@aexp^(0+1280),w,c
  6676   004E6A  B4D8               	btfsc	status,2,c
  6677   004E6C  EF3A  F027         	goto	u4621
  6678   004E70  EF3C  F027         	goto	u4620
  6679   004E74                     u4621:
  6680   004E74  EF67  F027         	goto	l5136
  6681   004E78                     u4620:
  6682   004E78  0E01               	movlw	1
  6683   004E7A  261C               	addwf	___fladd@b^(0+1280),f,c
  6684   004E7C  0E00               	movlw	0
  6685   004E7E  221D               	addwfc	(___fladd@b+1)^(0+1280),f,c
  6686   004E80  221E               	addwfc	(___fladd@b+2)^(0+1280),f,c
  6687   004E82  221F               	addwfc	(___fladd@b+3)^(0+1280),f,c
  6688   004E84  A01F               	btfss	(___fladd@b+3)^(0+1280),0,c
  6689   004E86  EF47  F027         	goto	u4631
  6690   004E8A  EF49  F027         	goto	u4630
  6691   004E8E                     u4631:
  6692   004E8E  EF67  F027         	goto	l5136
  6693   004E92                     u4630:
  6694   004E92  C51C  F524         	movff	___fladd@b,??___fladd
  6695   004E96  C51D  F525         	movff	___fladd@b+1,??___fladd+1
  6696   004E9A  C51E  F526         	movff	___fladd@b+2,??___fladd+2
  6697   004E9E  C51F  F527         	movff	___fladd@b+3,??___fladd+3
  6698   004EA2  3427               	rlcf	(??___fladd+3)^(0+1280),w,c
  6699   004EA4  3227               	rrcf	(??___fladd+3)^(0+1280),f,c
  6700   004EA6  3226               	rrcf	(??___fladd+2)^(0+1280),f,c
  6701   004EA8  3225               	rrcf	(??___fladd+1)^(0+1280),f,c
  6702   004EAA  3224               	rrcf	??___fladd^(0+1280),f,c
  6703   004EAC  C524  F51C         	movff	??___fladd,___fladd@b
  6704   004EB0  C525  F51D         	movff	??___fladd+1,___fladd@b+1
  6705   004EB4  C526  F51E         	movff	??___fladd+2,___fladd@b+2
  6706   004EB8  C527  F51F         	movff	??___fladd+3,___fladd@b+3
  6707   004EBC  282A               	incf	___fladd@bexp^(0+1280),w,c
  6708   004EBE  B4D8               	btfsc	status,2,c
  6709   004EC0  EF64  F027         	goto	u4641
  6710   004EC4  EF66  F027         	goto	u4640
  6711   004EC8                     u4641:
  6712   004EC8  EF67  F027         	goto	l5136
  6713   004ECC                     u4640:
  6714   004ECC  2A2A               	incf	___fladd@bexp^(0+1280),f,c
  6715   004ECE                     l5136:
  6716   004ECE  282A               	incf	___fladd@bexp^(0+1280),w,c
  6717   004ED0  B4D8               	btfsc	status,2,c
  6718   004ED2  EF6D  F027         	goto	u4651
  6719   004ED6  EF6F  F027         	goto	u4650
  6720   004EDA                     u4651:
  6721   004EDA  EF77  F027         	goto	l5140
  6722   004EDE                     u4650:
  6723   004EDE  502A               	movf	___fladd@bexp^(0+1280),w,c
  6724   004EE0  A4D8               	btfss	status,2,c
  6725   004EE2  EF75  F027         	goto	u4661
  6726   004EE6  EF77  F027         	goto	u4660
  6727   004EEA                     u4661:
  6728   004EEA  EF89  F027         	goto	l5144
  6729   004EEE                     u4660:
  6730   004EEE                     l5140:
  6731   004EEE  0E00               	movlw	0
  6732   004EF0  6E1C               	movwf	___fladd@b^(0+1280),c
  6733   004EF2  0E00               	movlw	0
  6734   004EF4  6E1D               	movwf	(___fladd@b+1)^(0+1280),c
  6735   004EF6  0E00               	movlw	0
  6736   004EF8  6E1E               	movwf	(___fladd@b+2)^(0+1280),c
  6737   004EFA  0E00               	movlw	0
  6738   004EFC  6E1F               	movwf	(___fladd@b+3)^(0+1280),c
  6739   004EFE  502A               	movf	___fladd@bexp^(0+1280),w,c
  6740   004F00  A4D8               	btfss	status,2,c
  6741   004F02  EF85  F027         	goto	u4671
  6742   004F06  EF87  F027         	goto	u4670
  6743   004F0A                     u4671:
  6744   004F0A  EF89  F027         	goto	l5144
  6745   004F0E                     u4670:
  6746   004F0E  0E00               	movlw	0
  6747   004F10  6E28               	movwf	___fladd@signs^(0+1280),c
  6748   004F12                     l5144:
  6749   004F12  A02A               	btfss	___fladd@bexp^(0+1280),0,c
  6750   004F14  EF8E  F027         	goto	u4681
  6751   004F18  EF90  F027         	goto	u4680
  6752   004F1C                     u4681:
  6753   004F1C  EF93  F027         	goto	l5148
  6754   004F20                     u4680:
  6755   004F20  8E1E               	bsf	(___fladd@b+2)^(0+1280),7,c
  6756   004F22  EF94  F027         	goto	l5150
  6757   004F26                     l5148:
  6758   004F26  9E1E               	bcf	(___fladd@b+2)^(0+1280),7,c
  6759   004F28                     l5150:
  6760   004F28  90D8               	bcf	status,0,c
  6761   004F2A  302A               	rrcf	___fladd@bexp^(0+1280),w,c
  6762   004F2C  6E1F               	movwf	(___fladd@b+3)^(0+1280),c
  6763   004F2E  AE28               	btfss	___fladd@signs^(0+1280),7,c
  6764   004F30  EF9C  F027         	goto	u4691
  6765   004F34  EF9E  F027         	goto	u4690
  6766   004F38                     u4691:
  6767   004F38  EF9F  F027         	goto	l5156
  6768   004F3C                     u4690:
  6769   004F3C  8E1F               	bsf	(___fladd@b+3)^(0+1280),7,c
  6770   004F3E                     l5156:
  6771   004F3E  C51C  F51C         	movff	___fladd@b,?___fladd
  6772   004F42  C51D  F51D         	movff	___fladd@b+1,?___fladd+1
  6773   004F46  C51E  F51E         	movff	___fladd@b+2,?___fladd+2
  6774   004F4A  C51F  F51F         	movff	___fladd@b+3,?___fladd+3
  6775   004F4E                     l1269:
  6776   004F4E  0012               	return		;funcret
  6777   004F50                     __end_of___fladd:
  6778                           	callstack 0
  6779                           
  6780 ;; *************** function ___flneg *****************
  6781 ;; Defined at:
  6782 ;;		line 15 in file "/Applications/microchip/xc8/v2.41/pic/sources/c99/common/flneg.c"
  6783 ;; Parameters:    Size  Location     Type
  6784 ;;  f1              4    2[COMRAM] unsigned char 
  6785 ;; Auto vars:     Size  Location     Type
  6786 ;;		None
  6787 ;; Return value:  Size  Location     Type
  6788 ;;                  4    2[COMRAM] unsigned char 
  6789 ;; Registers used:
  6790 ;;		wreg, status,2, status,0
  6791 ;; Tracked objects:
  6792 ;;		On entry : 0/0
  6793 ;;		On exit  : 0/0
  6794 ;;		Unchanged: 0/0
  6795 ;; Data sizes:     COMRAM   BANK5   BANK6   BANK7   BANK8   BANK9  BANK10  BANK11  BANK12  BANK13  BANK14  BANK15  BANK1
      +6  BANK17  BANK18  BANK19  BANK20  BANK21  BANK22  BANK23  BANK24  BANK25  BANK26  BANK27  BANK28  BANK29  BANK30  BANK3
      +1  BANK32  BANK33  BANK34  BANK35  BANK36  BANK37  BANK38  BANK39  BANK40  BANK41  BANK42  BANK43  BANK44  BANK45  BANK4
      +6  BANK47  BANK48  BANK49  BANK50  BANK51  BANK52  BANK53  BANK54
  6796 ;;      Params:         4       0       0       0       0       0       0       0       0       0       0       0       
      +0       0       0       0       0       0       0       0       0       0       0       0       0       0       0       
      +0       0       0       0       0       0       0       0       0       0       0       0       0       0       0       
      +0       0       0       0       0       0       0       0       0
  6797 ;;      Locals:         0       0       0       0       0       0       0       0       0       0       0       0       
      +0       0       0       0       0       0       0       0       0       0       0       0       0       0       0       
      +0       0       0       0       0       0       0       0       0       0       0       0       0       0       0       
      +0       0       0       0       0       0       0       0       0
  6798 ;;      Temps:          0       0       0       0       0       0       0       0       0       0       0       0       
      +0       0       0       0       0       0       0       0       0       0       0       0       0       0       0       
      +0       0       0       0       0       0       0       0       0       0       0       0       0       0       0       
      +0       0       0       0       0       0       0       0       0
  6799 ;;      Totals:         4       0       0       0       0       0       0       0       0       0       0       0       
      +0       0       0       0       0       0       0       0       0       0       0       0       0       0       0       
      +0       0       0       0       0       0       0       0       0       0       0       0       0       0       0       
      +0       0       0       0       0       0       0       0       0
  6800 ;;Total ram usage:        4 bytes
  6801 ;; Hardware stack levels used: 1
  6802 ;; Hardware stack levels required when called: 4
  6803 ;; This function calls:
  6804 ;;		Nothing
  6805 ;; This function is called by:
  6806 ;;		_efgtoa
  6807 ;; This function uses a non-reentrant model
  6808 ;;
  6809                           
  6810                           	psect	text38
  6811   006C74                     __ptext38:
  6812                           	callstack 0
  6813   006C74                     ___flneg:
  6814                           	callstack 117
  6815   006C74  5003               	movf	___flneg@f1^(0+1280),w,c
  6816   006C76  1004               	iorwf	(___flneg@f1+1)^(0+1280),w,c
  6817   006C78  1005               	iorwf	(___flneg@f1+2)^(0+1280),w,c
  6818   006C7A  1006               	iorwf	(___flneg@f1+3)^(0+1280),w,c
  6819   006C7C  B4D8               	btfsc	status,2,c
  6820   006C7E  EF43  F036         	goto	u5211
  6821   006C82  EF45  F036         	goto	u5210
  6822   006C86                     u5211:
  6823   006C86  EF4D  F036         	goto	l5490
  6824   006C8A                     u5210:
  6825   006C8A  0E00               	movlw	0
  6826   006C8C  1A03               	xorwf	___flneg@f1^(0+1280),f,c
  6827   006C8E  0E00               	movlw	0
  6828   006C90  1A04               	xorwf	(___flneg@f1+1)^(0+1280),f,c
  6829   006C92  0E00               	movlw	0
  6830   006C94  1A05               	xorwf	(___flneg@f1+2)^(0+1280),f,c
  6831   006C96  0E80               	movlw	128
  6832   006C98  1A06               	xorwf	(___flneg@f1+3)^(0+1280),f,c
  6833   006C9A                     l5490:
  6834   006C9A  C503  F503         	movff	___flneg@f1,?___flneg
  6835   006C9E  C504  F504         	movff	___flneg@f1+1,?___flneg+1
  6836   006CA2  C505  F505         	movff	___flneg@f1+2,?___flneg+2
  6837   006CA6  C506  F506         	movff	___flneg@f1+3,?___flneg+3
  6838   006CAA  0012               	return		;funcret
  6839   006CAC                     __end_of___flneg:
  6840                           	callstack 0
  6841                           
  6842 ;; *************** function ___flmul *****************
  6843 ;; Defined at:
  6844 ;;		line 8 in file "/Applications/microchip/xc8/v2.41/pic/sources/c99/common/sprcmul.c"
  6845 ;; Parameters:    Size  Location     Type
  6846 ;;  b               4    2[COMRAM] unsigned char 
  6847 ;;  a               4    6[COMRAM] unsigned char 
  6848 ;; Auto vars:     Size  Location     Type
  6849 ;;  prod            4   21[COMRAM] struct .
  6850 ;;  grs             4   16[COMRAM] unsigned long 
  6851 ;;  temp            2   25[COMRAM] struct .
  6852 ;;  bexp            1   20[COMRAM] unsigned char 
  6853 ;;  aexp            1   15[COMRAM] unsigned char 
  6854 ;;  sign            1   14[COMRAM] unsigned char 
  6855 ;; Return value:  Size  Location     Type
  6856 ;;                  4    2[COMRAM] unsigned char 
  6857 ;; Registers used:
  6858 ;;		wreg, status,2, status,0, prodl, prodh
  6859 ;; Tracked objects:
  6860 ;;		On entry : 0/0
  6861 ;;		On exit  : 0/0
  6862 ;;		Unchanged: 0/0
  6863 ;; Data sizes:     COMRAM   BANK5   BANK6   BANK7   BANK8   BANK9  BANK10  BANK11  BANK12  BANK13  BANK14  BANK15  BANK1
      +6  BANK17  BANK18  BANK19  BANK20  BANK21  BANK22  BANK23  BANK24  BANK25  BANK26  BANK27  BANK28  BANK29  BANK30  BANK3
      +1  BANK32  BANK33  BANK34  BANK35  BANK36  BANK37  BANK38  BANK39  BANK40  BANK41  BANK42  BANK43  BANK44  BANK45  BANK4
      +6  BANK47  BANK48  BANK49  BANK50  BANK51  BANK52  BANK53  BANK54
  6864 ;;      Params:         8       0       0       0       0       0       0       0       0       0       0       0       
      +0       0       0       0       0       0       0       0       0       0       0       0       0       0       0       
      +0       0       0       0       0       0       0       0       0       0       0       0       0       0       0       
      +0       0       0       0       0       0       0       0       0
  6865 ;;      Locals:        13       0       0       0       0       0       0       0       0       0       0       0       
      +0       0       0       0       0       0       0       0       0       0       0       0       0       0       0       
      +0       0       0       0       0       0       0       0       0       0       0       0       0       0       0       
      +0       0       0       0       0       0       0       0       0
  6866 ;;      Temps:          4       0       0       0       0       0       0       0       0       0       0       0       
      +0       0       0       0       0       0       0       0       0       0       0       0       0       0       0       
      +0       0       0       0       0       0       0       0       0       0       0       0       0       0       0       
      +0       0       0       0       0       0       0       0       0
  6867 ;;      Totals:        25       0       0       0       0       0       0       0       0       0       0       0       
      +0       0       0       0       0       0       0       0       0       0       0       0       0       0       0       
      +0       0       0       0       0       0       0       0       0       0       0       0       0       0       0       
      +0       0       0       0       0       0       0       0       0
  6868 ;;Total ram usage:       25 bytes
  6869 ;; Hardware stack levels used: 1
  6870 ;; Hardware stack levels required when called: 4
  6871 ;; This function calls:
  6872 ;;		Nothing
  6873 ;; This function is called by:
  6874 ;;		_ADC_Temp_routine
  6875 ;;		_efgtoa
  6876 ;; This function uses a non-reentrant model
  6877 ;;
  6878                           
  6879                           	psect	text39
  6880   004F50                     __ptext39:
  6881                           	callstack 0
  6882   004F50                     ___flmul:
  6883                           	callstack 117
  6884   004F50  5006               	movf	(___flmul@b+3)^(0+1280),w,c
  6885   004F52  0B80               	andlw	128
  6886   004F54  6E0F               	movwf	___flmul@sign^(0+1280),c
  6887   004F56  5006               	movf	(___flmul@b+3)^(0+1280),w,c
  6888   004F58  2406               	addwf	(___flmul@b+3)^(0+1280),w,c
  6889   004F5A  6E15               	movwf	___flmul@bexp^(0+1280),c
  6890   004F5C  AE05               	btfss	(___flmul@b+2)^(0+1280),7,c
  6891   004F5E  EFB3  F027         	goto	u4941
  6892   004F62  EFB5  F027         	goto	u4940
  6893   004F66                     u4941:
  6894   004F66  EFB6  F027         	goto	l5318
  6895   004F6A                     u4940:
  6896   004F6A  8015               	bsf	___flmul@bexp^(0+1280),0,c
  6897   004F6C                     l5318:
  6898   004F6C  5015               	movf	___flmul@bexp^(0+1280),w,c
  6899   004F6E  B4D8               	btfsc	status,2,c
  6900   004F70  EFBC  F027         	goto	u4951
  6901   004F74  EFBE  F027         	goto	u4950
  6902   004F78                     u4951:
  6903   004F78  EFD1  F027         	goto	l5326
  6904   004F7C                     u4950:
  6905   004F7C  2815               	incf	___flmul@bexp^(0+1280),w,c
  6906   004F7E  A4D8               	btfss	status,2,c
  6907   004F80  EFC4  F027         	goto	u4961
  6908   004F84  EFC6  F027         	goto	u4960
  6909   004F88                     u4961:
  6910   004F88  EFCE  F027         	goto	l5324
  6911   004F8C                     u4960:
  6912   004F8C  0E00               	movlw	0
  6913   004F8E  6E03               	movwf	___flmul@b^(0+1280),c
  6914   004F90  0E00               	movlw	0
  6915   004F92  6E04               	movwf	(___flmul@b+1)^(0+1280),c
  6916   004F94  0E00               	movlw	0
  6917   004F96  6E05               	movwf	(___flmul@b+2)^(0+1280),c
  6918   004F98  0E00               	movlw	0
  6919   004F9A  6E06               	movwf	(___flmul@b+3)^(0+1280),c
  6920   004F9C                     l5324:
  6921   004F9C  8E05               	bsf	(___flmul@b+2)^(0+1280),7,c
  6922   004F9E  EFD9  F027         	goto	l5328
  6923   004FA2                     l5326:
  6924   004FA2  0E00               	movlw	0
  6925   004FA4  6E03               	movwf	___flmul@b^(0+1280),c
  6926   004FA6  0E00               	movlw	0
  6927   004FA8  6E04               	movwf	(___flmul@b+1)^(0+1280),c
  6928   004FAA  0E00               	movlw	0
  6929   004FAC  6E05               	movwf	(___flmul@b+2)^(0+1280),c
  6930   004FAE  0E00               	movlw	0
  6931   004FB0  6E06               	movwf	(___flmul@b+3)^(0+1280),c
  6932   004FB2                     l5328:
  6933   004FB2  500A               	movf	(___flmul@a+3)^(0+1280),w,c
  6934   004FB4  0B80               	andlw	128
  6935   004FB6  1A0F               	xorwf	___flmul@sign^(0+1280),f,c
  6936   004FB8  500A               	movf	(___flmul@a+3)^(0+1280),w,c
  6937   004FBA  240A               	addwf	(___flmul@a+3)^(0+1280),w,c
  6938   004FBC  6E10               	movwf	___flmul@aexp^(0+1280),c
  6939   004FBE  AE09               	btfss	(___flmul@a+2)^(0+1280),7,c
  6940   004FC0  EFE4  F027         	goto	u4971
  6941   004FC4  EFE6  F027         	goto	u4970
  6942   004FC8                     u4971:
  6943   004FC8  EFE7  F027         	goto	l5336
  6944   004FCC                     u4970:
  6945   004FCC  8010               	bsf	___flmul@aexp^(0+1280),0,c
  6946   004FCE                     l5336:
  6947   004FCE  5010               	movf	___flmul@aexp^(0+1280),w,c
  6948   004FD0  B4D8               	btfsc	status,2,c
  6949   004FD2  EFED  F027         	goto	u4981
  6950   004FD6  EFEF  F027         	goto	u4980
  6951   004FDA                     u4981:
  6952   004FDA  EF02  F028         	goto	l5344
  6953   004FDE                     u4980:
  6954   004FDE  2810               	incf	___flmul@aexp^(0+1280),w,c
  6955   004FE0  A4D8               	btfss	status,2,c
  6956   004FE2  EFF5  F027         	goto	u4991
  6957   004FE6  EFF7  F027         	goto	u4990
  6958   004FEA                     u4991:
  6959   004FEA  EFFF  F027         	goto	l5342
  6960   004FEE                     u4990:
  6961   004FEE  0E00               	movlw	0
  6962   004FF0  6E07               	movwf	___flmul@a^(0+1280),c
  6963   004FF2  0E00               	movlw	0
  6964   004FF4  6E08               	movwf	(___flmul@a+1)^(0+1280),c
  6965   004FF6  0E00               	movlw	0
  6966   004FF8  6E09               	movwf	(___flmul@a+2)^(0+1280),c
  6967   004FFA  0E00               	movlw	0
  6968   004FFC  6E0A               	movwf	(___flmul@a+3)^(0+1280),c
  6969   004FFE                     l5342:
  6970   004FFE  8E09               	bsf	(___flmul@a+2)^(0+1280),7,c
  6971   005000  EF0A  F028         	goto	l1346
  6972   005004                     l5344:
  6973   005004  0E00               	movlw	0
  6974   005006  6E07               	movwf	___flmul@a^(0+1280),c
  6975   005008  0E00               	movlw	0
  6976   00500A  6E08               	movwf	(___flmul@a+1)^(0+1280),c
  6977   00500C  0E00               	movlw	0
  6978   00500E  6E09               	movwf	(___flmul@a+2)^(0+1280),c
  6979   005010  0E00               	movlw	0
  6980   005012  6E0A               	movwf	(___flmul@a+3)^(0+1280),c
  6981   005014                     l1346:
  6982   005014  5010               	movf	___flmul@aexp^(0+1280),w,c
  6983   005016  B4D8               	btfsc	status,2,c
  6984   005018  EF10  F028         	goto	u5001
  6985   00501C  EF12  F028         	goto	u5000
  6986   005020                     u5001:
  6987   005020  EF1A  F028         	goto	l5348
  6988   005024                     u5000:
  6989   005024  5015               	movf	___flmul@bexp^(0+1280),w,c
  6990   005026  A4D8               	btfss	status,2,c
  6991   005028  EF18  F028         	goto	u5011
  6992   00502C  EF1A  F028         	goto	u5010
  6993   005030                     u5011:
  6994   005030  EF24  F028         	goto	l5352
  6995   005034                     u5010:
  6996   005034                     l5348:
  6997   005034  0E00               	movlw	0
  6998   005036  6E03               	movwf	?___flmul^(0+1280),c
  6999   005038  0E00               	movlw	0
  7000   00503A  6E04               	movwf	(?___flmul+1)^(0+1280),c
  7001   00503C  0E00               	movlw	0
  7002   00503E  6E05               	movwf	(?___flmul+2)^(0+1280),c
  7003   005040  0E00               	movlw	0
  7004   005042  6E06               	movwf	(?___flmul+3)^(0+1280),c
  7005   005044  EFBC  F029         	goto	l1350
  7006   005048                     l5352:
  7007   005048  5009               	movf	(___flmul@a+2)^(0+1280),w,c
  7008   00504A  0203               	mulwf	___flmul@b^(0+1280),c
  7009   00504C  C4F3 F51A          	movff	prodl,___flmul@temp
  7010   005050  C4F4 F51B          	movff	prodh,___flmul@temp+1
  7011   005054  501A               	movf	___flmul@temp^(0+1280),w,c
  7012   005056  6E11               	movwf	___flmul@grs^(0+1280),c
  7013   005058  6A12               	clrf	(___flmul@grs+1)^(0+1280),c
  7014   00505A  6A13               	clrf	(___flmul@grs+2)^(0+1280),c
  7015   00505C  6A14               	clrf	(___flmul@grs+3)^(0+1280),c
  7016   00505E  501B               	movf	(___flmul@temp+1)^(0+1280),w,c
  7017   005060  6E16               	movwf	___flmul@prod^(0+1280),c
  7018   005062  6A17               	clrf	(___flmul@prod+1)^(0+1280),c
  7019   005064  6A18               	clrf	(___flmul@prod+2)^(0+1280),c
  7020   005066  6A19               	clrf	(___flmul@prod+3)^(0+1280),c
  7021   005068  5008               	movf	(___flmul@a+1)^(0+1280),w,c
  7022   00506A  0204               	mulwf	(___flmul@b+1)^(0+1280),c
  7023   00506C  C4F3 F51A          	movff	prodl,___flmul@temp
  7024   005070  C4F4 F51B          	movff	prodh,___flmul@temp+1
  7025   005074  501A               	movf	___flmul@temp^(0+1280),w,c
  7026   005076  2611               	addwf	___flmul@grs^(0+1280),f,c
  7027   005078  0E00               	movlw	0
  7028   00507A  2212               	addwfc	(___flmul@grs+1)^(0+1280),f,c
  7029   00507C  2213               	addwfc	(___flmul@grs+2)^(0+1280),f,c
  7030   00507E  2214               	addwfc	(___flmul@grs+3)^(0+1280),f,c
  7031   005080  501B               	movf	(___flmul@temp+1)^(0+1280),w,c
  7032   005082  2616               	addwf	___flmul@prod^(0+1280),f,c
  7033   005084  0E00               	movlw	0
  7034   005086  2217               	addwfc	(___flmul@prod+1)^(0+1280),f,c
  7035   005088  2218               	addwfc	(___flmul@prod+2)^(0+1280),f,c
  7036   00508A  2219               	addwfc	(___flmul@prod+3)^(0+1280),f,c
  7037   00508C  5007               	movf	___flmul@a^(0+1280),w,c
  7038   00508E  0205               	mulwf	(___flmul@b+2)^(0+1280),c
  7039   005090  C4F3 F51A          	movff	prodl,___flmul@temp
  7040   005094  C4F4 F51B          	movff	prodh,___flmul@temp+1
  7041   005098  501A               	movf	___flmul@temp^(0+1280),w,c
  7042   00509A  2611               	addwf	___flmul@grs^(0+1280),f,c
  7043   00509C  0E00               	movlw	0
  7044   00509E  2212               	addwfc	(___flmul@grs+1)^(0+1280),f,c
  7045   0050A0  2213               	addwfc	(___flmul@grs+2)^(0+1280),f,c
  7046   0050A2  2214               	addwfc	(___flmul@grs+3)^(0+1280),f,c
  7047   0050A4  501B               	movf	(___flmul@temp+1)^(0+1280),w,c
  7048   0050A6  2616               	addwf	___flmul@prod^(0+1280),f,c
  7049   0050A8  0E00               	movlw	0
  7050   0050AA  2217               	addwfc	(___flmul@prod+1)^(0+1280),f,c
  7051   0050AC  2218               	addwfc	(___flmul@prod+2)^(0+1280),f,c
  7052   0050AE  2219               	addwfc	(___flmul@prod+3)^(0+1280),f,c
  7053   0050B0  C513  F514         	movff	___flmul@grs+2,___flmul@grs+3
  7054   0050B4  C512  F513         	movff	___flmul@grs+1,___flmul@grs+2
  7055   0050B8  C511  F512         	movff	___flmul@grs,___flmul@grs+1
  7056   0050BC  6A11               	clrf	___flmul@grs^(0+1280),c
  7057   0050BE  5007               	movf	___flmul@a^(0+1280),w,c
  7058   0050C0  0204               	mulwf	(___flmul@b+1)^(0+1280),c
  7059   0050C2  C4F3 F51A          	movff	prodl,___flmul@temp
  7060   0050C6  C4F4 F51B          	movff	prodh,___flmul@temp+1
  7061   0050CA  501A               	movf	___flmul@temp^(0+1280),w,c
  7062   0050CC  2611               	addwf	___flmul@grs^(0+1280),f,c
  7063   0050CE  501B               	movf	(___flmul@temp+1)^(0+1280),w,c
  7064   0050D0  2212               	addwfc	(___flmul@grs+1)^(0+1280),f,c
  7065   0050D2  0E00               	movlw	0
  7066   0050D4  2213               	addwfc	(___flmul@grs+2)^(0+1280),f,c
  7067   0050D6  0E00               	movlw	0
  7068   0050D8  2214               	addwfc	(___flmul@grs+3)^(0+1280),f,c
  7069   0050DA  5008               	movf	(___flmul@a+1)^(0+1280),w,c
  7070   0050DC  0203               	mulwf	___flmul@b^(0+1280),c
  7071   0050DE  C4F3 F51A          	movff	prodl,___flmul@temp
  7072   0050E2  C4F4 F51B          	movff	prodh,___flmul@temp+1
  7073   0050E6  501A               	movf	___flmul@temp^(0+1280),w,c
  7074   0050E8  2611               	addwf	___flmul@grs^(0+1280),f,c
  7075   0050EA  501B               	movf	(___flmul@temp+1)^(0+1280),w,c
  7076   0050EC  2212               	addwfc	(___flmul@grs+1)^(0+1280),f,c
  7077   0050EE  0E00               	movlw	0
  7078   0050F0  2213               	addwfc	(___flmul@grs+2)^(0+1280),f,c
  7079   0050F2  0E00               	movlw	0
  7080   0050F4  2214               	addwfc	(___flmul@grs+3)^(0+1280),f,c
  7081   0050F6  C513  F514         	movff	___flmul@grs+2,___flmul@grs+3
  7082   0050FA  C512  F513         	movff	___flmul@grs+1,___flmul@grs+2
  7083   0050FE  C511  F512         	movff	___flmul@grs,___flmul@grs+1
  7084   005102  6A11               	clrf	___flmul@grs^(0+1280),c
  7085   005104  5007               	movf	___flmul@a^(0+1280),w,c
  7086   005106  0203               	mulwf	___flmul@b^(0+1280),c
  7087   005108  C4F3 F51A          	movff	prodl,___flmul@temp
  7088   00510C  C4F4 F51B          	movff	prodh,___flmul@temp+1
  7089   005110  501A               	movf	___flmul@temp^(0+1280),w,c
  7090   005112  2611               	addwf	___flmul@grs^(0+1280),f,c
  7091   005114  501B               	movf	(___flmul@temp+1)^(0+1280),w,c
  7092   005116  2212               	addwfc	(___flmul@grs+1)^(0+1280),f,c
  7093   005118  0E00               	movlw	0
  7094   00511A  2213               	addwfc	(___flmul@grs+2)^(0+1280),f,c
  7095   00511C  0E00               	movlw	0
  7096   00511E  2214               	addwfc	(___flmul@grs+3)^(0+1280),f,c
  7097   005120  5009               	movf	(___flmul@a+2)^(0+1280),w,c
  7098   005122  0204               	mulwf	(___flmul@b+1)^(0+1280),c
  7099   005124  C4F3 F51A          	movff	prodl,___flmul@temp
  7100   005128  C4F4 F51B          	movff	prodh,___flmul@temp+1
  7101   00512C  501A               	movf	___flmul@temp^(0+1280),w,c
  7102   00512E  2616               	addwf	___flmul@prod^(0+1280),f,c
  7103   005130  501B               	movf	(___flmul@temp+1)^(0+1280),w,c
  7104   005132  2217               	addwfc	(___flmul@prod+1)^(0+1280),f,c
  7105   005134  0E00               	movlw	0
  7106   005136  2218               	addwfc	(___flmul@prod+2)^(0+1280),f,c
  7107   005138  0E00               	movlw	0
  7108   00513A  2219               	addwfc	(___flmul@prod+3)^(0+1280),f,c
  7109   00513C  5008               	movf	(___flmul@a+1)^(0+1280),w,c
  7110   00513E  0205               	mulwf	(___flmul@b+2)^(0+1280),c
  7111   005140  C4F3 F51A          	movff	prodl,___flmul@temp
  7112   005144  C4F4 F51B          	movff	prodh,___flmul@temp+1
  7113   005148  501A               	movf	___flmul@temp^(0+1280),w,c
  7114   00514A  2616               	addwf	___flmul@prod^(0+1280),f,c
  7115   00514C  501B               	movf	(___flmul@temp+1)^(0+1280),w,c
  7116   00514E  2217               	addwfc	(___flmul@prod+1)^(0+1280),f,c
  7117   005150  0E00               	movlw	0
  7118   005152  2218               	addwfc	(___flmul@prod+2)^(0+1280),f,c
  7119   005154  0E00               	movlw	0
  7120   005156  2219               	addwfc	(___flmul@prod+3)^(0+1280),f,c
  7121   005158  5009               	movf	(___flmul@a+2)^(0+1280),w,c
  7122   00515A  0205               	mulwf	(___flmul@b+2)^(0+1280),c
  7123   00515C  C4F3 F51A          	movff	prodl,___flmul@temp
  7124   005160  C4F4 F51B          	movff	prodh,___flmul@temp+1
  7125   005164  501A               	movf	___flmul@temp^(0+1280),w,c
  7126   005166  6E0B               	movwf	??___flmul^(0+1280),c
  7127   005168  501B               	movf	(___flmul@temp+1)^(0+1280),w,c
  7128   00516A  6E0C               	movwf	(??___flmul+1)^(0+1280),c
  7129   00516C  6A0D               	clrf	(??___flmul+2)^(0+1280),c
  7130   00516E  6A0E               	clrf	(??___flmul+3)^(0+1280),c
  7131   005170  C50D  F50E         	movff	??___flmul+2,??___flmul+3
  7132   005174  C50C  F50D         	movff	??___flmul+1,??___flmul+2
  7133   005178  C50B  F50C         	movff	??___flmul,??___flmul+1
  7134   00517C  6A0B               	clrf	??___flmul^(0+1280),c
  7135   00517E  500B               	movf	??___flmul^(0+1280),w,c
  7136   005180  2616               	addwf	___flmul@prod^(0+1280),f,c
  7137   005182  500C               	movf	(??___flmul+1)^(0+1280),w,c
  7138   005184  2217               	addwfc	(___flmul@prod+1)^(0+1280),f,c
  7139   005186  500D               	movf	(??___flmul+2)^(0+1280),w,c
  7140   005188  2218               	addwfc	(___flmul@prod+2)^(0+1280),f,c
  7141   00518A  500E               	movf	(??___flmul+3)^(0+1280),w,c
  7142   00518C  2219               	addwfc	(___flmul@prod+3)^(0+1280),f,c
  7143   00518E  C511  F50B         	movff	___flmul@grs,??___flmul
  7144   005192  C512  F50C         	movff	___flmul@grs+1,??___flmul+1
  7145   005196  C513  F50D         	movff	___flmul@grs+2,??___flmul+2
  7146   00519A  C514  F50E         	movff	___flmul@grs+3,??___flmul+3
  7147   00519E  0E19               	movlw	25
  7148   0051A0  EFD7  F028         	goto	u5020
  7149   0051A4                     u5025:
  7150   0051A4  90D8               	bcf	status,0,c
  7151   0051A6  320E               	rrcf	(??___flmul+3)^(0+1280),f,c
  7152   0051A8  320D               	rrcf	(??___flmul+2)^(0+1280),f,c
  7153   0051AA  320C               	rrcf	(??___flmul+1)^(0+1280),f,c
  7154   0051AC  320B               	rrcf	??___flmul^(0+1280),f,c
  7155   0051AE                     u5020:
  7156   0051AE  2EE8               	decfsz	wreg,f,c
  7157   0051B0  EFD2  F028         	goto	u5025
  7158   0051B4  500B               	movf	??___flmul^(0+1280),w,c
  7159   0051B6  2616               	addwf	___flmul@prod^(0+1280),f,c
  7160   0051B8  500C               	movf	(??___flmul+1)^(0+1280),w,c
  7161   0051BA  2217               	addwfc	(___flmul@prod+1)^(0+1280),f,c
  7162   0051BC  500D               	movf	(??___flmul+2)^(0+1280),w,c
  7163   0051BE  2218               	addwfc	(___flmul@prod+2)^(0+1280),f,c
  7164   0051C0  500E               	movf	(??___flmul+3)^(0+1280),w,c
  7165   0051C2  2219               	addwfc	(___flmul@prod+3)^(0+1280),f,c
  7166   0051C4  C513  F514         	movff	___flmul@grs+2,___flmul@grs+3
  7167   0051C8  C512  F513         	movff	___flmul@grs+1,___flmul@grs+2
  7168   0051CC  C511  F512         	movff	___flmul@grs,___flmul@grs+1
  7169   0051D0  6A11               	clrf	___flmul@grs^(0+1280),c
  7170   0051D2  5010               	movf	___flmul@aexp^(0+1280),w,c
  7171   0051D4  C515  F50B         	movff	___flmul@bexp,??___flmul
  7172   0051D8  6A0C               	clrf	(??___flmul+1)^(0+1280),c
  7173   0051DA  260B               	addwf	??___flmul^(0+1280),f,c
  7174   0051DC  0E00               	movlw	0
  7175   0051DE  220C               	addwfc	(??___flmul+1)^(0+1280),f,c
  7176   0051E0  0E82               	movlw	130
  7177   0051E2  240B               	addwf	??___flmul^(0+1280),w,c
  7178   0051E4  6E1A               	movwf	___flmul@temp^(0+1280),c
  7179   0051E6  0EFF               	movlw	255
  7180   0051E8  200C               	addwfc	(??___flmul+1)^(0+1280),w,c
  7181   0051EA  6E1B               	movwf	(___flmul@temp+1)^(0+1280),c
  7182   0051EC  EF0D  F029         	goto	l5400
  7183   0051F0                     l5394:
  7184   0051F0  90D8               	bcf	status,0,c
  7185   0051F2  3616               	rlcf	___flmul@prod^(0+1280),f,c
  7186   0051F4  3617               	rlcf	(___flmul@prod+1)^(0+1280),f,c
  7187   0051F6  3618               	rlcf	(___flmul@prod+2)^(0+1280),f,c
  7188   0051F8  3619               	rlcf	(___flmul@prod+3)^(0+1280),f,c
  7189   0051FA  AE14               	btfss	(___flmul@grs+3)^(0+1280),7,c
  7190   0051FC  EF02  F029         	goto	u5031
  7191   005200  EF04  F029         	goto	u5030
  7192   005204                     u5031:
  7193   005204  EF05  F029         	goto	l1353
  7194   005208                     u5030:
  7195   005208  8016               	bsf	___flmul@prod^(0+1280),0,c
  7196   00520A                     l1353:
  7197   00520A  90D8               	bcf	status,0,c
  7198   00520C  3611               	rlcf	___flmul@grs^(0+1280),f,c
  7199   00520E  3612               	rlcf	(___flmul@grs+1)^(0+1280),f,c
  7200   005210  3613               	rlcf	(___flmul@grs+2)^(0+1280),f,c
  7201   005212  3614               	rlcf	(___flmul@grs+3)^(0+1280),f,c
  7202   005214  061A               	decf	___flmul@temp^(0+1280),f,c
  7203   005216  A0D8               	btfss	status,0,c
  7204   005218  061B               	decf	(___flmul@temp+1)^(0+1280),f,c
  7205   00521A                     l5400:
  7206   00521A  AE18               	btfss	(___flmul@prod+2)^(0+1280),7,c
  7207   00521C  EF12  F029         	goto	u5041
  7208   005220  EF14  F029         	goto	u5040
  7209   005224                     u5041:
  7210   005224  EFF8  F028         	goto	l5394
  7211   005228                     u5040:
  7212   005228  0E00               	movlw	0
  7213   00522A  6E10               	movwf	___flmul@aexp^(0+1280),c
  7214   00522C  AE14               	btfss	(___flmul@grs+3)^(0+1280),7,c
  7215   00522E  EF1B  F029         	goto	u5051
  7216   005232  EF1D  F029         	goto	u5050
  7217   005236                     u5051:
  7218   005236  EF41  F029         	goto	l1355
  7219   00523A                     u5050:
  7220   00523A  0EFF               	movlw	255
  7221   00523C  1411               	andwf	___flmul@grs^(0+1280),w,c
  7222   00523E  6E0B               	movwf	??___flmul^(0+1280),c
  7223   005240  0EFF               	movlw	255
  7224   005242  1412               	andwf	(___flmul@grs+1)^(0+1280),w,c
  7225   005244  6E0C               	movwf	(??___flmul+1)^(0+1280),c
  7226   005246  0EFF               	movlw	255
  7227   005248  1413               	andwf	(___flmul@grs+2)^(0+1280),w,c
  7228   00524A  6E0D               	movwf	(??___flmul+2)^(0+1280),c
  7229   00524C  0E7F               	movlw	127
  7230   00524E  1414               	andwf	(___flmul@grs+3)^(0+1280),w,c
  7231   005250  6E0E               	movwf	(??___flmul+3)^(0+1280),c
  7232   005252  500B               	movf	??___flmul^(0+1280),w,c
  7233   005254  100C               	iorwf	(??___flmul+1)^(0+1280),w,c
  7234   005256  100D               	iorwf	(??___flmul+2)^(0+1280),w,c
  7235   005258  100E               	iorwf	(??___flmul+3)^(0+1280),w,c
  7236   00525A  B4D8               	btfsc	status,2,c
  7237   00525C  EF32  F029         	goto	u5061
  7238   005260  EF34  F029         	goto	u5060
  7239   005264                     u5061:
  7240   005264  EF38  F029         	goto	l1356
  7241   005268                     u5060:
  7242   005268                     l5408:
  7243   005268  0E01               	movlw	1
  7244   00526A  6E10               	movwf	___flmul@aexp^(0+1280),c
  7245   00526C  EF41  F029         	goto	l1355
  7246   005270                     l1356:
  7247   005270  A016               	btfss	___flmul@prod^(0+1280),0,c
  7248   005272  EF3D  F029         	goto	u5071
  7249   005276  EF3F  F029         	goto	u5070
  7250   00527A                     u5071:
  7251   00527A  EF41  F029         	goto	l1355
  7252   00527E                     u5070:
  7253   00527E  EF34  F029         	goto	l5408
  7254   005282                     l1355:
  7255   005282  5010               	movf	___flmul@aexp^(0+1280),w,c
  7256   005284  B4D8               	btfsc	status,2,c
  7257   005286  EF47  F029         	goto	u5081
  7258   00528A  EF49  F029         	goto	u5080
  7259   00528E                     u5081:
  7260   00528E  EF6D  F029         	goto	l5420
  7261   005292                     u5080:
  7262   005292  0E01               	movlw	1
  7263   005294  2616               	addwf	___flmul@prod^(0+1280),f,c
  7264   005296  0E00               	movlw	0
  7265   005298  2217               	addwfc	(___flmul@prod+1)^(0+1280),f,c
  7266   00529A  2218               	addwfc	(___flmul@prod+2)^(0+1280),f,c
  7267   00529C  2219               	addwfc	(___flmul@prod+3)^(0+1280),f,c
  7268   00529E  A019               	btfss	(___flmul@prod+3)^(0+1280),0,c
  7269   0052A0  EF54  F029         	goto	u5091
  7270   0052A4  EF56  F029         	goto	u5090
  7271   0052A8                     u5091:
  7272   0052A8  EF6D  F029         	goto	l5420
  7273   0052AC                     u5090:
  7274   0052AC  C516  F50B         	movff	___flmul@prod,??___flmul
  7275   0052B0  C517  F50C         	movff	___flmul@prod+1,??___flmul+1
  7276   0052B4  C518  F50D         	movff	___flmul@prod+2,??___flmul+2
  7277   0052B8  C519  F50E         	movff	___flmul@prod+3,??___flmul+3
  7278   0052BC  340E               	rlcf	(??___flmul+3)^(0+1280),w,c
  7279   0052BE  320E               	rrcf	(??___flmul+3)^(0+1280),f,c
  7280   0052C0  320D               	rrcf	(??___flmul+2)^(0+1280),f,c
  7281   0052C2  320C               	rrcf	(??___flmul+1)^(0+1280),f,c
  7282   0052C4  320B               	rrcf	??___flmul^(0+1280),f,c
  7283   0052C6  C50B  F516         	movff	??___flmul,___flmul@prod
  7284   0052CA  C50C  F517         	movff	??___flmul+1,___flmul@prod+1
  7285   0052CE  C50D  F518         	movff	??___flmul+2,___flmul@prod+2
  7286   0052D2  C50E  F519         	movff	??___flmul+3,___flmul@prod+3
  7287   0052D6  4A1A               	infsnz	___flmul@temp^(0+1280),f,c
  7288   0052D8  2A1B               	incf	(___flmul@temp+1)^(0+1280),f,c
  7289   0052DA                     l5420:
  7290   0052DA  BE1B               	btfsc	(___flmul@temp+1)^(0+1280),7,c
  7291   0052DC  EF78  F029         	goto	u5101
  7292   0052E0  501B               	movf	(___flmul@temp+1)^(0+1280),w,c
  7293   0052E2  E108               	bnz	u5100
  7294   0052E4  281A               	incf	___flmul@temp^(0+1280),w,c
  7295   0052E6  A0D8               	btfss	status,0,c
  7296   0052E8  EF78  F029         	goto	u5101
  7297   0052EC  EF7A  F029         	goto	u5100
  7298   0052F0                     u5101:
  7299   0052F0  EF84  F029         	goto	l5424
  7300   0052F4                     u5100:
  7301   0052F4  0E00               	movlw	0
  7302   0052F6  6E16               	movwf	___flmul@prod^(0+1280),c
  7303   0052F8  0E00               	movlw	0
  7304   0052FA  6E17               	movwf	(___flmul@prod+1)^(0+1280),c
  7305   0052FC  0E80               	movlw	128
  7306   0052FE  6E18               	movwf	(___flmul@prod+2)^(0+1280),c
  7307   005300  0E7F               	movlw	127
  7308   005302  6E19               	movwf	(___flmul@prod+3)^(0+1280),c
  7309   005304  EFB2  F029         	goto	l5436
  7310   005308                     l5424:
  7311   005308  BE1B               	btfsc	(___flmul@temp+1)^(0+1280),7,c
  7312   00530A  EF91  F029         	goto	u5110
  7313   00530E  501B               	movf	(___flmul@temp+1)^(0+1280),w,c
  7314   005310  E106               	bnz	u5111
  7315   005312  041A               	decf	___flmul@temp^(0+1280),w,c
  7316   005314  B0D8               	btfsc	status,0,c
  7317   005316  EF8F  F029         	goto	u5111
  7318   00531A  EF91  F029         	goto	u5110
  7319   00531E                     u5111:
  7320   00531E  EF9D  F029         	goto	l1363
  7321   005322                     u5110:
  7322   005322  0E00               	movlw	0
  7323   005324  6E16               	movwf	___flmul@prod^(0+1280),c
  7324   005326  0E00               	movlw	0
  7325   005328  6E17               	movwf	(___flmul@prod+1)^(0+1280),c
  7326   00532A  0E00               	movlw	0
  7327   00532C  6E18               	movwf	(___flmul@prod+2)^(0+1280),c
  7328   00532E  0E00               	movlw	0
  7329   005330  6E19               	movwf	(___flmul@prod+3)^(0+1280),c
  7330   005332  0E00               	movlw	0
  7331   005334  6E0F               	movwf	___flmul@sign^(0+1280),c
  7332   005336  EFB2  F029         	goto	l5436
  7333   00533A                     l1363:
  7334   00533A  C51A  F515         	movff	___flmul@temp,___flmul@bexp
  7335   00533E  0EFF               	movlw	255
  7336   005340  1616               	andwf	___flmul@prod^(0+1280),f,c
  7337   005342  0EFF               	movlw	255
  7338   005344  1617               	andwf	(___flmul@prod+1)^(0+1280),f,c
  7339   005346  0E7F               	movlw	127
  7340   005348  1618               	andwf	(___flmul@prod+2)^(0+1280),f,c
  7341   00534A  0E00               	movlw	0
  7342   00534C  1619               	andwf	(___flmul@prod+3)^(0+1280),f,c
  7343   00534E  A015               	btfss	___flmul@bexp^(0+1280),0,c
  7344   005350  EFAC  F029         	goto	u5121
  7345   005354  EFAE  F029         	goto	u5120
  7346   005358                     u5121:
  7347   005358  EFAF  F029         	goto	l5434
  7348   00535C                     u5120:
  7349   00535C  8E18               	bsf	(___flmul@prod+2)^(0+1280),7,c
  7350   00535E                     l5434:
  7351   00535E  90D8               	bcf	status,0,c
  7352   005360  3015               	rrcf	___flmul@bexp^(0+1280),w,c
  7353   005362  6E19               	movwf	(___flmul@prod+3)^(0+1280),c
  7354   005364                     l5436:
  7355   005364  500F               	movf	___flmul@sign^(0+1280),w,c
  7356   005366  1219               	iorwf	(___flmul@prod+3)^(0+1280),f,c
  7357   005368  C516  F503         	movff	___flmul@prod,?___flmul
  7358   00536C  C517  F504         	movff	___flmul@prod+1,?___flmul+1
  7359   005370  C518  F505         	movff	___flmul@prod+2,?___flmul+2
  7360   005374  C519  F506         	movff	___flmul@prod+3,?___flmul+3
  7361   005378                     l1350:
  7362   005378  0012               	return		;funcret
  7363   00537A                     __end_of___flmul:
  7364                           	callstack 0
  7365                           
  7366 ;; *************** function ___flge *****************
  7367 ;; Defined at:
  7368 ;;		line 4 in file "/Applications/microchip/xc8/v2.41/pic/sources/c99/common/flge.c"
  7369 ;; Parameters:    Size  Location     Type
  7370 ;;  ff1             4   27[COMRAM] unsigned char 
  7371 ;;  ff2             4   31[COMRAM] unsigned char 
  7372 ;; Auto vars:     Size  Location     Type
  7373 ;;		None
  7374 ;; Return value:  Size  Location     Type
  7375 ;;		None               void
  7376 ;; Registers used:
  7377 ;;		wreg, status,2, status,0
  7378 ;; Tracked objects:
  7379 ;;		On entry : 0/0
  7380 ;;		On exit  : 0/0
  7381 ;;		Unchanged: 0/0
  7382 ;; Data sizes:     COMRAM   BANK5   BANK6   BANK7   BANK8   BANK9  BANK10  BANK11  BANK12  BANK13  BANK14  BANK15  BANK1
      +6  BANK17  BANK18  BANK19  BANK20  BANK21  BANK22  BANK23  BANK24  BANK25  BANK26  BANK27  BANK28  BANK29  BANK30  BANK3
      +1  BANK32  BANK33  BANK34  BANK35  BANK36  BANK37  BANK38  BANK39  BANK40  BANK41  BANK42  BANK43  BANK44  BANK45  BANK4
      +6  BANK47  BANK48  BANK49  BANK50  BANK51  BANK52  BANK53  BANK54
  7383 ;;      Params:         8       0       0       0       0       0       0       0       0       0       0       0       
      +0       0       0       0       0       0       0       0       0       0       0       0       0       0       0       
      +0       0       0       0       0       0       0       0       0       0       0       0       0       0       0       
      +0       0       0       0       0       0       0       0       0
  7384 ;;      Locals:         0       0       0       0       0       0       0       0       0       0       0       0       
      +0       0       0       0       0       0       0       0       0       0       0       0       0       0       0       
      +0       0       0       0       0       0       0       0       0       0       0       0       0       0       0       
      +0       0       0       0       0       0       0       0       0
  7385 ;;      Temps:          4       0       0       0       0       0       0       0       0       0       0       0       
      +0       0       0       0       0       0       0       0       0       0       0       0       0       0       0       
      +0       0       0       0       0       0       0       0       0       0       0       0       0       0       0       
      +0       0       0       0       0       0       0       0       0
  7386 ;;      Totals:        12       0       0       0       0       0       0       0       0       0       0       0       
      +0       0       0       0       0       0       0       0       0       0       0       0       0       0       0       
      +0       0       0       0       0       0       0       0       0       0       0       0       0       0       0       
      +0       0       0       0       0       0       0       0       0
  7387 ;;Total ram usage:       12 bytes
  7388 ;; Hardware stack levels used: 1
  7389 ;; Hardware stack levels required when called: 4
  7390 ;; This function calls:
  7391 ;;		Nothing
  7392 ;; This function is called by:
  7393 ;;		_efgtoa
  7394 ;; This function uses a non-reentrant model
  7395 ;;
  7396                           
  7397                           	psect	text40
  7398   006018                     __ptext40:
  7399                           	callstack 0
  7400   006018                     ___flge:
  7401                           	callstack 117
  7402   006018  0E00               	movlw	0
  7403   00601A  141C               	andwf	___flge@ff1^(0+1280),w,c
  7404   00601C  6E24               	movwf	??___flge^(0+1280),c
  7405   00601E  0E00               	movlw	0
  7406   006020  141D               	andwf	(___flge@ff1+1)^(0+1280),w,c
  7407   006022  6E25               	movwf	(??___flge+1)^(0+1280),c
  7408   006024  0E80               	movlw	128
  7409   006026  141E               	andwf	(___flge@ff1+2)^(0+1280),w,c
  7410   006028  6E26               	movwf	(??___flge+2)^(0+1280),c
  7411   00602A  0E7F               	movlw	127
  7412   00602C  141F               	andwf	(___flge@ff1+3)^(0+1280),w,c
  7413   00602E  6E27               	movwf	(??___flge+3)^(0+1280),c
  7414   006030  5024               	movf	??___flge^(0+1280),w,c
  7415   006032  1025               	iorwf	(??___flge+1)^(0+1280),w,c
  7416   006034  1026               	iorwf	(??___flge+2)^(0+1280),w,c
  7417   006036  1027               	iorwf	(??___flge+3)^(0+1280),w,c
  7418   006038  A4D8               	btfss	status,2,c
  7419   00603A  EF21  F030         	goto	u5161
  7420   00603E  EF23  F030         	goto	u5160
  7421   006042                     u5161:
  7422   006042  EF2B  F030         	goto	l5468
  7423   006046                     u5160:
  7424   006046  0E00               	movlw	0
  7425   006048  6E1C               	movwf	___flge@ff1^(0+1280),c
  7426   00604A  0E00               	movlw	0
  7427   00604C  6E1D               	movwf	(___flge@ff1+1)^(0+1280),c
  7428   00604E  0E00               	movlw	0
  7429   006050  6E1E               	movwf	(___flge@ff1+2)^(0+1280),c
  7430   006052  0E00               	movlw	0
  7431   006054  6E1F               	movwf	(___flge@ff1+3)^(0+1280),c
  7432   006056                     l5468:
  7433   006056  0E00               	movlw	0
  7434   006058  1420               	andwf	___flge@ff2^(0+1280),w,c
  7435   00605A  6E24               	movwf	??___flge^(0+1280),c
  7436   00605C  0E00               	movlw	0
  7437   00605E  1421               	andwf	(___flge@ff2+1)^(0+1280),w,c
  7438   006060  6E25               	movwf	(??___flge+1)^(0+1280),c
  7439   006062  0E80               	movlw	128
  7440   006064  1422               	andwf	(___flge@ff2+2)^(0+1280),w,c
  7441   006066  6E26               	movwf	(??___flge+2)^(0+1280),c
  7442   006068  0E7F               	movlw	127
  7443   00606A  1423               	andwf	(___flge@ff2+3)^(0+1280),w,c
  7444   00606C  6E27               	movwf	(??___flge+3)^(0+1280),c
  7445   00606E  5024               	movf	??___flge^(0+1280),w,c
  7446   006070  1025               	iorwf	(??___flge+1)^(0+1280),w,c
  7447   006072  1026               	iorwf	(??___flge+2)^(0+1280),w,c
  7448   006074  1027               	iorwf	(??___flge+3)^(0+1280),w,c
  7449   006076  A4D8               	btfss	status,2,c
  7450   006078  EF40  F030         	goto	u5171
  7451   00607C  EF42  F030         	goto	u5170
  7452   006080                     u5171:
  7453   006080  EF4A  F030         	goto	l5472
  7454   006084                     u5170:
  7455   006084  0E00               	movlw	0
  7456   006086  6E20               	movwf	___flge@ff2^(0+1280),c
  7457   006088  0E00               	movlw	0
  7458   00608A  6E21               	movwf	(___flge@ff2+1)^(0+1280),c
  7459   00608C  0E00               	movlw	0
  7460   00608E  6E22               	movwf	(___flge@ff2+2)^(0+1280),c
  7461   006090  0E00               	movlw	0
  7462   006092  6E23               	movwf	(___flge@ff2+3)^(0+1280),c
  7463   006094                     l5472:
  7464   006094  AE1F               	btfss	(___flge@ff1+3)^(0+1280),7,c
  7465   006096  EF4F  F030         	goto	u5181
  7466   00609A  EF51  F030         	goto	u5180
  7467   00609E                     u5181:
  7468   00609E  EF5A  F030         	goto	l5476
  7469   0060A2                     u5180:
  7470   0060A2  6C1C               	negf	___flge@ff1^(0+1280),c
  7471   0060A4  1E1D               	comf	(___flge@ff1+1)^(0+1280),f,c
  7472   0060A6  B0D8               	btfsc	status,0,c
  7473   0060A8  2A1D               	incf	(___flge@ff1+1)^(0+1280),f,c
  7474   0060AA  1E1E               	comf	(___flge@ff1+2)^(0+1280),f,c
  7475   0060AC  B0D8               	btfsc	status,0,c
  7476   0060AE  2A1E               	incf	(___flge@ff1+2)^(0+1280),f,c
  7477   0060B0  0E80               	movlw	128
  7478   0060B2  561F               	subfwb	(___flge@ff1+3)^(0+1280),f,c
  7479   0060B4                     l5476:
  7480   0060B4  AE23               	btfss	(___flge@ff2+3)^(0+1280),7,c
  7481   0060B6  EF5F  F030         	goto	u5191
  7482   0060BA  EF61  F030         	goto	u5190
  7483   0060BE                     u5191:
  7484   0060BE  EF6A  F030         	goto	l997
  7485   0060C2                     u5190:
  7486   0060C2  6C20               	negf	___flge@ff2^(0+1280),c
  7487   0060C4  1E21               	comf	(___flge@ff2+1)^(0+1280),f,c
  7488   0060C6  B0D8               	btfsc	status,0,c
  7489   0060C8  2A21               	incf	(___flge@ff2+1)^(0+1280),f,c
  7490   0060CA  1E22               	comf	(___flge@ff2+2)^(0+1280),f,c
  7491   0060CC  B0D8               	btfsc	status,0,c
  7492   0060CE  2A22               	incf	(___flge@ff2+2)^(0+1280),f,c
  7493   0060D0  0E80               	movlw	128
  7494   0060D2  5623               	subfwb	(___flge@ff2+3)^(0+1280),f,c
  7495   0060D4                     l997:
  7496   0060D4  0E00               	movlw	0
  7497   0060D6  1A1C               	xorwf	___flge@ff1^(0+1280),f,c
  7498   0060D8  0E00               	movlw	0
  7499   0060DA  1A1D               	xorwf	(___flge@ff1+1)^(0+1280),f,c
  7500   0060DC  0E00               	movlw	0
  7501   0060DE  1A1E               	xorwf	(___flge@ff1+2)^(0+1280),f,c
  7502   0060E0  0E80               	movlw	128
  7503   0060E2  1A1F               	xorwf	(___flge@ff1+3)^(0+1280),f,c
  7504   0060E4  0E00               	movlw	0
  7505   0060E6  1A20               	xorwf	___flge@ff2^(0+1280),f,c
  7506   0060E8  0E00               	movlw	0
  7507   0060EA  1A21               	xorwf	(___flge@ff2+1)^(0+1280),f,c
  7508   0060EC  0E00               	movlw	0
  7509   0060EE  1A22               	xorwf	(___flge@ff2+2)^(0+1280),f,c
  7510   0060F0  0E80               	movlw	128
  7511   0060F2  1A23               	xorwf	(___flge@ff2+3)^(0+1280),f,c
  7512   0060F4  5020               	movf	___flge@ff2^(0+1280),w,c
  7513   0060F6  5C1C               	subwf	___flge@ff1^(0+1280),w,c
  7514   0060F8  5021               	movf	(___flge@ff2+1)^(0+1280),w,c
  7515   0060FA  581D               	subwfb	(___flge@ff1+1)^(0+1280),w,c
  7516   0060FC  5022               	movf	(___flge@ff2+2)^(0+1280),w,c
  7517   0060FE  581E               	subwfb	(___flge@ff1+2)^(0+1280),w,c
  7518   006100  5023               	movf	(___flge@ff2+3)^(0+1280),w,c
  7519   006102  581F               	subwfb	(___flge@ff1+3)^(0+1280),w,c
  7520   006104  B0D8               	btfsc	status,0,c
  7521   006106  EF87  F030         	goto	u5201
  7522   00610A  EF89  F030         	goto	u5200
  7523   00610E                     u5201:
  7524   00610E  EF8C  F030         	goto	l5482
  7525   006112                     u5200:
  7526   006112  90D8               	bcf	status,0,c
  7527   006114  EF8D  F030         	goto	l1002
  7528   006118                     l5482:
  7529   006118  80D8               	bsf	status,0,c
  7530   00611A                     l1002:
  7531   00611A  0012               	return		;funcret
  7532   00611C                     __end_of___flge:
  7533                           	callstack 0
  7534                           
  7535 ;; *************** function ___fleq *****************
  7536 ;; Defined at:
  7537 ;;		line 4 in file "/Applications/microchip/xc8/v2.41/pic/sources/c99/common/fleq.c"
  7538 ;; Parameters:    Size  Location     Type
  7539 ;;  ff1             4    2[COMRAM] unsigned char 
  7540 ;;  ff2             4    6[COMRAM] unsigned char 
  7541 ;; Auto vars:     Size  Location     Type
  7542 ;;		None
  7543 ;; Return value:  Size  Location     Type
  7544 ;;		None               void
  7545 ;; Registers used:
  7546 ;;		wreg, status,2, status,0
  7547 ;; Tracked objects:
  7548 ;;		On entry : 0/0
  7549 ;;		On exit  : 0/0
  7550 ;;		Unchanged: 0/0
  7551 ;; Data sizes:     COMRAM   BANK5   BANK6   BANK7   BANK8   BANK9  BANK10  BANK11  BANK12  BANK13  BANK14  BANK15  BANK1
      +6  BANK17  BANK18  BANK19  BANK20  BANK21  BANK22  BANK23  BANK24  BANK25  BANK26  BANK27  BANK28  BANK29  BANK30  BANK3
      +1  BANK32  BANK33  BANK34  BANK35  BANK36  BANK37  BANK38  BANK39  BANK40  BANK41  BANK42  BANK43  BANK44  BANK45  BANK4
      +6  BANK47  BANK48  BANK49  BANK50  BANK51  BANK52  BANK53  BANK54
  7552 ;;      Params:         8       0       0       0       0       0       0       0       0       0       0       0       
      +0       0       0       0       0       0       0       0       0       0       0       0       0       0       0       
      +0       0       0       0       0       0       0       0       0       0       0       0       0       0       0       
      +0       0       0       0       0       0       0       0       0
  7553 ;;      Locals:         0       0       0       0       0       0       0       0       0       0       0       0       
      +0       0       0       0       0       0       0       0       0       0       0       0       0       0       0       
      +0       0       0       0       0       0       0       0       0       0       0       0       0       0       0       
      +0       0       0       0       0       0       0       0       0
  7554 ;;      Temps:          4       0       0       0       0       0       0       0       0       0       0       0       
      +0       0       0       0       0       0       0       0       0       0       0       0       0       0       0       
      +0       0       0       0       0       0       0       0       0       0       0       0       0       0       0       
      +0       0       0       0       0       0       0       0       0
  7555 ;;      Totals:        12       0       0       0       0       0       0       0       0       0       0       0       
      +0       0       0       0       0       0       0       0       0       0       0       0       0       0       0       
      +0       0       0       0       0       0       0       0       0       0       0       0       0       0       0       
      +0       0       0       0       0       0       0       0       0
  7556 ;;Total ram usage:       12 bytes
  7557 ;; Hardware stack levels used: 1
  7558 ;; Hardware stack levels required when called: 4
  7559 ;; This function calls:
  7560 ;;		Nothing
  7561 ;; This function is called by:
  7562 ;;		_efgtoa
  7563 ;; This function uses a non-reentrant model
  7564 ;;
  7565                           
  7566                           	psect	text41
  7567   0066CE                     __ptext41:
  7568                           	callstack 0
  7569   0066CE                     ___fleq:
  7570                           	callstack 117
  7571   0066CE  0E00               	movlw	0
  7572   0066D0  1403               	andwf	___fleq@ff1^(0+1280),w,c
  7573   0066D2  6E0B               	movwf	??___fleq^(0+1280),c
  7574   0066D4  0E00               	movlw	0
  7575   0066D6  1404               	andwf	(___fleq@ff1+1)^(0+1280),w,c
  7576   0066D8  6E0C               	movwf	(??___fleq+1)^(0+1280),c
  7577   0066DA  0E80               	movlw	128
  7578   0066DC  1405               	andwf	(___fleq@ff1+2)^(0+1280),w,c
  7579   0066DE  6E0D               	movwf	(??___fleq+2)^(0+1280),c
  7580   0066E0  0E7F               	movlw	127
  7581   0066E2  1406               	andwf	(___fleq@ff1+3)^(0+1280),w,c
  7582   0066E4  6E0E               	movwf	(??___fleq+3)^(0+1280),c
  7583   0066E6  500B               	movf	??___fleq^(0+1280),w,c
  7584   0066E8  100C               	iorwf	(??___fleq+1)^(0+1280),w,c
  7585   0066EA  100D               	iorwf	(??___fleq+2)^(0+1280),w,c
  7586   0066EC  100E               	iorwf	(??___fleq+3)^(0+1280),w,c
  7587   0066EE  A4D8               	btfss	status,2,c
  7588   0066F0  EF7C  F033         	goto	u5131
  7589   0066F4  EF7E  F033         	goto	u5130
  7590   0066F8                     u5131:
  7591   0066F8  EF86  F033         	goto	l5452
  7592   0066FC                     u5130:
  7593   0066FC  0E00               	movlw	0
  7594   0066FE  6E03               	movwf	___fleq@ff1^(0+1280),c
  7595   006700  0E00               	movlw	0
  7596   006702  6E04               	movwf	(___fleq@ff1+1)^(0+1280),c
  7597   006704  0E00               	movlw	0
  7598   006706  6E05               	movwf	(___fleq@ff1+2)^(0+1280),c
  7599   006708  0E00               	movlw	0
  7600   00670A  6E06               	movwf	(___fleq@ff1+3)^(0+1280),c
  7601   00670C                     l5452:
  7602   00670C  0E00               	movlw	0
  7603   00670E  1407               	andwf	___fleq@ff2^(0+1280),w,c
  7604   006710  6E0B               	movwf	??___fleq^(0+1280),c
  7605   006712  0E00               	movlw	0
  7606   006714  1408               	andwf	(___fleq@ff2+1)^(0+1280),w,c
  7607   006716  6E0C               	movwf	(??___fleq+1)^(0+1280),c
  7608   006718  0E80               	movlw	128
  7609   00671A  1409               	andwf	(___fleq@ff2+2)^(0+1280),w,c
  7610   00671C  6E0D               	movwf	(??___fleq+2)^(0+1280),c
  7611   00671E  0E7F               	movlw	127
  7612   006720  140A               	andwf	(___fleq@ff2+3)^(0+1280),w,c
  7613   006722  6E0E               	movwf	(??___fleq+3)^(0+1280),c
  7614   006724  500B               	movf	??___fleq^(0+1280),w,c
  7615   006726  100C               	iorwf	(??___fleq+1)^(0+1280),w,c
  7616   006728  100D               	iorwf	(??___fleq+2)^(0+1280),w,c
  7617   00672A  100E               	iorwf	(??___fleq+3)^(0+1280),w,c
  7618   00672C  A4D8               	btfss	status,2,c
  7619   00672E  EF9B  F033         	goto	u5141
  7620   006732  EF9D  F033         	goto	u5140
  7621   006736                     u5141:
  7622   006736  EFA5  F033         	goto	l5456
  7623   00673A                     u5140:
  7624   00673A  0E00               	movlw	0
  7625   00673C  6E07               	movwf	___fleq@ff2^(0+1280),c
  7626   00673E  0E00               	movlw	0
  7627   006740  6E08               	movwf	(___fleq@ff2+1)^(0+1280),c
  7628   006742  0E00               	movlw	0
  7629   006744  6E09               	movwf	(___fleq@ff2+2)^(0+1280),c
  7630   006746  0E00               	movlw	0
  7631   006748  6E0A               	movwf	(___fleq@ff2+3)^(0+1280),c
  7632   00674A                     l5456:
  7633   00674A  5007               	movf	___fleq@ff2^(0+1280),w,c
  7634   00674C  1803               	xorwf	___fleq@ff1^(0+1280),w,c
  7635   00674E  E10F               	bnz	u5150
  7636   006750  5008               	movf	(___fleq@ff2+1)^(0+1280),w,c
  7637   006752  1804               	xorwf	(___fleq@ff1+1)^(0+1280),w,c
  7638   006754  E10C               	bnz	u5150
  7639   006756  5009               	movf	(___fleq@ff2+2)^(0+1280),w,c
  7640   006758  1805               	xorwf	(___fleq@ff1+2)^(0+1280),w,c
  7641   00675A  E109               	bnz	u5150
  7642   00675C  500A               	movf	(___fleq@ff2+3)^(0+1280),w,c
  7643   00675E  1806               	xorwf	(___fleq@ff1+3)^(0+1280),w,c
  7644   006760  B4D8               	btfsc	status,2,c
  7645   006762  EFB5  F033         	goto	u5151
  7646   006766  EFB7  F033         	goto	u5150
  7647   00676A                     u5151:
  7648   00676A  EFBA  F033         	goto	l5460
  7649   00676E                     u5150:
  7650   00676E  90D8               	bcf	status,0,c
  7651   006770  EFBB  F033         	goto	l991
  7652   006774                     l5460:
  7653   006774  80D8               	bsf	status,0,c
  7654   006776                     l991:
  7655   006776  0012               	return		;funcret
  7656   006778                     __end_of___fleq:
  7657                           	callstack 0
  7658                           
  7659 ;; *************** function ___fldiv *****************
  7660 ;; Defined at:
  7661 ;;		line 11 in file "/Applications/microchip/xc8/v2.41/pic/sources/c99/common/sprcdiv.c"
  7662 ;; Parameters:    Size  Location     Type
  7663 ;;  b               4    2[COMRAM] unsigned char 
  7664 ;;  a               4    6[COMRAM] unsigned char 
  7665 ;; Auto vars:     Size  Location     Type
  7666 ;;  grs             4   21[COMRAM] unsigned long 
  7667 ;;  rem             4   14[COMRAM] unsigned long 
  7668 ;;  new_exp         2   19[COMRAM] short 
  7669 ;;  aexp            1   26[COMRAM] unsigned char 
  7670 ;;  bexp            1   25[COMRAM] unsigned char 
  7671 ;;  sign            1   18[COMRAM] unsigned char 
  7672 ;; Return value:  Size  Location     Type
  7673 ;;                  4    2[COMRAM] unsigned char 
  7674 ;; Registers used:
  7675 ;;		wreg, status,2, status,0
  7676 ;; Tracked objects:
  7677 ;;		On entry : 0/0
  7678 ;;		On exit  : 0/0
  7679 ;;		Unchanged: 0/0
  7680 ;; Data sizes:     COMRAM   BANK5   BANK6   BANK7   BANK8   BANK9  BANK10  BANK11  BANK12  BANK13  BANK14  BANK15  BANK1
      +6  BANK17  BANK18  BANK19  BANK20  BANK21  BANK22  BANK23  BANK24  BANK25  BANK26  BANK27  BANK28  BANK29  BANK30  BANK3
      +1  BANK32  BANK33  BANK34  BANK35  BANK36  BANK37  BANK38  BANK39  BANK40  BANK41  BANK42  BANK43  BANK44  BANK45  BANK4
      +6  BANK47  BANK48  BANK49  BANK50  BANK51  BANK52  BANK53  BANK54
  7681 ;;      Params:         8       0       0       0       0       0       0       0       0       0       0       0       
      +0       0       0       0       0       0       0       0       0       0       0       0       0       0       0       
      +0       0       0       0       0       0       0       0       0       0       0       0       0       0       0       
      +0       0       0       0       0       0       0       0       0
  7682 ;;      Locals:        13       0       0       0       0       0       0       0       0       0       0       0       
      +0       0       0       0       0       0       0       0       0       0       0       0       0       0       0       
      +0       0       0       0       0       0       0       0       0       0       0       0       0       0       0       
      +0       0       0       0       0       0       0       0       0
  7683 ;;      Temps:          4       0       0       0       0       0       0       0       0       0       0       0       
      +0       0       0       0       0       0       0       0       0       0       0       0       0       0       0       
      +0       0       0       0       0       0       0       0       0       0       0       0       0       0       0       
      +0       0       0       0       0       0       0       0       0
  7684 ;;      Totals:        25       0       0       0       0       0       0       0       0       0       0       0       
      +0       0       0       0       0       0       0       0       0       0       0       0       0       0       0       
      +0       0       0       0       0       0       0       0       0       0       0       0       0       0       0       
      +0       0       0       0       0       0       0       0       0
  7685 ;;Total ram usage:       25 bytes
  7686 ;; Hardware stack levels used: 1
  7687 ;; Hardware stack levels required when called: 4
  7688 ;; This function calls:
  7689 ;;		Nothing
  7690 ;; This function is called by:
  7691 ;;		_ADC_Temp_routine
  7692 ;;		_efgtoa
  7693 ;; This function uses a non-reentrant model
  7694 ;;
  7695                           
  7696                           	psect	text42
  7697   00537A                     __ptext42:
  7698                           	callstack 0
  7699   00537A                     ___fldiv:
  7700                           	callstack 117
  7701   00537A  5006               	movf	(___fldiv@b+3)^(0+1280),w,c
  7702   00537C  0B80               	andlw	128
  7703   00537E  6E13               	movwf	___fldiv@sign^(0+1280),c
  7704   005380  5006               	movf	(___fldiv@b+3)^(0+1280),w,c
  7705   005382  2406               	addwf	(___fldiv@b+3)^(0+1280),w,c
  7706   005384  6E1A               	movwf	___fldiv@bexp^(0+1280),c
  7707   005386  AE05               	btfss	(___fldiv@b+2)^(0+1280),7,c
  7708   005388  EFC8  F029         	goto	u4711
  7709   00538C  EFCA  F029         	goto	u4710
  7710   005390                     u4711:
  7711   005390  EFCB  F029         	goto	l5180
  7712   005394                     u4710:
  7713   005394  801A               	bsf	___fldiv@bexp^(0+1280),0,c
  7714   005396                     l5180:
  7715   005396  501A               	movf	___fldiv@bexp^(0+1280),w,c
  7716   005398  B4D8               	btfsc	status,2,c
  7717   00539A  EFD1  F029         	goto	u4721
  7718   00539E  EFD3  F029         	goto	u4720
  7719   0053A2                     u4721:
  7720   0053A2  EFE8  F029         	goto	l5190
  7721   0053A6                     u4720:
  7722   0053A6  281A               	incf	___fldiv@bexp^(0+1280),w,c
  7723   0053A8  A4D8               	btfss	status,2,c
  7724   0053AA  EFD9  F029         	goto	u4731
  7725   0053AE  EFDB  F029         	goto	u4730
  7726   0053B2                     u4731:
  7727   0053B2  EFE3  F029         	goto	l5186
  7728   0053B6                     u4730:
  7729   0053B6  0E00               	movlw	0
  7730   0053B8  6E03               	movwf	___fldiv@b^(0+1280),c
  7731   0053BA  0E00               	movlw	0
  7732   0053BC  6E04               	movwf	(___fldiv@b+1)^(0+1280),c
  7733   0053BE  0E00               	movlw	0
  7734   0053C0  6E05               	movwf	(___fldiv@b+2)^(0+1280),c
  7735   0053C2  0E00               	movlw	0
  7736   0053C4  6E06               	movwf	(___fldiv@b+3)^(0+1280),c
  7737   0053C6                     l5186:
  7738   0053C6  8E05               	bsf	(___fldiv@b+2)^(0+1280),7,c
  7739   0053C8  0E00               	movlw	0
  7740   0053CA  6E06               	movwf	(___fldiv@b+3)^(0+1280),c
  7741   0053CC  EFF0  F029         	goto	l5192
  7742   0053D0                     l5190:
  7743   0053D0  0E00               	movlw	0
  7744   0053D2  6E03               	movwf	___fldiv@b^(0+1280),c
  7745   0053D4  0E00               	movlw	0
  7746   0053D6  6E04               	movwf	(___fldiv@b+1)^(0+1280),c
  7747   0053D8  0E00               	movlw	0
  7748   0053DA  6E05               	movwf	(___fldiv@b+2)^(0+1280),c
  7749   0053DC  0E00               	movlw	0
  7750   0053DE  6E06               	movwf	(___fldiv@b+3)^(0+1280),c
  7751   0053E0                     l5192:
  7752   0053E0  500A               	movf	(___fldiv@a+3)^(0+1280),w,c
  7753   0053E2  0B80               	andlw	128
  7754   0053E4  1A13               	xorwf	___fldiv@sign^(0+1280),f,c
  7755   0053E6  500A               	movf	(___fldiv@a+3)^(0+1280),w,c
  7756   0053E8  240A               	addwf	(___fldiv@a+3)^(0+1280),w,c
  7757   0053EA  6E1B               	movwf	___fldiv@aexp^(0+1280),c
  7758   0053EC  AE09               	btfss	(___fldiv@a+2)^(0+1280),7,c
  7759   0053EE  EFFB  F029         	goto	u4741
  7760   0053F2  EFFD  F029         	goto	u4740
  7761   0053F6                     u4741:
  7762   0053F6  EFFE  F029         	goto	l5200
  7763   0053FA                     u4740:
  7764   0053FA  801B               	bsf	___fldiv@aexp^(0+1280),0,c
  7765   0053FC                     l5200:
  7766   0053FC  501B               	movf	___fldiv@aexp^(0+1280),w,c
  7767   0053FE  B4D8               	btfsc	status,2,c
  7768   005400  EF04  F02A         	goto	u4751
  7769   005404  EF06  F02A         	goto	u4750
  7770   005408                     u4751:
  7771   005408  EF1B  F02A         	goto	l5210
  7772   00540C                     u4750:
  7773   00540C  281B               	incf	___fldiv@aexp^(0+1280),w,c
  7774   00540E  A4D8               	btfss	status,2,c
  7775   005410  EF0C  F02A         	goto	u4761
  7776   005414  EF0E  F02A         	goto	u4760
  7777   005418                     u4761:
  7778   005418  EF16  F02A         	goto	l5206
  7779   00541C                     u4760:
  7780   00541C  0E00               	movlw	0
  7781   00541E  6E07               	movwf	___fldiv@a^(0+1280),c
  7782   005420  0E00               	movlw	0
  7783   005422  6E08               	movwf	(___fldiv@a+1)^(0+1280),c
  7784   005424  0E00               	movlw	0
  7785   005426  6E09               	movwf	(___fldiv@a+2)^(0+1280),c
  7786   005428  0E00               	movlw	0
  7787   00542A  6E0A               	movwf	(___fldiv@a+3)^(0+1280),c
  7788   00542C                     l5206:
  7789   00542C  8E09               	bsf	(___fldiv@a+2)^(0+1280),7,c
  7790   00542E  0E00               	movlw	0
  7791   005430  6E0A               	movwf	(___fldiv@a+3)^(0+1280),c
  7792   005432  EF23  F02A         	goto	l5212
  7793   005436                     l5210:
  7794   005436  0E00               	movlw	0
  7795   005438  6E07               	movwf	___fldiv@a^(0+1280),c
  7796   00543A  0E00               	movlw	0
  7797   00543C  6E08               	movwf	(___fldiv@a+1)^(0+1280),c
  7798   00543E  0E00               	movlw	0
  7799   005440  6E09               	movwf	(___fldiv@a+2)^(0+1280),c
  7800   005442  0E00               	movlw	0
  7801   005444  6E0A               	movwf	(___fldiv@a+3)^(0+1280),c
  7802   005446                     l5212:
  7803   005446  5007               	movf	___fldiv@a^(0+1280),w,c
  7804   005448  1008               	iorwf	(___fldiv@a+1)^(0+1280),w,c
  7805   00544A  1009               	iorwf	(___fldiv@a+2)^(0+1280),w,c
  7806   00544C  100A               	iorwf	(___fldiv@a+3)^(0+1280),w,c
  7807   00544E  A4D8               	btfss	status,2,c
  7808   005450  EF2C  F02A         	goto	u4771
  7809   005454  EF2E  F02A         	goto	u4770
  7810   005458                     u4771:
  7811   005458  EF46  F02A         	goto	l5224
  7812   00545C                     u4770:
  7813   00545C  0E00               	movlw	0
  7814   00545E  6E03               	movwf	___fldiv@b^(0+1280),c
  7815   005460  0E00               	movlw	0
  7816   005462  6E04               	movwf	(___fldiv@b+1)^(0+1280),c
  7817   005464  0E00               	movlw	0
  7818   005466  6E05               	movwf	(___fldiv@b+2)^(0+1280),c
  7819   005468  0E00               	movlw	0
  7820   00546A  6E06               	movwf	(___fldiv@b+3)^(0+1280),c
  7821   00546C  0E80               	movlw	128
  7822   00546E  1205               	iorwf	(___fldiv@b+2)^(0+1280),f,c
  7823   005470  0E7F               	movlw	127
  7824   005472  1206               	iorwf	(___fldiv@b+3)^(0+1280),f,c
  7825   005474                     l5218:
  7826   005474  5013               	movf	___fldiv@sign^(0+1280),w,c
  7827   005476  1206               	iorwf	(___fldiv@b+3)^(0+1280),f,c
  7828   005478  C503  F503         	movff	___fldiv@b,?___fldiv
  7829   00547C  C504  F504         	movff	___fldiv@b+1,?___fldiv+1
  7830   005480  C505  F505         	movff	___fldiv@b+2,?___fldiv+2
  7831   005484  C506  F506         	movff	___fldiv@b+3,?___fldiv+3
  7832   005488  EF89  F02B         	goto	l1314
  7833   00548C                     l5224:
  7834   00548C  501A               	movf	___fldiv@bexp^(0+1280),w,c
  7835   00548E  A4D8               	btfss	status,2,c
  7836   005490  EF4C  F02A         	goto	u4781
  7837   005494  EF4E  F02A         	goto	u4780
  7838   005498                     u4781:
  7839   005498  EF58  F02A         	goto	l5232
  7840   00549C                     u4780:
  7841   00549C  0E00               	movlw	0
  7842   00549E  6E03               	movwf	?___fldiv^(0+1280),c
  7843   0054A0  0E00               	movlw	0
  7844   0054A2  6E04               	movwf	(?___fldiv+1)^(0+1280),c
  7845   0054A4  0E00               	movlw	0
  7846   0054A6  6E05               	movwf	(?___fldiv+2)^(0+1280),c
  7847   0054A8  0E00               	movlw	0
  7848   0054AA  6E06               	movwf	(?___fldiv+3)^(0+1280),c
  7849   0054AC  EF89  F02B         	goto	l1314
  7850   0054B0                     l5232:
  7851   0054B0  501B               	movf	___fldiv@aexp^(0+1280),w,c
  7852   0054B2  C51A  F50B         	movff	___fldiv@bexp,??___fldiv
  7853   0054B6  6A0C               	clrf	(??___fldiv+1)^(0+1280),c
  7854   0054B8  5E0B               	subwf	??___fldiv^(0+1280),f,c
  7855   0054BA  0E00               	movlw	0
  7856   0054BC  5A0C               	subwfb	(??___fldiv+1)^(0+1280),f,c
  7857   0054BE  0E7F               	movlw	127
  7858   0054C0  240B               	addwf	??___fldiv^(0+1280),w,c
  7859   0054C2  6E14               	movwf	___fldiv@new_exp^(0+1280),c
  7860   0054C4  0E00               	movlw	0
  7861   0054C6  200C               	addwfc	(??___fldiv+1)^(0+1280),w,c
  7862   0054C8  6E15               	movwf	(___fldiv@new_exp+1)^(0+1280),c
  7863   0054CA  C503  F50F         	movff	___fldiv@b,___fldiv@rem
  7864   0054CE  C504  F510         	movff	___fldiv@b+1,___fldiv@rem+1
  7865   0054D2  C505  F511         	movff	___fldiv@b+2,___fldiv@rem+2
  7866   0054D6  C506  F512         	movff	___fldiv@b+3,___fldiv@rem+3
  7867   0054DA  0E00               	movlw	0
  7868   0054DC  6E03               	movwf	___fldiv@b^(0+1280),c
  7869   0054DE  0E00               	movlw	0
  7870   0054E0  6E04               	movwf	(___fldiv@b+1)^(0+1280),c
  7871   0054E2  0E00               	movlw	0
  7872   0054E4  6E05               	movwf	(___fldiv@b+2)^(0+1280),c
  7873   0054E6  0E00               	movlw	0
  7874   0054E8  6E06               	movwf	(___fldiv@b+3)^(0+1280),c
  7875   0054EA  0E00               	movlw	0
  7876   0054EC  6E16               	movwf	___fldiv@grs^(0+1280),c
  7877   0054EE  0E00               	movlw	0
  7878   0054F0  6E17               	movwf	(___fldiv@grs+1)^(0+1280),c
  7879   0054F2  0E00               	movlw	0
  7880   0054F4  6E18               	movwf	(___fldiv@grs+2)^(0+1280),c
  7881   0054F6  0E00               	movlw	0
  7882   0054F8  6E19               	movwf	(___fldiv@grs+3)^(0+1280),c
  7883   0054FA  0E00               	movlw	0
  7884   0054FC  6E1B               	movwf	___fldiv@aexp^(0+1280),c
  7885   0054FE  EFB9  F02A         	goto	l1316
  7886   005502                     l5242:
  7887   005502  501B               	movf	___fldiv@aexp^(0+1280),w,c
  7888   005504  B4D8               	btfsc	status,2,c
  7889   005506  EF87  F02A         	goto	u4791
  7890   00550A  EF89  F02A         	goto	u4790
  7891   00550E                     u4791:
  7892   00550E  EFA0  F02A         	goto	l5250
  7893   005512                     u4790:
  7894   005512  90D8               	bcf	status,0,c
  7895   005514  360F               	rlcf	___fldiv@rem^(0+1280),f,c
  7896   005516  3610               	rlcf	(___fldiv@rem+1)^(0+1280),f,c
  7897   005518  3611               	rlcf	(___fldiv@rem+2)^(0+1280),f,c
  7898   00551A  3612               	rlcf	(___fldiv@rem+3)^(0+1280),f,c
  7899   00551C  90D8               	bcf	status,0,c
  7900   00551E  3603               	rlcf	___fldiv@b^(0+1280),f,c
  7901   005520  3604               	rlcf	(___fldiv@b+1)^(0+1280),f,c
  7902   005522  3605               	rlcf	(___fldiv@b+2)^(0+1280),f,c
  7903   005524  3606               	rlcf	(___fldiv@b+3)^(0+1280),f,c
  7904   005526  AE19               	btfss	(___fldiv@grs+3)^(0+1280),7,c
  7905   005528  EF98  F02A         	goto	u4801
  7906   00552C  EF9A  F02A         	goto	u4800
  7907   005530                     u4801:
  7908   005530  EF9B  F02A         	goto	l1319
  7909   005534                     u4800:
  7910   005534  8003               	bsf	___fldiv@b^(0+1280),0,c
  7911   005536                     l1319:
  7912   005536  90D8               	bcf	status,0,c
  7913   005538  3616               	rlcf	___fldiv@grs^(0+1280),f,c
  7914   00553A  3617               	rlcf	(___fldiv@grs+1)^(0+1280),f,c
  7915   00553C  3618               	rlcf	(___fldiv@grs+2)^(0+1280),f,c
  7916   00553E  3619               	rlcf	(___fldiv@grs+3)^(0+1280),f,c
  7917   005540                     l5250:
  7918   005540  5007               	movf	___fldiv@a^(0+1280),w,c
  7919   005542  5C0F               	subwf	___fldiv@rem^(0+1280),w,c
  7920   005544  5008               	movf	(___fldiv@a+1)^(0+1280),w,c
  7921   005546  5810               	subwfb	(___fldiv@rem+1)^(0+1280),w,c
  7922   005548  5009               	movf	(___fldiv@a+2)^(0+1280),w,c
  7923   00554A  5811               	subwfb	(___fldiv@rem+2)^(0+1280),w,c
  7924   00554C  500A               	movf	(___fldiv@a+3)^(0+1280),w,c
  7925   00554E  5812               	subwfb	(___fldiv@rem+3)^(0+1280),w,c
  7926   005550  A0D8               	btfss	status,0,c
  7927   005552  EFAD  F02A         	goto	u4811
  7928   005556  EFAF  F02A         	goto	u4810
  7929   00555A                     u4811:
  7930   00555A  EFB8  F02A         	goto	l5256
  7931   00555E                     u4810:
  7932   00555E  8C19               	bsf	(___fldiv@grs+3)^(0+1280),6,c
  7933   005560  5007               	movf	___fldiv@a^(0+1280),w,c
  7934   005562  5E0F               	subwf	___fldiv@rem^(0+1280),f,c
  7935   005564  5008               	movf	(___fldiv@a+1)^(0+1280),w,c
  7936   005566  5A10               	subwfb	(___fldiv@rem+1)^(0+1280),f,c
  7937   005568  5009               	movf	(___fldiv@a+2)^(0+1280),w,c
  7938   00556A  5A11               	subwfb	(___fldiv@rem+2)^(0+1280),f,c
  7939   00556C  500A               	movf	(___fldiv@a+3)^(0+1280),w,c
  7940   00556E  5A12               	subwfb	(___fldiv@rem+3)^(0+1280),f,c
  7941   005570                     l5256:
  7942   005570  2A1B               	incf	___fldiv@aexp^(0+1280),f,c
  7943   005572                     l1316:
  7944   005572  0E19               	movlw	25
  7945   005574  641B               	cpfsgt	___fldiv@aexp^(0+1280),c
  7946   005576  EFBF  F02A         	goto	u4821
  7947   00557A  EFC1  F02A         	goto	u4820
  7948   00557E                     u4821:
  7949   00557E  EF81  F02A         	goto	l5242
  7950   005582                     u4820:
  7951   005582  500F               	movf	___fldiv@rem^(0+1280),w,c
  7952   005584  1010               	iorwf	(___fldiv@rem+1)^(0+1280),w,c
  7953   005586  1011               	iorwf	(___fldiv@rem+2)^(0+1280),w,c
  7954   005588  1012               	iorwf	(___fldiv@rem+3)^(0+1280),w,c
  7955   00558A  B4D8               	btfsc	status,2,c
  7956   00558C  EFCA  F02A         	goto	u4831
  7957   005590  EFCC  F02A         	goto	u4830
  7958   005594                     u4831:
  7959   005594  EFE4  F02A         	goto	l5268
  7960   005598                     u4830:
  7961   005598  8016               	bsf	___fldiv@grs^(0+1280),0,c
  7962   00559A  EFE4  F02A         	goto	l5268
  7963   00559E                     l5262:
  7964   00559E  90D8               	bcf	status,0,c
  7965   0055A0  3603               	rlcf	___fldiv@b^(0+1280),f,c
  7966   0055A2  3604               	rlcf	(___fldiv@b+1)^(0+1280),f,c
  7967   0055A4  3605               	rlcf	(___fldiv@b+2)^(0+1280),f,c
  7968   0055A6  3606               	rlcf	(___fldiv@b+3)^(0+1280),f,c
  7969   0055A8  AE19               	btfss	(___fldiv@grs+3)^(0+1280),7,c
  7970   0055AA  EFD9  F02A         	goto	u4841
  7971   0055AE  EFDB  F02A         	goto	u4840
  7972   0055B2                     u4841:
  7973   0055B2  EFDC  F02A         	goto	l1325
  7974   0055B6                     u4840:
  7975   0055B6  8003               	bsf	___fldiv@b^(0+1280),0,c
  7976   0055B8                     l1325:
  7977   0055B8  90D8               	bcf	status,0,c
  7978   0055BA  3616               	rlcf	___fldiv@grs^(0+1280),f,c
  7979   0055BC  3617               	rlcf	(___fldiv@grs+1)^(0+1280),f,c
  7980   0055BE  3618               	rlcf	(___fldiv@grs+2)^(0+1280),f,c
  7981   0055C0  3619               	rlcf	(___fldiv@grs+3)^(0+1280),f,c
  7982   0055C2  0614               	decf	___fldiv@new_exp^(0+1280),f,c
  7983   0055C4  A0D8               	btfss	status,0,c
  7984   0055C6  0615               	decf	(___fldiv@new_exp+1)^(0+1280),f,c
  7985   0055C8                     l5268:
  7986   0055C8  AE05               	btfss	(___fldiv@b+2)^(0+1280),7,c
  7987   0055CA  EFE9  F02A         	goto	u4851
  7988   0055CE  EFEB  F02A         	goto	u4850
  7989   0055D2                     u4851:
  7990   0055D2  EFCF  F02A         	goto	l5262
  7991   0055D6                     u4850:
  7992   0055D6  0E00               	movlw	0
  7993   0055D8  6E1B               	movwf	___fldiv@aexp^(0+1280),c
  7994   0055DA  AE19               	btfss	(___fldiv@grs+3)^(0+1280),7,c
  7995   0055DC  EFF2  F02A         	goto	u4861
  7996   0055E0  EFF4  F02A         	goto	u4860
  7997   0055E4                     u4861:
  7998   0055E4  EF18  F02B         	goto	l1327
  7999   0055E8                     u4860:
  8000   0055E8  0EFF               	movlw	255
  8001   0055EA  1416               	andwf	___fldiv@grs^(0+1280),w,c
  8002   0055EC  6E0B               	movwf	??___fldiv^(0+1280),c
  8003   0055EE  0EFF               	movlw	255
  8004   0055F0  1417               	andwf	(___fldiv@grs+1)^(0+1280),w,c
  8005   0055F2  6E0C               	movwf	(??___fldiv+1)^(0+1280),c
  8006   0055F4  0EFF               	movlw	255
  8007   0055F6  1418               	andwf	(___fldiv@grs+2)^(0+1280),w,c
  8008   0055F8  6E0D               	movwf	(??___fldiv+2)^(0+1280),c
  8009   0055FA  0E7F               	movlw	127
  8010   0055FC  1419               	andwf	(___fldiv@grs+3)^(0+1280),w,c
  8011   0055FE  6E0E               	movwf	(??___fldiv+3)^(0+1280),c
  8012   005600  500B               	movf	??___fldiv^(0+1280),w,c
  8013   005602  100C               	iorwf	(??___fldiv+1)^(0+1280),w,c
  8014   005604  100D               	iorwf	(??___fldiv+2)^(0+1280),w,c
  8015   005606  100E               	iorwf	(??___fldiv+3)^(0+1280),w,c
  8016   005608  B4D8               	btfsc	status,2,c
  8017   00560A  EF09  F02B         	goto	u4871
  8018   00560E  EF0B  F02B         	goto	u4870
  8019   005612                     u4871:
  8020   005612  EF0F  F02B         	goto	l1328
  8021   005616                     u4870:
  8022   005616                     l5276:
  8023   005616  0E01               	movlw	1
  8024   005618  6E1B               	movwf	___fldiv@aexp^(0+1280),c
  8025   00561A  EF18  F02B         	goto	l1327
  8026   00561E                     l1328:
  8027   00561E  A003               	btfss	___fldiv@b^(0+1280),0,c
  8028   005620  EF14  F02B         	goto	u4881
  8029   005624  EF16  F02B         	goto	u4880
  8030   005628                     u4881:
  8031   005628  EF18  F02B         	goto	l1327
  8032   00562C                     u4880:
  8033   00562C  EF0B  F02B         	goto	l5276
  8034   005630                     l1327:
  8035   005630  501B               	movf	___fldiv@aexp^(0+1280),w,c
  8036   005632  B4D8               	btfsc	status,2,c
  8037   005634  EF1E  F02B         	goto	u4891
  8038   005638  EF20  F02B         	goto	u4890
  8039   00563C                     u4891:
  8040   00563C  EF44  F02B         	goto	l5288
  8041   005640                     u4890:
  8042   005640  0E01               	movlw	1
  8043   005642  2603               	addwf	___fldiv@b^(0+1280),f,c
  8044   005644  0E00               	movlw	0
  8045   005646  2204               	addwfc	(___fldiv@b+1)^(0+1280),f,c
  8046   005648  2205               	addwfc	(___fldiv@b+2)^(0+1280),f,c
  8047   00564A  2206               	addwfc	(___fldiv@b+3)^(0+1280),f,c
  8048   00564C  A006               	btfss	(___fldiv@b+3)^(0+1280),0,c
  8049   00564E  EF2B  F02B         	goto	u4901
  8050   005652  EF2D  F02B         	goto	u4900
  8051   005656                     u4901:
  8052   005656  EF44  F02B         	goto	l5288
  8053   00565A                     u4900:
  8054   00565A  C503  F50B         	movff	___fldiv@b,??___fldiv
  8055   00565E  C504  F50C         	movff	___fldiv@b+1,??___fldiv+1
  8056   005662  C505  F50D         	movff	___fldiv@b+2,??___fldiv+2
  8057   005666  C506  F50E         	movff	___fldiv@b+3,??___fldiv+3
  8058   00566A  340E               	rlcf	(??___fldiv+3)^(0+1280),w,c
  8059   00566C  320E               	rrcf	(??___fldiv+3)^(0+1280),f,c
  8060   00566E  320D               	rrcf	(??___fldiv+2)^(0+1280),f,c
  8061   005670  320C               	rrcf	(??___fldiv+1)^(0+1280),f,c
  8062   005672  320B               	rrcf	??___fldiv^(0+1280),f,c
  8063   005674  C50B  F503         	movff	??___fldiv,___fldiv@b
  8064   005678  C50C  F504         	movff	??___fldiv+1,___fldiv@b+1
  8065   00567C  C50D  F505         	movff	??___fldiv+2,___fldiv@b+2
  8066   005680  C50E  F506         	movff	??___fldiv+3,___fldiv@b+3
  8067   005684  4A14               	infsnz	___fldiv@new_exp^(0+1280),f,c
  8068   005686  2A15               	incf	(___fldiv@new_exp+1)^(0+1280),f,c
  8069   005688                     l5288:
  8070   005688  BE15               	btfsc	(___fldiv@new_exp+1)^(0+1280),7,c
  8071   00568A  EF4F  F02B         	goto	u4911
  8072   00568E  5015               	movf	(___fldiv@new_exp+1)^(0+1280),w,c
  8073   005690  E108               	bnz	u4910
  8074   005692  2814               	incf	___fldiv@new_exp^(0+1280),w,c
  8075   005694  A0D8               	btfss	status,0,c
  8076   005696  EF4F  F02B         	goto	u4911
  8077   00569A  EF51  F02B         	goto	u4910
  8078   00569E                     u4911:
  8079   00569E  EF5C  F02B         	goto	l5292
  8080   0056A2                     u4910:
  8081   0056A2  0E00               	movlw	0
  8082   0056A4  6E15               	movwf	(___fldiv@new_exp+1)^(0+1280),c
  8083   0056A6  6814               	setf	___fldiv@new_exp^(0+1280),c
  8084   0056A8  0E00               	movlw	0
  8085   0056AA  6E03               	movwf	___fldiv@b^(0+1280),c
  8086   0056AC  0E00               	movlw	0
  8087   0056AE  6E04               	movwf	(___fldiv@b+1)^(0+1280),c
  8088   0056B0  0E00               	movlw	0
  8089   0056B2  6E05               	movwf	(___fldiv@b+2)^(0+1280),c
  8090   0056B4  0E00               	movlw	0
  8091   0056B6  6E06               	movwf	(___fldiv@b+3)^(0+1280),c
  8092   0056B8                     l5292:
  8093   0056B8  BE15               	btfsc	(___fldiv@new_exp+1)^(0+1280),7,c
  8094   0056BA  EF69  F02B         	goto	u4920
  8095   0056BE  5015               	movf	(___fldiv@new_exp+1)^(0+1280),w,c
  8096   0056C0  E106               	bnz	u4921
  8097   0056C2  0414               	decf	___fldiv@new_exp^(0+1280),w,c
  8098   0056C4  B0D8               	btfsc	status,0,c
  8099   0056C6  EF67  F02B         	goto	u4921
  8100   0056CA  EF69  F02B         	goto	u4920
  8101   0056CE                     u4921:
  8102   0056CE  EF77  F02B         	goto	l5296
  8103   0056D2                     u4920:
  8104   0056D2  0E00               	movlw	0
  8105   0056D4  6E15               	movwf	(___fldiv@new_exp+1)^(0+1280),c
  8106   0056D6  0E00               	movlw	0
  8107   0056D8  6E14               	movwf	___fldiv@new_exp^(0+1280),c
  8108   0056DA  0E00               	movlw	0
  8109   0056DC  6E03               	movwf	___fldiv@b^(0+1280),c
  8110   0056DE  0E00               	movlw	0
  8111   0056E0  6E04               	movwf	(___fldiv@b+1)^(0+1280),c
  8112   0056E2  0E00               	movlw	0
  8113   0056E4  6E05               	movwf	(___fldiv@b+2)^(0+1280),c
  8114   0056E6  0E00               	movlw	0
  8115   0056E8  6E06               	movwf	(___fldiv@b+3)^(0+1280),c
  8116   0056EA  0E00               	movlw	0
  8117   0056EC  6E13               	movwf	___fldiv@sign^(0+1280),c
  8118   0056EE                     l5296:
  8119   0056EE  C514  F51A         	movff	___fldiv@new_exp,___fldiv@bexp
  8120   0056F2  A01A               	btfss	___fldiv@bexp^(0+1280),0,c
  8121   0056F4  EF7E  F02B         	goto	u4931
  8122   0056F8  EF80  F02B         	goto	u4930
  8123   0056FC                     u4931:
  8124   0056FC  EF83  F02B         	goto	l5302
  8125   005700                     u4930:
  8126   005700  8E05               	bsf	(___fldiv@b+2)^(0+1280),7,c
  8127   005702  EF84  F02B         	goto	l5304
  8128   005706                     l5302:
  8129   005706  9E05               	bcf	(___fldiv@b+2)^(0+1280),7,c
  8130   005708                     l5304:
  8131   005708  90D8               	bcf	status,0,c
  8132   00570A  301A               	rrcf	___fldiv@bexp^(0+1280),w,c
  8133   00570C  6E06               	movwf	(___fldiv@b+3)^(0+1280),c
  8134   00570E  EF3A  F02A         	goto	l5218
  8135   005712                     l1314:
  8136   005712  0012               	return		;funcret
  8137   005714                     __end_of___fldiv:
  8138                           	callstack 0
  8139                           
  8140 ;; *************** function ___xxtofl *****************
  8141 ;; Defined at:
  8142 ;;		line 10 in file "/Applications/microchip/xc8/v2.41/pic/sources/c99/common/xxtofl.c"
  8143 ;; Parameters:    Size  Location     Type
  8144 ;;  sign            1    wreg     unsigned char 
  8145 ;;  val             4    2[COMRAM] long 
  8146 ;; Auto vars:     Size  Location     Type
  8147 ;;  sign            1   10[COMRAM] unsigned char 
  8148 ;;  arg             4   12[COMRAM] unsigned long 
  8149 ;;  exp             1   11[COMRAM] unsigned char 
  8150 ;; Return value:  Size  Location     Type
  8151 ;;                  4    2[COMRAM] unsigned char 
  8152 ;; Registers used:
  8153 ;;		wreg, status,2, status,0
  8154 ;; Tracked objects:
  8155 ;;		On entry : 0/0
  8156 ;;		On exit  : 0/0
  8157 ;;		Unchanged: 0/0
  8158 ;; Data sizes:     COMRAM   BANK5   BANK6   BANK7   BANK8   BANK9  BANK10  BANK11  BANK12  BANK13  BANK14  BANK15  BANK1
      +6  BANK17  BANK18  BANK19  BANK20  BANK21  BANK22  BANK23  BANK24  BANK25  BANK26  BANK27  BANK28  BANK29  BANK30  BANK3
      +1  BANK32  BANK33  BANK34  BANK35  BANK36  BANK37  BANK38  BANK39  BANK40  BANK41  BANK42  BANK43  BANK44  BANK45  BANK4
      +6  BANK47  BANK48  BANK49  BANK50  BANK51  BANK52  BANK53  BANK54
  8159 ;;      Params:         4       0       0       0       0       0       0       0       0       0       0       0       
      +0       0       0       0       0       0       0       0       0       0       0       0       0       0       0       
      +0       0       0       0       0       0       0       0       0       0       0       0       0       0       0       
      +0       0       0       0       0       0       0       0       0
  8160 ;;      Locals:         6       0       0       0       0       0       0       0       0       0       0       0       
      +0       0       0       0       0       0       0       0       0       0       0       0       0       0       0       
      +0       0       0       0       0       0       0       0       0       0       0       0       0       0       0       
      +0       0       0       0       0       0       0       0       0
  8161 ;;      Temps:          4       0       0       0       0       0       0       0       0       0       0       0       
      +0       0       0       0       0       0       0       0       0       0       0       0       0       0       0       
      +0       0       0       0       0       0       0       0       0       0       0       0       0       0       0       
      +0       0       0       0       0       0       0       0       0
  8162 ;;      Totals:        14       0       0       0       0       0       0       0       0       0       0       0       
      +0       0       0       0       0       0       0       0       0       0       0       0       0       0       0       
      +0       0       0       0       0       0       0       0       0       0       0       0       0       0       0       
      +0       0       0       0       0       0       0       0       0
  8163 ;;Total ram usage:       14 bytes
  8164 ;; Hardware stack levels used: 1
  8165 ;; Hardware stack levels required when called: 4
  8166 ;; This function calls:
  8167 ;;		Nothing
  8168 ;; This function is called by:
  8169 ;;		_ADC_Temp_routine
  8170 ;; This function uses a non-reentrant model
  8171 ;;
  8172                           
  8173                           	psect	text43
  8174   005D5E                     __ptext43:
  8175                           	callstack 0
  8176   005D5E                     ___xxtofl:
  8177                           	callstack 121
  8178                           
  8179                           ;incstack = 0
  8180                           ;___xxtofl@sign stored from wreg
  8181   005D5E  6E0B               	movwf	___xxtofl@sign^(0+1280),c
  8182   005D60  500B               	movf	___xxtofl@sign^(0+1280),w,c
  8183   005D62  B4D8               	btfsc	status,2,c
  8184   005D64  EFB6  F02E         	goto	u5981
  8185   005D68  EFB8  F02E         	goto	u5980
  8186   005D6C                     u5981:
  8187   005D6C  EFDA  F02E         	goto	l1387
  8188   005D70                     u5980:
  8189   005D70  BE06               	btfsc	(___xxtofl@val+3)^(0+1280),7,c
  8190   005D72  EFBF  F02E         	goto	u5990
  8191   005D76  EFBD  F02E         	goto	u5991
  8192   005D7A                     u5991:
  8193   005D7A  EFDA  F02E         	goto	l1387
  8194   005D7E                     u5990:
  8195   005D7E  C503  F507         	movff	___xxtofl@val,??___xxtofl
  8196   005D82  C504  F508         	movff	___xxtofl@val+1,??___xxtofl+1
  8197   005D86  C505  F509         	movff	___xxtofl@val+2,??___xxtofl+2
  8198   005D8A  C506  F50A         	movff	___xxtofl@val+3,??___xxtofl+3
  8199   005D8E  1E07               	comf	??___xxtofl^(0+1280),f,c
  8200   005D90  1E08               	comf	(??___xxtofl+1)^(0+1280),f,c
  8201   005D92  1E09               	comf	(??___xxtofl+2)^(0+1280),f,c
  8202   005D94  1E0A               	comf	(??___xxtofl+3)^(0+1280),f,c
  8203   005D96  2A07               	incf	??___xxtofl^(0+1280),f,c
  8204   005D98  0E00               	movlw	0
  8205   005D9A  2208               	addwfc	(??___xxtofl+1)^(0+1280),f,c
  8206   005D9C  2209               	addwfc	(??___xxtofl+2)^(0+1280),f,c
  8207   005D9E  220A               	addwfc	(??___xxtofl+3)^(0+1280),f,c
  8208   005DA0  C507  F50D         	movff	??___xxtofl,___xxtofl@arg
  8209   005DA4  C508  F50E         	movff	??___xxtofl+1,___xxtofl@arg+1
  8210   005DA8  C509  F50F         	movff	??___xxtofl+2,___xxtofl@arg+2
  8211   005DAC  C50A  F510         	movff	??___xxtofl+3,___xxtofl@arg+3
  8212   005DB0  EFE2  F02E         	goto	l6032
  8213   005DB4                     l1387:
  8214   005DB4  C503  F50D         	movff	___xxtofl@val,___xxtofl@arg
  8215   005DB8  C504  F50E         	movff	___xxtofl@val+1,___xxtofl@arg+1
  8216   005DBC  C505  F50F         	movff	___xxtofl@val+2,___xxtofl@arg+2
  8217   005DC0  C506  F510         	movff	___xxtofl@val+3,___xxtofl@arg+3
  8218   005DC4                     l6032:
  8219   005DC4  5003               	movf	___xxtofl@val^(0+1280),w,c
  8220   005DC6  1004               	iorwf	(___xxtofl@val+1)^(0+1280),w,c
  8221   005DC8  1005               	iorwf	(___xxtofl@val+2)^(0+1280),w,c
  8222   005DCA  1006               	iorwf	(___xxtofl@val+3)^(0+1280),w,c
  8223   005DCC  A4D8               	btfss	status,2,c
  8224   005DCE  EFEB  F02E         	goto	u6001
  8225   005DD2  EFED  F02E         	goto	u6000
  8226   005DD6                     u6001:
  8227   005DD6  EFF7  F02E         	goto	l6038
  8228   005DDA                     u6000:
  8229   005DDA  0E00               	movlw	0
  8230   005DDC  6E03               	movwf	?___xxtofl^(0+1280),c
  8231   005DDE  0E00               	movlw	0
  8232   005DE0  6E04               	movwf	(?___xxtofl+1)^(0+1280),c
  8233   005DE2  0E00               	movlw	0
  8234   005DE4  6E05               	movwf	(?___xxtofl+2)^(0+1280),c
  8235   005DE6  0E00               	movlw	0
  8236   005DE8  6E06               	movwf	(?___xxtofl+3)^(0+1280),c
  8237   005DEA  EF88  F02F         	goto	l1390
  8238   005DEE                     l6038:
  8239   005DEE  0E96               	movlw	150
  8240   005DF0  6E0C               	movwf	___xxtofl@exp^(0+1280),c
  8241   005DF2  EF01  F02F         	goto	l6042
  8242   005DF6                     l6040:
  8243   005DF6  2A0C               	incf	___xxtofl@exp^(0+1280),f,c
  8244   005DF8  90D8               	bcf	status,0,c
  8245   005DFA  3210               	rrcf	(___xxtofl@arg+3)^(0+1280),f,c
  8246   005DFC  320F               	rrcf	(___xxtofl@arg+2)^(0+1280),f,c
  8247   005DFE  320E               	rrcf	(___xxtofl@arg+1)^(0+1280),f,c
  8248   005E00  320D               	rrcf	___xxtofl@arg^(0+1280),f,c
  8249   005E02                     l6042:
  8250   005E02  0E00               	movlw	0
  8251   005E04  140D               	andwf	___xxtofl@arg^(0+1280),w,c
  8252   005E06  6E07               	movwf	??___xxtofl^(0+1280),c
  8253   005E08  0E00               	movlw	0
  8254   005E0A  140E               	andwf	(___xxtofl@arg+1)^(0+1280),w,c
  8255   005E0C  6E08               	movwf	(??___xxtofl+1)^(0+1280),c
  8256   005E0E  0E00               	movlw	0
  8257   005E10  140F               	andwf	(___xxtofl@arg+2)^(0+1280),w,c
  8258   005E12  6E09               	movwf	(??___xxtofl+2)^(0+1280),c
  8259   005E14  0EFE               	movlw	254
  8260   005E16  1410               	andwf	(___xxtofl@arg+3)^(0+1280),w,c
  8261   005E18  6E0A               	movwf	(??___xxtofl+3)^(0+1280),c
  8262   005E1A  5007               	movf	??___xxtofl^(0+1280),w,c
  8263   005E1C  1008               	iorwf	(??___xxtofl+1)^(0+1280),w,c
  8264   005E1E  1009               	iorwf	(??___xxtofl+2)^(0+1280),w,c
  8265   005E20  100A               	iorwf	(??___xxtofl+3)^(0+1280),w,c
  8266   005E22  A4D8               	btfss	status,2,c
  8267   005E24  EF16  F02F         	goto	u6011
  8268   005E28  EF18  F02F         	goto	u6010
  8269   005E2C                     u6011:
  8270   005E2C  EFFB  F02E         	goto	l6040
  8271   005E30                     u6010:
  8272   005E30  EF26  F02F         	goto	l1394
  8273   005E34                     l6044:
  8274   005E34  2A0C               	incf	___xxtofl@exp^(0+1280),f,c
  8275   005E36  0E01               	movlw	1
  8276   005E38  260D               	addwf	___xxtofl@arg^(0+1280),f,c
  8277   005E3A  0E00               	movlw	0
  8278   005E3C  220E               	addwfc	(___xxtofl@arg+1)^(0+1280),f,c
  8279   005E3E  220F               	addwfc	(___xxtofl@arg+2)^(0+1280),f,c
  8280   005E40  2210               	addwfc	(___xxtofl@arg+3)^(0+1280),f,c
  8281   005E42  90D8               	bcf	status,0,c
  8282   005E44  3210               	rrcf	(___xxtofl@arg+3)^(0+1280),f,c
  8283   005E46  320F               	rrcf	(___xxtofl@arg+2)^(0+1280),f,c
  8284   005E48  320E               	rrcf	(___xxtofl@arg+1)^(0+1280),f,c
  8285   005E4A  320D               	rrcf	___xxtofl@arg^(0+1280),f,c
  8286   005E4C                     l1394:
  8287   005E4C  0E00               	movlw	0
  8288   005E4E  140D               	andwf	___xxtofl@arg^(0+1280),w,c
  8289   005E50  6E07               	movwf	??___xxtofl^(0+1280),c
  8290   005E52  0E00               	movlw	0
  8291   005E54  140E               	andwf	(___xxtofl@arg+1)^(0+1280),w,c
  8292   005E56  6E08               	movwf	(??___xxtofl+1)^(0+1280),c
  8293   005E58  0E00               	movlw	0
  8294   005E5A  140F               	andwf	(___xxtofl@arg+2)^(0+1280),w,c
  8295   005E5C  6E09               	movwf	(??___xxtofl+2)^(0+1280),c
  8296   005E5E  0EFF               	movlw	255
  8297   005E60  1410               	andwf	(___xxtofl@arg+3)^(0+1280),w,c
  8298   005E62  6E0A               	movwf	(??___xxtofl+3)^(0+1280),c
  8299   005E64  5007               	movf	??___xxtofl^(0+1280),w,c
  8300   005E66  1008               	iorwf	(??___xxtofl+1)^(0+1280),w,c
  8301   005E68  1009               	iorwf	(??___xxtofl+2)^(0+1280),w,c
  8302   005E6A  100A               	iorwf	(??___xxtofl+3)^(0+1280),w,c
  8303   005E6C  A4D8               	btfss	status,2,c
  8304   005E6E  EF3B  F02F         	goto	u6021
  8305   005E72  EF3D  F02F         	goto	u6020
  8306   005E76                     u6021:
  8307   005E76  EF1A  F02F         	goto	l6044
  8308   005E7A                     u6020:
  8309   005E7A  EF45  F02F         	goto	l6052
  8310   005E7E                     l6050:
  8311   005E7E  060C               	decf	___xxtofl@exp^(0+1280),f,c
  8312   005E80  90D8               	bcf	status,0,c
  8313   005E82  360D               	rlcf	___xxtofl@arg^(0+1280),f,c
  8314   005E84  360E               	rlcf	(___xxtofl@arg+1)^(0+1280),f,c
  8315   005E86  360F               	rlcf	(___xxtofl@arg+2)^(0+1280),f,c
  8316   005E88  3610               	rlcf	(___xxtofl@arg+3)^(0+1280),f,c
  8317   005E8A                     l6052:
  8318   005E8A  BE0F               	btfsc	(___xxtofl@arg+2)^(0+1280),7,c
  8319   005E8C  EF4A  F02F         	goto	u6031
  8320   005E90  EF4C  F02F         	goto	u6030
  8321   005E94                     u6031:
  8322   005E94  EF54  F02F         	goto	l1401
  8323   005E98                     u6030:
  8324   005E98  0E02               	movlw	2
  8325   005E9A  600C               	cpfslt	___xxtofl@exp^(0+1280),c
  8326   005E9C  EF52  F02F         	goto	u6041
  8327   005EA0  EF54  F02F         	goto	u6040
  8328   005EA4                     u6041:
  8329   005EA4  EF3F  F02F         	goto	l6050
  8330   005EA8                     u6040:
  8331   005EA8                     l1401:
  8332   005EA8  B00C               	btfsc	___xxtofl@exp^(0+1280),0,c
  8333   005EAA  EF59  F02F         	goto	u6051
  8334   005EAE  EF5B  F02F         	goto	u6050
  8335   005EB2                     u6051:
  8336   005EB2  EF5C  F02F         	goto	l6058
  8337   005EB6                     u6050:
  8338   005EB6  9E0F               	bcf	(___xxtofl@arg+2)^(0+1280),7,c
  8339   005EB8                     l6058:
  8340   005EB8  90D8               	bcf	status,0,c
  8341   005EBA  320C               	rrcf	___xxtofl@exp^(0+1280),f,c
  8342   005EBC  C50C  F507         	movff	___xxtofl@exp,??___xxtofl
  8343   005EC0  6A08               	clrf	(??___xxtofl+1)^(0+1280),c
  8344   005EC2  6A09               	clrf	(??___xxtofl+2)^(0+1280),c
  8345   005EC4  6A0A               	clrf	(??___xxtofl+3)^(0+1280),c
  8346   005EC6  C507  F50A         	movff	??___xxtofl,??___xxtofl+3
  8347   005ECA  6A09               	clrf	(??___xxtofl+2)^(0+1280),c
  8348   005ECC  6A08               	clrf	(??___xxtofl+1)^(0+1280),c
  8349   005ECE  6A07               	clrf	??___xxtofl^(0+1280),c
  8350   005ED0  5007               	movf	??___xxtofl^(0+1280),w,c
  8351   005ED2  120D               	iorwf	___xxtofl@arg^(0+1280),f,c
  8352   005ED4  5008               	movf	(??___xxtofl+1)^(0+1280),w,c
  8353   005ED6  120E               	iorwf	(___xxtofl@arg+1)^(0+1280),f,c
  8354   005ED8  5009               	movf	(??___xxtofl+2)^(0+1280),w,c
  8355   005EDA  120F               	iorwf	(___xxtofl@arg+2)^(0+1280),f,c
  8356   005EDC  500A               	movf	(??___xxtofl+3)^(0+1280),w,c
  8357   005EDE  1210               	iorwf	(___xxtofl@arg+3)^(0+1280),f,c
  8358   005EE0  500B               	movf	___xxtofl@sign^(0+1280),w,c
  8359   005EE2  B4D8               	btfsc	status,2,c
  8360   005EE4  EF76  F02F         	goto	u6061
  8361   005EE8  EF78  F02F         	goto	u6060
  8362   005EEC                     u6061:
  8363   005EEC  EF80  F02F         	goto	l6068
  8364   005EF0                     u6060:
  8365   005EF0  BE06               	btfsc	(___xxtofl@val+3)^(0+1280),7,c
  8366   005EF2  EF7F  F02F         	goto	u6070
  8367   005EF6  EF7D  F02F         	goto	u6071
  8368   005EFA                     u6071:
  8369   005EFA  EF80  F02F         	goto	l6068
  8370   005EFE                     u6070:
  8371   005EFE  8E10               	bsf	(___xxtofl@arg+3)^(0+1280),7,c
  8372   005F00                     l6068:
  8373   005F00  C50D  F503         	movff	___xxtofl@arg,?___xxtofl
  8374   005F04  C50E  F504         	movff	___xxtofl@arg+1,?___xxtofl+1
  8375   005F08  C50F  F505         	movff	___xxtofl@arg+2,?___xxtofl+2
  8376   005F0C  C510  F506         	movff	___xxtofl@arg+3,?___xxtofl+3
  8377   005F10                     l1390:
  8378   005F10  0012               	return		;funcret
  8379   005F12                     __end_of___xxtofl:
  8380                           	callstack 0
  8381                           
  8382 ;; *************** function ___tmul *****************
  8383 ;; Defined at:
  8384 ;;		line 15 in file "/Applications/microchip/xc8/v2.41/pic/sources/c99/common/Umul24.c"
  8385 ;; Parameters:    Size  Location     Type
  8386 ;;  multiplier      3    2[COMRAM] unsigned um
  8387 ;;  multiplicand    3    5[COMRAM] unsigned um
  8388 ;; Auto vars:     Size  Location     Type
  8389 ;;  product         3    8[COMRAM] unsigned um
  8390 ;; Return value:  Size  Location     Type
  8391 ;;                  3    2[COMRAM] unsigned um
  8392 ;; Registers used:
  8393 ;;		wreg, status,2, status,0
  8394 ;; Tracked objects:
  8395 ;;		On entry : 0/0
  8396 ;;		On exit  : 0/0
  8397 ;;		Unchanged: 0/0
  8398 ;; Data sizes:     COMRAM   BANK5   BANK6   BANK7   BANK8   BANK9  BANK10  BANK11  BANK12  BANK13  BANK14  BANK15  BANK1
      +6  BANK17  BANK18  BANK19  BANK20  BANK21  BANK22  BANK23  BANK24  BANK25  BANK26  BANK27  BANK28  BANK29  BANK30  BANK3
      +1  BANK32  BANK33  BANK34  BANK35  BANK36  BANK37  BANK38  BANK39  BANK40  BANK41  BANK42  BANK43  BANK44  BANK45  BANK4
      +6  BANK47  BANK48  BANK49  BANK50  BANK51  BANK52  BANK53  BANK54
  8399 ;;      Params:         6       0       0       0       0       0       0       0       0       0       0       0       
      +0       0       0       0       0       0       0       0       0       0       0       0       0       0       0       
      +0       0       0       0       0       0       0       0       0       0       0       0       0       0       0       
      +0       0       0       0       0       0       0       0       0
  8400 ;;      Locals:         3       0       0       0       0       0       0       0       0       0       0       0       
      +0       0       0       0       0       0       0       0       0       0       0       0       0       0       0       
      +0       0       0       0       0       0       0       0       0       0       0       0       0       0       0       
      +0       0       0       0       0       0       0       0       0
  8401 ;;      Temps:          0       0       0       0       0       0       0       0       0       0       0       0       
      +0       0       0       0       0       0       0       0       0       0       0       0       0       0       0       
      +0       0       0       0       0       0       0       0       0       0       0       0       0       0       0       
      +0       0       0       0       0       0       0       0       0
  8402 ;;      Totals:         9       0       0       0       0       0       0       0       0       0       0       0       
      +0       0       0       0       0       0       0       0       0       0       0       0       0       0       0       
      +0       0       0       0       0       0       0       0       0       0       0       0       0       0       0       
      +0       0       0       0       0       0       0       0       0
  8403 ;;Total ram usage:        9 bytes
  8404 ;; Hardware stack levels used: 1
  8405 ;; Hardware stack levels required when called: 4
  8406 ;; This function calls:
  8407 ;;		Nothing
  8408 ;; This function is called by:
  8409 ;;		_ADC_Temp_routine
  8410 ;; This function uses a non-reentrant model
  8411 ;;
  8412                           
  8413                           	psect	text44
  8414   0069D8                     __ptext44:
  8415                           	callstack 0
  8416   0069D8                     ___tmul:
  8417                           	callstack 121
  8418   0069D8  0E00               	movlw	0
  8419   0069DA  6E09               	movwf	___tmul@product^(0+1280),c
  8420   0069DC  0E00               	movlw	0
  8421   0069DE  6E0A               	movwf	(___tmul@product+1)^(0+1280),c
  8422   0069E0  0E00               	movlw	0
  8423   0069E2  6E0B               	movwf	(___tmul@product+2)^(0+1280),c
  8424   0069E4                     l5976:
  8425   0069E4  A003               	btfss	___tmul@multiplier^(0+1280),0,c
  8426   0069E6  EFF7  F034         	goto	u5901
  8427   0069EA  EFF9  F034         	goto	u5900
  8428   0069EE                     u5901:
  8429   0069EE  EFFF  F034         	goto	l5980
  8430   0069F2                     u5900:
  8431   0069F2  5006               	movf	___tmul@multiplicand^(0+1280),w,c
  8432   0069F4  2609               	addwf	___tmul@product^(0+1280),f,c
  8433   0069F6  5007               	movf	(___tmul@multiplicand+1)^(0+1280),w,c
  8434   0069F8  220A               	addwfc	(___tmul@product+1)^(0+1280),f,c
  8435   0069FA  5008               	movf	(___tmul@multiplicand+2)^(0+1280),w,c
  8436   0069FC  220B               	addwfc	(___tmul@product+2)^(0+1280),f,c
  8437   0069FE                     l5980:
  8438   0069FE  90D8               	bcf	status,0,c
  8439   006A00  3606               	rlcf	___tmul@multiplicand^(0+1280),f,c
  8440   006A02  3607               	rlcf	(___tmul@multiplicand+1)^(0+1280),f,c
  8441   006A04  3608               	rlcf	(___tmul@multiplicand+2)^(0+1280),f,c
  8442   006A06  90D8               	bcf	status,0,c
  8443   006A08  3205               	rrcf	(___tmul@multiplier+2)^(0+1280),f,c
  8444   006A0A  3204               	rrcf	(___tmul@multiplier+1)^(0+1280),f,c
  8445   006A0C  3203               	rrcf	___tmul@multiplier^(0+1280),f,c
  8446   006A0E  5003               	movf	___tmul@multiplier^(0+1280),w,c
  8447   006A10  1004               	iorwf	(___tmul@multiplier+1)^(0+1280),w,c
  8448   006A12  1005               	iorwf	(___tmul@multiplier+2)^(0+1280),w,c
  8449   006A14  A4D8               	btfss	status,2,c
  8450   006A16  EF0F  F035         	goto	u5911
  8451   006A1A  EF11  F035         	goto	u5910
  8452   006A1E                     u5911:
  8453   006A1E  EFF2  F034         	goto	l5976
  8454   006A22                     u5910:
  8455   006A22  C509  F503         	movff	___tmul@product,?___tmul
  8456   006A26  C50A  F504         	movff	___tmul@product+1,?___tmul+1
  8457   006A2A  C50B  F505         	movff	___tmul@product+2,?___tmul+2
  8458   006A2E  0012               	return		;funcret
  8459   006A30                     __end_of___tmul:
  8460                           	callstack 0
  8461                           
  8462 ;; *************** function ___atdiv *****************
  8463 ;; Defined at:
  8464 ;;		line 7 in file "/Applications/microchip/xc8/v2.41/pic/sources/c99/common/atdiv.c"
  8465 ;; Parameters:    Size  Location     Type
  8466 ;;  dividend        3    2[COMRAM] m
  8467 ;;  divisor         3    5[COMRAM] m
  8468 ;; Auto vars:     Size  Location     Type
  8469 ;;  quotient        3   10[COMRAM] m
  8470 ;;  sign            1    9[COMRAM] unsigned char 
  8471 ;;  counter         1    8[COMRAM] unsigned char 
  8472 ;; Return value:  Size  Location     Type
  8473 ;;                  3    2[COMRAM] m
  8474 ;; Registers used:
  8475 ;;		wreg, status,2, status,0
  8476 ;; Tracked objects:
  8477 ;;		On entry : 0/0
  8478 ;;		On exit  : 0/0
  8479 ;;		Unchanged: 0/0
  8480 ;; Data sizes:     COMRAM   BANK5   BANK6   BANK7   BANK8   BANK9  BANK10  BANK11  BANK12  BANK13  BANK14  BANK15  BANK1
      +6  BANK17  BANK18  BANK19  BANK20  BANK21  BANK22  BANK23  BANK24  BANK25  BANK26  BANK27  BANK28  BANK29  BANK30  BANK3
      +1  BANK32  BANK33  BANK34  BANK35  BANK36  BANK37  BANK38  BANK39  BANK40  BANK41  BANK42  BANK43  BANK44  BANK45  BANK4
      +6  BANK47  BANK48  BANK49  BANK50  BANK51  BANK52  BANK53  BANK54
  8481 ;;      Params:         6       0       0       0       0       0       0       0       0       0       0       0       
      +0       0       0       0       0       0       0       0       0       0       0       0       0       0       0       
      +0       0       0       0       0       0       0       0       0       0       0       0       0       0       0       
      +0       0       0       0       0       0       0       0       0
  8482 ;;      Locals:         5       0       0       0       0       0       0       0       0       0       0       0       
      +0       0       0       0       0       0       0       0       0       0       0       0       0       0       0       
      +0       0       0       0       0       0       0       0       0       0       0       0       0       0       0       
      +0       0       0       0       0       0       0       0       0
  8483 ;;      Temps:          0       0       0       0       0       0       0       0       0       0       0       0       
      +0       0       0       0       0       0       0       0       0       0       0       0       0       0       0       
      +0       0       0       0       0       0       0       0       0       0       0       0       0       0       0       
      +0       0       0       0       0       0       0       0       0
  8484 ;;      Totals:        11       0       0       0       0       0       0       0       0       0       0       0       
      +0       0       0       0       0       0       0       0       0       0       0       0       0       0       0       
      +0       0       0       0       0       0       0       0       0       0       0       0       0       0       0       
      +0       0       0       0       0       0       0       0       0
  8485 ;;Total ram usage:       11 bytes
  8486 ;; Hardware stack levels used: 1
  8487 ;; Hardware stack levels required when called: 4
  8488 ;; This function calls:
  8489 ;;		Nothing
  8490 ;; This function is called by:
  8491 ;;		_ADC_Temp_routine
  8492 ;; This function uses a non-reentrant model
  8493 ;;
  8494                           
  8495                           	psect	text45
  8496   00621A                     __ptext45:
  8497                           	callstack 0
  8498   00621A                     ___atdiv:
  8499                           	callstack 121
  8500   00621A  0E00               	movlw	0
  8501   00621C  6E0A               	movwf	___atdiv@sign^(0+1280),c
  8502   00621E  BE08               	btfsc	(___atdiv@divisor+2)^(0+1280),7,c
  8503   006220  EF16  F031         	goto	u5920
  8504   006224  EF14  F031         	goto	u5921
  8505   006228                     u5921:
  8506   006228  EF1E  F031         	goto	l5992
  8507   00622C                     u5920:
  8508   00622C  1E08               	comf	(___atdiv@divisor+2)^(0+1280),f,c
  8509   00622E  1E07               	comf	(___atdiv@divisor+1)^(0+1280),f,c
  8510   006230  6C06               	negf	___atdiv@divisor^(0+1280),c
  8511   006232  0E00               	movlw	0
  8512   006234  2207               	addwfc	(___atdiv@divisor+1)^(0+1280),f,c
  8513   006236  2208               	addwfc	(___atdiv@divisor+2)^(0+1280),f,c
  8514   006238  0E01               	movlw	1
  8515   00623A  6E0A               	movwf	___atdiv@sign^(0+1280),c
  8516   00623C                     l5992:
  8517   00623C  BE05               	btfsc	(___atdiv@dividend+2)^(0+1280),7,c
  8518   00623E  EF25  F031         	goto	u5930
  8519   006242  EF23  F031         	goto	u5931
  8520   006246                     u5931:
  8521   006246  EF2D  F031         	goto	l5998
  8522   00624A                     u5930:
  8523   00624A  1E05               	comf	(___atdiv@dividend+2)^(0+1280),f,c
  8524   00624C  1E04               	comf	(___atdiv@dividend+1)^(0+1280),f,c
  8525   00624E  6C03               	negf	___atdiv@dividend^(0+1280),c
  8526   006250  0E00               	movlw	0
  8527   006252  2204               	addwfc	(___atdiv@dividend+1)^(0+1280),f,c
  8528   006254  2205               	addwfc	(___atdiv@dividend+2)^(0+1280),f,c
  8529   006256  0E01               	movlw	1
  8530   006258  1A0A               	xorwf	___atdiv@sign^(0+1280),f,c
  8531   00625A                     l5998:
  8532   00625A  0E00               	movlw	0
  8533   00625C  6E0B               	movwf	___atdiv@quotient^(0+1280),c
  8534   00625E  0E00               	movlw	0
  8535   006260  6E0C               	movwf	(___atdiv@quotient+1)^(0+1280),c
  8536   006262  0E00               	movlw	0
  8537   006264  6E0D               	movwf	(___atdiv@quotient+2)^(0+1280),c
  8538   006266  5006               	movf	___atdiv@divisor^(0+1280),w,c
  8539   006268  1007               	iorwf	(___atdiv@divisor+1)^(0+1280),w,c
  8540   00626A  1008               	iorwf	(___atdiv@divisor+2)^(0+1280),w,c
  8541   00626C  B4D8               	btfsc	status,2,c
  8542   00626E  EF3B  F031         	goto	u5941
  8543   006272  EF3D  F031         	goto	u5940
  8544   006276                     u5941:
  8545   006276  EF6C  F031         	goto	l6018
  8546   00627A                     u5940:
  8547   00627A  0E01               	movlw	1
  8548   00627C  6E09               	movwf	___atdiv@counter^(0+1280),c
  8549   00627E  EF46  F031         	goto	l6006
  8550   006282                     l6004:
  8551   006282  90D8               	bcf	status,0,c
  8552   006284  3606               	rlcf	___atdiv@divisor^(0+1280),f,c
  8553   006286  3607               	rlcf	(___atdiv@divisor+1)^(0+1280),f,c
  8554   006288  3608               	rlcf	(___atdiv@divisor+2)^(0+1280),f,c
  8555   00628A  2A09               	incf	___atdiv@counter^(0+1280),f,c
  8556   00628C                     l6006:
  8557   00628C  AE08               	btfss	(___atdiv@divisor+2)^(0+1280),7,c
  8558   00628E  EF4B  F031         	goto	u5951
  8559   006292  EF4D  F031         	goto	u5950
  8560   006296                     u5951:
  8561   006296  EF41  F031         	goto	l6004
  8562   00629A                     u5950:
  8563   00629A                     l6008:
  8564   00629A  90D8               	bcf	status,0,c
  8565   00629C  360B               	rlcf	___atdiv@quotient^(0+1280),f,c
  8566   00629E  360C               	rlcf	(___atdiv@quotient+1)^(0+1280),f,c
  8567   0062A0  360D               	rlcf	(___atdiv@quotient+2)^(0+1280),f,c
  8568   0062A2  5006               	movf	___atdiv@divisor^(0+1280),w,c
  8569   0062A4  5C03               	subwf	___atdiv@dividend^(0+1280),w,c
  8570   0062A6  5007               	movf	(___atdiv@divisor+1)^(0+1280),w,c
  8571   0062A8  5804               	subwfb	(___atdiv@dividend+1)^(0+1280),w,c
  8572   0062AA  5008               	movf	(___atdiv@divisor+2)^(0+1280),w,c
  8573   0062AC  5805               	subwfb	(___atdiv@dividend+2)^(0+1280),w,c
  8574   0062AE  A0D8               	btfss	status,0,c
  8575   0062B0  EF5C  F031         	goto	u5961
  8576   0062B4  EF5E  F031         	goto	u5960
  8577   0062B8                     u5961:
  8578   0062B8  EF65  F031         	goto	l928
  8579   0062BC                     u5960:
  8580   0062BC  5006               	movf	___atdiv@divisor^(0+1280),w,c
  8581   0062BE  5E03               	subwf	___atdiv@dividend^(0+1280),f,c
  8582   0062C0  5007               	movf	(___atdiv@divisor+1)^(0+1280),w,c
  8583   0062C2  5A04               	subwfb	(___atdiv@dividend+1)^(0+1280),f,c
  8584   0062C4  5008               	movf	(___atdiv@divisor+2)^(0+1280),w,c
  8585   0062C6  5A05               	subwfb	(___atdiv@dividend+2)^(0+1280),f,c
  8586   0062C8  800B               	bsf	___atdiv@quotient^(0+1280),0,c
  8587   0062CA                     l928:
  8588   0062CA  90D8               	bcf	status,0,c
  8589   0062CC  3208               	rrcf	(___atdiv@divisor+2)^(0+1280),f,c
  8590   0062CE  3207               	rrcf	(___atdiv@divisor+1)^(0+1280),f,c
  8591   0062D0  3206               	rrcf	___atdiv@divisor^(0+1280),f,c
  8592   0062D2  2E09               	decfsz	___atdiv@counter^(0+1280),f,c
  8593   0062D4  EF4D  F031         	goto	l6008
  8594   0062D8                     l6018:
  8595   0062D8  500A               	movf	___atdiv@sign^(0+1280),w,c
  8596   0062DA  B4D8               	btfsc	status,2,c
  8597   0062DC  EF72  F031         	goto	u5971
  8598   0062E0  EF74  F031         	goto	u5970
  8599   0062E4                     u5971:
  8600   0062E4  EF7A  F031         	goto	l6022
  8601   0062E8                     u5970:
  8602   0062E8  1E0D               	comf	(___atdiv@quotient+2)^(0+1280),f,c
  8603   0062EA  1E0C               	comf	(___atdiv@quotient+1)^(0+1280),f,c
  8604   0062EC  6C0B               	negf	___atdiv@quotient^(0+1280),c
  8605   0062EE  0E00               	movlw	0
  8606   0062F0  220C               	addwfc	(___atdiv@quotient+1)^(0+1280),f,c
  8607   0062F2  220D               	addwfc	(___atdiv@quotient+2)^(0+1280),f,c
  8608   0062F4                     l6022:
  8609   0062F4  C50B  F503         	movff	___atdiv@quotient,?___atdiv
  8610   0062F8  C50C  F504         	movff	___atdiv@quotient+1,?___atdiv+1
  8611   0062FC  C50D  F505         	movff	___atdiv@quotient+2,?___atdiv+2
  8612   006300  0012               	return		;funcret
  8613   006302                     __end_of___atdiv:
  8614                           	callstack 0
  8615                           
  8616 ;; *************** function _ADC_GetSingleConversion *****************
  8617 ;; Defined at:
  8618 ;;		line 246 in file "mcc_generated_files/adc.c"
  8619 ;; Parameters:    Size  Location     Type
  8620 ;;  channel         1    wreg     enum E22826
  8621 ;; Auto vars:     Size  Location     Type
  8622 ;;  channel         1    6[COMRAM] enum E22826
  8623 ;; Return value:  Size  Location     Type
  8624 ;;                  2    2[COMRAM] unsigned short 
  8625 ;; Registers used:
  8626 ;;		wreg, status,2, status,0
  8627 ;; Tracked objects:
  8628 ;;		On entry : 0/0
  8629 ;;		On exit  : 0/0
  8630 ;;		Unchanged: 0/0
  8631 ;; Data sizes:     COMRAM   BANK5   BANK6   BANK7   BANK8   BANK9  BANK10  BANK11  BANK12  BANK13  BANK14  BANK15  BANK1
      +6  BANK17  BANK18  BANK19  BANK20  BANK21  BANK22  BANK23  BANK24  BANK25  BANK26  BANK27  BANK28  BANK29  BANK30  BANK3
      +1  BANK32  BANK33  BANK34  BANK35  BANK36  BANK37  BANK38  BANK39  BANK40  BANK41  BANK42  BANK43  BANK44  BANK45  BANK4
      +6  BANK47  BANK48  BANK49  BANK50  BANK51  BANK52  BANK53  BANK54
  8632 ;;      Params:         2       0       0       0       0       0       0       0       0       0       0       0       
      +0       0       0       0       0       0       0       0       0       0       0       0       0       0       0       
      +0       0       0       0       0       0       0       0       0       0       0       0       0       0       0       
      +0       0       0       0       0       0       0       0       0
  8633 ;;      Locals:         1       0       0       0       0       0       0       0       0       0       0       0       
      +0       0       0       0       0       0       0       0       0       0       0       0       0       0       0       
      +0       0       0       0       0       0       0       0       0       0       0       0       0       0       0       
      +0       0       0       0       0       0       0       0       0
  8634 ;;      Temps:          2       0       0       0       0       0       0       0       0       0       0       0       
      +0       0       0       0       0       0       0       0       0       0       0       0       0       0       0       
      +0       0       0       0       0       0       0       0       0       0       0       0       0       0       0       
      +0       0       0       0       0       0       0       0       0
  8635 ;;      Totals:         5       0       0       0       0       0       0       0       0       0       0       0       
      +0       0       0       0       0       0       0       0       0       0       0       0       0       0       0       
      +0       0       0       0       0       0       0       0       0       0       0       0       0       0       0       
      +0       0       0       0       0       0       0       0       0
  8636 ;;Total ram usage:        5 bytes
  8637 ;; Hardware stack levels used: 1
  8638 ;; Hardware stack levels required when called: 4
  8639 ;; This function calls:
  8640 ;;		Nothing
  8641 ;; This function is called by:
  8642 ;;		_ADC_Temp_routine
  8643 ;; This function uses a non-reentrant model
  8644 ;;
  8645                           
  8646                           	psect	text46
  8647   006CAC                     __ptext46:
  8648                           	callstack 0
  8649   006CAC                     _ADC_GetSingleConversion:
  8650                           	callstack 121
  8651                           
  8652                           ;incstack = 0
  8653                           ;ADC_GetSingleConversion@channel stored from wreg
  8654   006CAC  6E07               	movwf	ADC_GetSingleConversion@channel^(0+1280),c
  8655   006CAE                     
  8656                           ;mcc_generated_files/adc.c: 246: adc_result_t ADC_GetSingleConversion(ADC_channel_t chan
      +                          nel);mcc_generated_files/adc.c: 247: {;mcc_generated_files/adc.c: 249:     ADPCH = chann
      +                          el;
  8657   006CAE  C507  F3EC         	movff	ADC_GetSingleConversion@channel,1004	;volatile
  8658   006CB2                     
  8659                           ;mcc_generated_files/adc.c: 252:     ADCON0bits.ON = 1;
  8660   006CB2  0103               	movlb	3	; () banked
  8661   006CB4  8FF3               	bsf	243,7,b	;volatile
  8662   006CB6                     
  8663                           ; BSR set to: 3
  8664                           ;mcc_generated_files/adc.c: 255:     ADCON0bits.CONT = 0;
  8665   006CB6  9DF3               	bcf	243,6,b	;volatile
  8666   006CB8                     
  8667                           ; BSR set to: 3
  8668                           ;mcc_generated_files/adc.c: 258:     ADCON0bits.GO = 1;
  8669   006CB8  81F3               	bsf	243,0,b	;volatile
  8670   006CBA                     l265:
  8671                           
  8672                           ; BSR set to: 3
  8673                           ;mcc_generated_files/adc.c: 261:     while(ADCON0bits.GO)
  8674   006CBA  B1F3               	btfsc	243,0,b	;volatile
  8675   006CBC  EF62  F036         	goto	u5891
  8676   006CC0  EF64  F036         	goto	u5890
  8677   006CC4                     u5891:
  8678   006CC4  EF5D  F036         	goto	l265
  8679   006CC8                     u5890:
  8680   006CC8                     
  8681                           ; BSR set to: 3
  8682                           ;mcc_generated_files/adc.c: 266:     return ((adc_result_t) ((ADRESH << 8) + ADRESL));
  8683   006CC8  51EB               	movf	235,w,b	;volatile
  8684   006CCA  6E06               	movwf	(??_ADC_GetSingleConversion+1)^(0+1280),c
  8685   006CCC  6A05               	clrf	??_ADC_GetSingleConversion^(0+1280),c
  8686   006CCE  51EA               	movf	234,w,b	;volatile
  8687   006CD0  2405               	addwf	??_ADC_GetSingleConversion^(0+1280),w,c
  8688   006CD2  6E03               	movwf	?_ADC_GetSingleConversion^(0+1280),c
  8689   006CD4  0E00               	movlw	0
  8690   006CD6  2006               	addwfc	(??_ADC_GetSingleConversion+1)^(0+1280),w,c
  8691   006CD8  6E04               	movwf	(?_ADC_GetSingleConversion+1)^(0+1280),c
  8692   006CDA                     
  8693                           ; BSR set to: 3
  8694   006CDA  0012               	return		;funcret
  8695   006CDC                     __end_of_ADC_GetSingleConversion:
  8696                           	callstack 0
  8697                           
  8698 ;; *************** function _ADC_DischargeSampleCapacitor *****************
  8699 ;; Defined at:
  8700 ;;		line 280 in file "mcc_generated_files/adc.c"
  8701 ;; Parameters:    Size  Location     Type
  8702 ;;		None
  8703 ;; Auto vars:     Size  Location     Type
  8704 ;;		None
  8705 ;; Return value:  Size  Location     Type
  8706 ;;                  1    wreg      void 
  8707 ;; Registers used:
  8708 ;;		wreg, status,2
  8709 ;; Tracked objects:
  8710 ;;		On entry : 0/0
  8711 ;;		On exit  : 0/0
  8712 ;;		Unchanged: 0/0
  8713 ;; Data sizes:     COMRAM   BANK5   BANK6   BANK7   BANK8   BANK9  BANK10  BANK11  BANK12  BANK13  BANK14  BANK15  BANK1
      +6  BANK17  BANK18  BANK19  BANK20  BANK21  BANK22  BANK23  BANK24  BANK25  BANK26  BANK27  BANK28  BANK29  BANK30  BANK3
      +1  BANK32  BANK33  BANK34  BANK35  BANK36  BANK37  BANK38  BANK39  BANK40  BANK41  BANK42  BANK43  BANK44  BANK45  BANK4
      +6  BANK47  BANK48  BANK49  BANK50  BANK51  BANK52  BANK53  BANK54
  8714 ;;      Params:         0       0       0       0       0       0       0       0       0       0       0       0       
      +0       0       0       0       0       0       0       0       0       0       0       0       0       0       0       
      +0       0       0       0       0       0       0       0       0       0       0       0       0       0       0       
      +0       0       0       0       0       0       0       0       0
  8715 ;;      Locals:         0       0       0       0       0       0       0       0       0       0       0       0       
      +0       0       0       0       0       0       0       0       0       0       0       0       0       0       0       
      +0       0       0       0       0       0       0       0       0       0       0       0       0       0       0       
      +0       0       0       0       0       0       0       0       0
  8716 ;;      Temps:          0       0       0       0       0       0       0       0       0       0       0       0       
      +0       0       0       0       0       0       0       0       0       0       0       0       0       0       0       
      +0       0       0       0       0       0       0       0       0       0       0       0       0       0       0       
      +0       0       0       0       0       0       0       0       0
  8717 ;;      Totals:         0       0       0       0       0       0       0       0       0       0       0       0       
      +0       0       0       0       0       0       0       0       0       0       0       0       0       0       0       
      +0       0       0       0       0       0       0       0       0       0       0       0       0       0       0       
      +0       0       0       0       0       0       0       0       0
  8718 ;;Total ram usage:        0 bytes
  8719 ;; Hardware stack levels used: 1
  8720 ;; Hardware stack levels required when called: 4
  8721 ;; This function calls:
  8722 ;;		Nothing
  8723 ;; This function is called by:
  8724 ;;		_ADC_Temp_routine
  8725 ;; This function uses a non-reentrant model
  8726 ;;
  8727                           
  8728                           	psect	text47
  8729   006E5A                     __ptext47:
  8730                           	callstack 0
  8731   006E5A                     _ADC_DischargeSampleCapacitor:
  8732                           	callstack 121
  8733   006E5A                     
  8734                           ;mcc_generated_files/adc.c: 283:     ADPCH = 0x3b;
  8735   006E5A  0E3B               	movlw	59
  8736   006E5C  0103               	movlb	3	; () banked
  8737   006E5E  6FEC               	movwf	236,b	;volatile
  8738   006E60                     
  8739                           ; BSR set to: 3
  8740   006E60  0012               	return		;funcret
  8741   006E62                     __end_of_ADC_DischargeSampleCapacitor:
  8742                           	callstack 0
  8743                           
  8744 ;; *************** function _INTERRUPT_InterruptManager *****************
  8745 ;; Defined at:
  8746 ;;		line 58 in file "mcc_generated_files/interrupt_manager.c"
  8747 ;; Parameters:    Size  Location     Type
  8748 ;;		None
  8749 ;; Auto vars:     Size  Location     Type
  8750 ;;		None
  8751 ;; Return value:  Size  Location     Type
  8752 ;;                  1    wreg      void 
  8753 ;; Registers used:
  8754 ;;		wreg, fsr2l, fsr2h, status,2, status,0, pcl, pclath, pclatu, tosl, cstack
  8755 ;; Tracked objects:
  8756 ;;		On entry : 0/0
  8757 ;;		On exit  : 0/0
  8758 ;;		Unchanged: 0/0
  8759 ;; Data sizes:     COMRAM   BANK5   BANK6   BANK7   BANK8   BANK9  BANK10  BANK11  BANK12  BANK13  BANK14  BANK15  BANK1
      +6  BANK17  BANK18  BANK19  BANK20  BANK21  BANK22  BANK23  BANK24  BANK25  BANK26  BANK27  BANK28  BANK29  BANK30  BANK3
      +1  BANK32  BANK33  BANK34  BANK35  BANK36  BANK37  BANK38  BANK39  BANK40  BANK41  BANK42  BANK43  BANK44  BANK45  BANK4
      +6  BANK47  BANK48  BANK49  BANK50  BANK51  BANK52  BANK53  BANK54
  8760 ;;      Params:         0       0       0       0       0       0       0       0       0       0       0       0       
      +0       0       0       0       0       0       0       0       0       0       0       0       0       0       0       
      +0       0       0       0       0       0       0       0       0       0       0       0       0       0       0       
      +0       0       0       0       0       0       0       0       0
  8761 ;;      Locals:         0       0       0       0       0       0       0       0       0       0       0       0       
      +0       0       0       0       0       0       0       0       0       0       0       0       0       0       0       
      +0       0       0       0       0       0       0       0       0       0       0       0       0       0       0       
      +0       0       0       0       0       0       0       0       0
  8762 ;;      Temps:          2       0       0       0       0       0       0       0       0       0       0       0       
      +0       0       0       0       0       0       0       0       0       0       0       0       0       0       0       
      +0       0       0       0       0       0       0       0       0       0       0       0       0       0       0       
      +0       0       0       0       0       0       0       0       0
  8763 ;;      Totals:         2       0       0       0       0       0       0       0       0       0       0       0       
      +0       0       0       0       0       0       0       0       0       0       0       0       0       0       0       
      +0       0       0       0       0       0       0       0       0       0       0       0       0       0       0       
      +0       0       0       0       0       0       0       0       0
  8764 ;;Total ram usage:        2 bytes
  8765 ;; Hardware stack levels used: 1
  8766 ;; Hardware stack levels required when called: 3
  8767 ;; This function calls:
  8768 ;;		NULL
  8769 ;;		_UART1_Receive_ISR
  8770 ;;		_UART1_Transmit_ISR
  8771 ;; This function is called by:
  8772 ;;		Interrupt level 2
  8773 ;; This function uses a non-reentrant model
  8774 ;;
  8775                           
  8776                           	psect	text48
  8777   00680A                     __ptext48:
  8778                           	callstack 0
  8779   00680A                     _INTERRUPT_InterruptManager:
  8780                           	callstack 113
  8781                           
  8782                           ; BSR set to: 3
  8783                           ;incstack = 0
  8784   00680A  C4FA F501          	movff	pclath,??_INTERRUPT_InterruptManager
  8785   00680E  C4FB F502          	movff	pclatu,??_INTERRUPT_InterruptManager+1
  8786   006812                     
  8787                           ;mcc_generated_files/interrupt_manager.c: 61:     if(PIE4bits.U1TXIE == 1 && PIR4bits.U1
      +                          TXIF == 1)
  8788   006812  A2A2               	btfss	162,1,c	;volatile
  8789   006814  EF0E  F034         	goto	i2u411_41
  8790   006818  EF10  F034         	goto	i2u411_40
  8791   00681C                     i2u411_41:
  8792   00681C  EF27  F034         	goto	i2l112
  8793   006820                     i2u411_40:
  8794   006820  A2B2               	btfss	178,1,c	;volatile
  8795   006822  EF15  F034         	goto	i2u412_41
  8796   006826  EF17  F034         	goto	i2u412_40
  8797   00682A                     i2u412_41:
  8798   00682A  EF27  F034         	goto	i2l112
  8799   00682E                     i2u412_40:
  8800   00682E                     
  8801                           ;mcc_generated_files/interrupt_manager.c: 62:     {;mcc_generated_files/interrupt_manage
      +                          r.c: 63:         UART1_TxInterruptHandler();
  8802   00682E  D802               	call	i2u413_48
  8803   006830  EF25  F034         	goto	i2u413_49
  8804   006834                     i2u413_48:
  8805   006834  0005               	push	
  8806   006836  6EFA               	movwf	pclath,c
  8807   006838  0105               	movlb	5	; () banked
  8808   00683A  51B4               	movf	_UART1_TxInterruptHandler& (0+255),w,b
  8809   00683C  6EFD               	movwf	tosl,c
  8810   00683E  51B5               	movf	(_UART1_TxInterruptHandler+1)& (0+255),w,b
  8811   006840  6EFE               	movwf	tosh,c
  8812   006842  51B6               	movf	(_UART1_TxInterruptHandler+2)& (0+255),w,b
  8813   006844  6EFF               	movwf	tosu,c
  8814   006846  50FA               	movf	pclath,w,c
  8815   006848  0012               	return		;indir
  8816   00684A                     i2u413_49:
  8817                           
  8818                           ;mcc_generated_files/interrupt_manager.c: 64:     }
  8819   00684A  EF43  F034         	goto	i2l116
  8820   00684E                     i2l112:
  8821   00684E  A0A2               	btfss	162,0,c	;volatile
  8822   006850  EF2C  F034         	goto	i2u414_41
  8823   006854  EF2E  F034         	goto	i2u414_40
  8824   006858                     i2u414_41:
  8825   006858  EF43  F034         	goto	i2l116
  8826   00685C                     i2u414_40:
  8827   00685C  A0B2               	btfss	178,0,c	;volatile
  8828   00685E  EF33  F034         	goto	i2u415_41
  8829   006862  EF35  F034         	goto	i2u415_40
  8830   006866                     i2u415_41:
  8831   006866  EF43  F034         	goto	i2l116
  8832   00686A                     i2u415_40:
  8833   00686A                     
  8834                           ;mcc_generated_files/interrupt_manager.c: 66:     {;mcc_generated_files/interrupt_manage
      +                          r.c: 67:         UART1_RxInterruptHandler();
  8835   00686A  D802               	call	i2u416_48
  8836   00686C  EF43  F034         	goto	i2u416_49
  8837   006870                     i2u416_48:
  8838   006870  0005               	push	
  8839   006872  6EFA               	movwf	pclath,c
  8840   006874  0105               	movlb	5	; () banked
  8841   006876  51B7               	movf	_UART1_RxInterruptHandler& (0+255),w,b
  8842   006878  6EFD               	movwf	tosl,c
  8843   00687A  51B8               	movf	(_UART1_RxInterruptHandler+1)& (0+255),w,b
  8844   00687C  6EFE               	movwf	tosh,c
  8845   00687E  51B9               	movf	(_UART1_RxInterruptHandler+2)& (0+255),w,b
  8846   006880  6EFF               	movwf	tosu,c
  8847   006882  50FA               	movf	pclath,w,c
  8848   006884  0012               	return		;indir
  8849   006886                     i2u416_49:
  8850   006886                     i2l116:
  8851   006886  C502  F4FB         	movff	??_INTERRUPT_InterruptManager+1,pclatu
  8852   00688A  C501  F4FA         	movff	??_INTERRUPT_InterruptManager,pclath
  8853   00688E  0011               	retfie		f
  8854   006890                     __end_of_INTERRUPT_InterruptManager:
  8855                           	callstack 0
  8856                           
  8857 ;; *************** function _UART1_Transmit_ISR *****************
  8858 ;; Defined at:
  8859 ;;		line 240 in file "mcc_generated_files/uart1.c"
  8860 ;; Parameters:    Size  Location     Type
  8861 ;;		None
  8862 ;; Auto vars:     Size  Location     Type
  8863 ;;		None
  8864 ;; Return value:  Size  Location     Type
  8865 ;;                  1    wreg      void 
  8866 ;; Registers used:
  8867 ;;		wreg, fsr2l, fsr2h, status,2, status,0
  8868 ;; Tracked objects:
  8869 ;;		On entry : 0/0
  8870 ;;		On exit  : 0/0
  8871 ;;		Unchanged: 0/0
  8872 ;; Data sizes:     COMRAM   BANK5   BANK6   BANK7   BANK8   BANK9  BANK10  BANK11  BANK12  BANK13  BANK14  BANK15  BANK1
      +6  BANK17  BANK18  BANK19  BANK20  BANK21  BANK22  BANK23  BANK24  BANK25  BANK26  BANK27  BANK28  BANK29  BANK30  BANK3
      +1  BANK32  BANK33  BANK34  BANK35  BANK36  BANK37  BANK38  BANK39  BANK40  BANK41  BANK42  BANK43  BANK44  BANK45  BANK4
      +6  BANK47  BANK48  BANK49  BANK50  BANK51  BANK52  BANK53  BANK54
  8873 ;;      Params:         0       0       0       0       0       0       0       0       0       0       0       0       
      +0       0       0       0       0       0       0       0       0       0       0       0       0       0       0       
      +0       0       0       0       0       0       0       0       0       0       0       0       0       0       0       
      +0       0       0       0       0       0       0       0       0
  8874 ;;      Locals:         0       0       0       0       0       0       0       0       0       0       0       0       
      +0       0       0       0       0       0       0       0       0       0       0       0       0       0       0       
      +0       0       0       0       0       0       0       0       0       0       0       0       0       0       0       
      +0       0       0       0       0       0       0       0       0
  8875 ;;      Temps:          0       0       0       0       0       0       0       0       0       0       0       0       
      +0       0       0       0       0       0       0       0       0       0       0       0       0       0       0       
      +0       0       0       0       0       0       0       0       0       0       0       0       0       0       0       
      +0       0       0       0       0       0       0       0       0
  8876 ;;      Totals:         0       0       0       0       0       0       0       0       0       0       0       0       
      +0       0       0       0       0       0       0       0       0       0       0       0       0       0       0       
      +0       0       0       0       0       0       0       0       0       0       0       0       0       0       0       
      +0       0       0       0       0       0       0       0       0
  8877 ;;Total ram usage:        0 bytes
  8878 ;; Hardware stack levels used: 1
  8879 ;; This function calls:
  8880 ;;		Nothing
  8881 ;; This function is called by:
  8882 ;;		_UART1_Initialize
  8883 ;;		_INTERRUPT_InterruptManager
  8884 ;; This function uses a non-reentrant model
  8885 ;;
  8886                           
  8887                           	psect	text49
  8888   006BFA                     __ptext49:
  8889                           	callstack 0
  8890   006BFA                     _UART1_Transmit_ISR:
  8891                           	callstack 115
  8892   006BFA                     
  8893                           ;mcc_generated_files/uart1.c: 243:     if(sizeof(uart1TxBuffer) > uart1TxBufferRemaining
      +                          )
  8894   006BFA  5057               	movf	_uart1TxBufferRemaining^(0+1280),w,c	;volatile
  8895   006BFC  A4D8               	btfss	status,2,c
  8896   006BFE  EF03  F036         	goto	i2u403_41
  8897   006C02  EF05  F036         	goto	i2u403_40
  8898   006C06                     i2u403_41:
  8899   006C06  EF1C  F036         	goto	i2l502
  8900   006C0A                     i2u403_40:
  8901   006C0A                     
  8902                           ;mcc_generated_files/uart1.c: 244:     {;mcc_generated_files/uart1.c: 245:         U1TXB
      +                           = uart1TxBuffer[uart1TxTail++];
  8903   006C0A  0E58               	movlw	low _uart1TxBuffer
  8904   006C0C  2459               	addwf	_uart1TxTail^(0+1280),w,c	;volatile
  8905   006C0E  6ED9               	movwf	fsr2l,c
  8906   006C10  6ADA               	clrf	fsr2h,c
  8907   006C12  0E05               	movlw	high _uart1TxBuffer
  8908   006C14  22DA               	addwfc	fsr2h,f,c
  8909   006C16  50DF               	movf	indf2,w,c
  8910   006C18  0102               	movlb	2	; () banked
  8911   006C1A  6FA3               	movwf	163,b	;volatile
  8912   006C1C                     
  8913                           ; BSR set to: 2
  8914   006C1C  2A59               	incf	_uart1TxTail^(0+1280),f,c	;volatile
  8915   006C1E                     
  8916                           ; BSR set to: 2
  8917                           ;mcc_generated_files/uart1.c: 246:        if(sizeof(uart1TxBuffer) <= uart1TxTail)
  8918   006C1E  5059               	movf	_uart1TxTail^(0+1280),w,c	;volatile
  8919   006C20  B4D8               	btfsc	status,2,c
  8920   006C22  EF15  F036         	goto	i2u404_41
  8921   006C26  EF17  F036         	goto	i2u404_40
  8922   006C2A                     i2u404_41:
  8923   006C2A  EF19  F036         	goto	i2l4660
  8924   006C2E                     i2u404_40:
  8925   006C2E                     
  8926                           ; BSR set to: 2
  8927                           ;mcc_generated_files/uart1.c: 247:         {;mcc_generated_files/uart1.c: 248:          
      +                             uart1TxTail = 0;
  8928   006C2E  0E00               	movlw	0
  8929   006C30  6E59               	movwf	_uart1TxTail^(0+1280),c	;volatile
  8930   006C32                     i2l4660:
  8931                           
  8932                           ; BSR set to: 2
  8933                           ;mcc_generated_files/uart1.c: 250:         uart1TxBufferRemaining++;
  8934   006C32  2A57               	incf	_uart1TxBufferRemaining^(0+1280),f,c	;volatile
  8935                           
  8936                           ;mcc_generated_files/uart1.c: 251:     }
  8937   006C34  EF1D  F036         	goto	i2l505
  8938   006C38                     i2l502:
  8939                           
  8940                           ;mcc_generated_files/uart1.c: 253:     {;mcc_generated_files/uart1.c: 254:         PIE4b
      +                          its.U1TXIE = 0;
  8941   006C38  92A2               	bcf	162,1,c	;volatile
  8942   006C3A                     i2l505:
  8943   006C3A  0012               	return		;funcret
  8944   006C3C                     __end_of_UART1_Transmit_ISR:
  8945                           	callstack 0
  8946                           
  8947 ;; *************** function _UART1_Receive_ISR *****************
  8948 ;; Defined at:
  8949 ;;		line 260 in file "mcc_generated_files/uart1.c"
  8950 ;; Parameters:    Size  Location     Type
  8951 ;;		None
  8952 ;; Auto vars:     Size  Location     Type
  8953 ;;		None
  8954 ;; Return value:  Size  Location     Type
  8955 ;;                  1    wreg      void 
  8956 ;; Registers used:
  8957 ;;		wreg, fsr2l, fsr2h, status,2, status,0, pcl, pclath, pclatu, tosl, cstack
  8958 ;; Tracked objects:
  8959 ;;		On entry : 0/0
  8960 ;;		On exit  : 0/0
  8961 ;;		Unchanged: 0/0
  8962 ;; Data sizes:     COMRAM   BANK5   BANK6   BANK7   BANK8   BANK9  BANK10  BANK11  BANK12  BANK13  BANK14  BANK15  BANK1
      +6  BANK17  BANK18  BANK19  BANK20  BANK21  BANK22  BANK23  BANK24  BANK25  BANK26  BANK27  BANK28  BANK29  BANK30  BANK3
      +1  BANK32  BANK33  BANK34  BANK35  BANK36  BANK37  BANK38  BANK39  BANK40  BANK41  BANK42  BANK43  BANK44  BANK45  BANK4
      +6  BANK47  BANK48  BANK49  BANK50  BANK51  BANK52  BANK53  BANK54
  8963 ;;      Params:         0       0       0       0       0       0       0       0       0       0       0       0       
      +0       0       0       0       0       0       0       0       0       0       0       0       0       0       0       
      +0       0       0       0       0       0       0       0       0       0       0       0       0       0       0       
      +0       0       0       0       0       0       0       0       0
  8964 ;;      Locals:         0       0       0       0       0       0       0       0       0       0       0       0       
      +0       0       0       0       0       0       0       0       0       0       0       0       0       0       0       
      +0       0       0       0       0       0       0       0       0       0       0       0       0       0       0       
      +0       0       0       0       0       0       0       0       0
  8965 ;;      Temps:          0       0       0       0       0       0       0       0       0       0       0       0       
      +0       0       0       0       0       0       0       0       0       0       0       0       0       0       0       
      +0       0       0       0       0       0       0       0       0       0       0       0       0       0       0       
      +0       0       0       0       0       0       0       0       0
  8966 ;;      Totals:         0       0       0       0       0       0       0       0       0       0       0       0       
      +0       0       0       0       0       0       0       0       0       0       0       0       0       0       0       
      +0       0       0       0       0       0       0       0       0       0       0       0       0       0       0       
      +0       0       0       0       0       0       0       0       0
  8967 ;;Total ram usage:        0 bytes
  8968 ;; Hardware stack levels used: 1
  8969 ;; Hardware stack levels required when called: 2
  8970 ;; This function calls:
  8971 ;;		NULL
  8972 ;;		_UART1_DefaultErrorHandler
  8973 ;;		_UART1_DefaultFramingErrorHandler
  8974 ;;		_UART1_DefaultOverrunErrorHandler
  8975 ;;		_UART1_RxDataHandler
  8976 ;; This function is called by:
  8977 ;;		_UART1_Initialize
  8978 ;;		_INTERRUPT_InterruptManager
  8979 ;; This function uses a non-reentrant model
  8980 ;;
  8981                           
  8982                           	psect	text50
  8983   00649A                     __ptext50:
  8984                           	callstack 0
  8985   00649A                     _UART1_Receive_ISR:
  8986                           	callstack 113
  8987   00649A                     
  8988                           ;mcc_generated_files/uart1.c: 263:     uart1RxStatusBuffer[uart1RxHead].status = 0;
  8989   00649A  0E53               	movlw	low _uart1RxStatusBuffer
  8990   00649C  2456               	addwf	_uart1RxHead^(0+1280),w,c	;volatile
  8991   00649E  6ED9               	movwf	fsr2l,c
  8992   0064A0  6ADA               	clrf	fsr2h,c
  8993   0064A2  0E05               	movlw	high _uart1RxStatusBuffer
  8994   0064A4  22DA               	addwfc	fsr2h,f,c
  8995   0064A6  6ADF               	clrf	indf2,c
  8996   0064A8                     
  8997                           ;mcc_generated_files/uart1.c: 265:     if(U1ERRIRbits.FERIF){
  8998   0064A8  0102               	movlb	2	; () banked
  8999   0064AA  A7B2               	btfss	178,3,b	;volatile
  9000   0064AC  EF5A  F032         	goto	i2u405_41
  9001   0064B0  EF5C  F032         	goto	i2u405_40
  9002   0064B4                     i2u405_41:
  9003   0064B4  EF71  F032         	goto	i2l4670
  9004   0064B8                     i2u405_40:
  9005   0064B8                     
  9006                           ; BSR set to: 2
  9007                           ;mcc_generated_files/uart1.c: 266:         uart1RxStatusBuffer[uart1RxHead].ferr = 1;
  9008   0064B8  0E53               	movlw	low _uart1RxStatusBuffer
  9009   0064BA  2456               	addwf	_uart1RxHead^(0+1280),w,c	;volatile
  9010   0064BC  6ED9               	movwf	fsr2l,c
  9011   0064BE  6ADA               	clrf	fsr2h,c
  9012   0064C0  0E05               	movlw	high _uart1RxStatusBuffer
  9013   0064C2  22DA               	addwfc	fsr2h,f,c
  9014   0064C4  82DF               	bsf	indf2,1,c
  9015   0064C6                     
  9016                           ; BSR set to: 2
  9017                           ;mcc_generated_files/uart1.c: 267:         UART1_FramingErrorHandler();
  9018   0064C6  D802               	call	i2u406_48
  9019   0064C8  EF71  F032         	goto	i2u406_49
  9020   0064CC                     i2u406_48:
  9021   0064CC  0005               	push	
  9022   0064CE  6EFA               	movwf	pclath,c
  9023   0064D0  0105               	movlb	5	; () banked
  9024   0064D2  51A8               	movf	_UART1_FramingErrorHandler& (0+255),w,b
  9025   0064D4  6EFD               	movwf	tosl,c
  9026   0064D6  51A9               	movf	(_UART1_FramingErrorHandler+1)& (0+255),w,b
  9027   0064D8  6EFE               	movwf	tosh,c
  9028   0064DA  51AA               	movf	(_UART1_FramingErrorHandler+2)& (0+255),w,b
  9029   0064DC  6EFF               	movwf	tosu,c
  9030   0064DE  50FA               	movf	pclath,w,c
  9031   0064E0  0012               	return		;indir
  9032   0064E2                     i2u406_49:
  9033   0064E2                     i2l4670:
  9034                           
  9035                           ;mcc_generated_files/uart1.c: 270:     if(U1ERRIRbits.RXFOIF){
  9036   0064E2  0102               	movlb	2	; () banked
  9037   0064E4  A3B2               	btfss	178,1,b	;volatile
  9038   0064E6  EF77  F032         	goto	i2u407_41
  9039   0064EA  EF79  F032         	goto	i2u407_40
  9040   0064EE                     i2u407_41:
  9041   0064EE  EF8E  F032         	goto	i2l4676
  9042   0064F2                     i2u407_40:
  9043   0064F2                     
  9044                           ; BSR set to: 2
  9045                           ;mcc_generated_files/uart1.c: 271:         uart1RxStatusBuffer[uart1RxHead].oerr = 1;
  9046   0064F2  0E53               	movlw	low _uart1RxStatusBuffer
  9047   0064F4  2456               	addwf	_uart1RxHead^(0+1280),w,c	;volatile
  9048   0064F6  6ED9               	movwf	fsr2l,c
  9049   0064F8  6ADA               	clrf	fsr2h,c
  9050   0064FA  0E05               	movlw	high _uart1RxStatusBuffer
  9051   0064FC  22DA               	addwfc	fsr2h,f,c
  9052   0064FE  84DF               	bsf	indf2,2,c
  9053   006500                     
  9054                           ; BSR set to: 2
  9055                           ;mcc_generated_files/uart1.c: 272:         UART1_OverrunErrorHandler();
  9056   006500  D802               	call	i2u408_48
  9057   006502  EF8E  F032         	goto	i2u408_49
  9058   006506                     i2u408_48:
  9059   006506  0005               	push	
  9060   006508  6EFA               	movwf	pclath,c
  9061   00650A  0105               	movlb	5	; () banked
  9062   00650C  51A5               	movf	_UART1_OverrunErrorHandler& (0+255),w,b
  9063   00650E  6EFD               	movwf	tosl,c
  9064   006510  51A6               	movf	(_UART1_OverrunErrorHandler+1)& (0+255),w,b
  9065   006512  6EFE               	movwf	tosh,c
  9066   006514  51A7               	movf	(_UART1_OverrunErrorHandler+2)& (0+255),w,b
  9067   006516  6EFF               	movwf	tosu,c
  9068   006518  50FA               	movf	pclath,w,c
  9069   00651A  0012               	return		;indir
  9070   00651C                     i2u408_49:
  9071   00651C                     i2l4676:
  9072                           
  9073                           ;mcc_generated_files/uart1.c: 275:     if(uart1RxStatusBuffer[uart1RxHead].status){
  9074   00651C  0E53               	movlw	low _uart1RxStatusBuffer
  9075   00651E  2456               	addwf	_uart1RxHead^(0+1280),w,c	;volatile
  9076   006520  6ED9               	movwf	fsr2l,c
  9077   006522  6ADA               	clrf	fsr2h,c
  9078   006524  0E05               	movlw	high _uart1RxStatusBuffer
  9079   006526  22DA               	addwfc	fsr2h,f,c
  9080   006528  50DF               	movf	indf2,w,c
  9081   00652A  B4D8               	btfsc	status,2,c
  9082   00652C  EF9A  F032         	goto	i2u409_41
  9083   006530  EF9C  F032         	goto	i2u409_40
  9084   006534                     i2u409_41:
  9085   006534  EFAC  F032         	goto	i2l4680
  9086   006538                     i2u409_40:
  9087   006538                     
  9088                           ;mcc_generated_files/uart1.c: 276:         UART1_ErrorHandler();
  9089   006538  D802               	call	i2u410_48
  9090   00653A  EFAA  F032         	goto	i2u410_49
  9091   00653E                     i2u410_48:
  9092   00653E  0005               	push	
  9093   006540  6EFA               	movwf	pclath,c
  9094   006542  0105               	movlb	5	; () banked
  9095   006544  51A2               	movf	_UART1_ErrorHandler& (0+255),w,b
  9096   006546  6EFD               	movwf	tosl,c
  9097   006548  51A3               	movf	(_UART1_ErrorHandler+1)& (0+255),w,b
  9098   00654A  6EFE               	movwf	tosh,c
  9099   00654C  51A4               	movf	(_UART1_ErrorHandler+2)& (0+255),w,b
  9100   00654E  6EFF               	movwf	tosu,c
  9101   006550  50FA               	movf	pclath,w,c
  9102   006552  0012               	return		;indir
  9103   006554                     i2u410_49:
  9104                           
  9105                           ;mcc_generated_files/uart1.c: 277:     } else {
  9106   006554  EFAE  F032         	goto	i2l4682
  9107   006558                     i2l4680:
  9108                           
  9109                           ;mcc_generated_files/uart1.c: 278:         UART1_RxDataHandler();
  9110   006558  EC6E  F036         	call	_UART1_RxDataHandler	;wreg free
  9111   00655C                     i2l4682:
  9112                           
  9113                           ;mcc_generated_files/uart1.c: 282:     UART_flag = UART_flag ^ 0x01;
  9114   00655C  505B               	movf	_UART_flag^(0+1280),w,c
  9115   00655E  0A01               	xorlw	1
  9116   006560  6E5B               	movwf	_UART_flag^(0+1280),c
  9117   006562  0012               	return		;funcret
  9118   006564                     __end_of_UART1_Receive_ISR:
  9119                           	callstack 0
  9120                           
  9121 ;; *************** function _UART1_DefaultOverrunErrorHandler *****************
  9122 ;; Defined at:
  9123 ;;		line 297 in file "mcc_generated_files/uart1.c"
  9124 ;; Parameters:    Size  Location     Type
  9125 ;;		None
  9126 ;; Auto vars:     Size  Location     Type
  9127 ;;		None
  9128 ;; Return value:  Size  Location     Type
  9129 ;;                  1    wreg      void 
  9130 ;; Registers used:
  9131 ;;		None
  9132 ;; Tracked objects:
  9133 ;;		On entry : 0/0
  9134 ;;		On exit  : 0/0
  9135 ;;		Unchanged: 0/0
  9136 ;; Data sizes:     COMRAM   BANK5   BANK6   BANK7   BANK8   BANK9  BANK10  BANK11  BANK12  BANK13  BANK14  BANK15  BANK1
      +6  BANK17  BANK18  BANK19  BANK20  BANK21  BANK22  BANK23  BANK24  BANK25  BANK26  BANK27  BANK28  BANK29  BANK30  BANK3
      +1  BANK32  BANK33  BANK34  BANK35  BANK36  BANK37  BANK38  BANK39  BANK40  BANK41  BANK42  BANK43  BANK44  BANK45  BANK4
      +6  BANK47  BANK48  BANK49  BANK50  BANK51  BANK52  BANK53  BANK54
  9137 ;;      Params:         0       0       0       0       0       0       0       0       0       0       0       0       
      +0       0       0       0       0       0       0       0       0       0       0       0       0       0       0       
      +0       0       0       0       0       0       0       0       0       0       0       0       0       0       0       
      +0       0       0       0       0       0       0       0       0
  9138 ;;      Locals:         0       0       0       0       0       0       0       0       0       0       0       0       
      +0       0       0       0       0       0       0       0       0       0       0       0       0       0       0       
      +0       0       0       0       0       0       0       0       0       0       0       0       0       0       0       
      +0       0       0       0       0       0       0       0       0
  9139 ;;      Temps:          0       0       0       0       0       0       0       0       0       0       0       0       
      +0       0       0       0       0       0       0       0       0       0       0       0       0       0       0       
      +0       0       0       0       0       0       0       0       0       0       0       0       0       0       0       
      +0       0       0       0       0       0       0       0       0
  9140 ;;      Totals:         0       0       0       0       0       0       0       0       0       0       0       0       
      +0       0       0       0       0       0       0       0       0       0       0       0       0       0       0       
      +0       0       0       0       0       0       0       0       0       0       0       0       0       0       0       
      +0       0       0       0       0       0       0       0       0
  9141 ;;Total ram usage:        0 bytes
  9142 ;; Hardware stack levels used: 1
  9143 ;; This function calls:
  9144 ;;		Nothing
  9145 ;; This function is called by:
  9146 ;;		_UART1_Initialize
  9147 ;;		_UART1_Receive_ISR
  9148 ;; This function uses a non-reentrant model
  9149 ;;
  9150                           
  9151                           	psect	text51
  9152   006E6C                     __ptext51:
  9153                           	callstack 0
  9154   006E6C                     _UART1_DefaultOverrunErrorHandler:
  9155                           	callstack 114
  9156   006E6C  0012               	return		;funcret
  9157   006E6E                     __end_of_UART1_DefaultOverrunErrorHandler:
  9158                           	callstack 0
  9159                           
  9160 ;; *************** function _UART1_DefaultFramingErrorHandler *****************
  9161 ;; Defined at:
  9162 ;;		line 295 in file "mcc_generated_files/uart1.c"
  9163 ;; Parameters:    Size  Location     Type
  9164 ;;		None
  9165 ;; Auto vars:     Size  Location     Type
  9166 ;;		None
  9167 ;; Return value:  Size  Location     Type
  9168 ;;                  1    wreg      void 
  9169 ;; Registers used:
  9170 ;;		None
  9171 ;; Tracked objects:
  9172 ;;		On entry : 0/0
  9173 ;;		On exit  : 0/0
  9174 ;;		Unchanged: 0/0
  9175 ;; Data sizes:     COMRAM   BANK5   BANK6   BANK7   BANK8   BANK9  BANK10  BANK11  BANK12  BANK13  BANK14  BANK15  BANK1
      +6  BANK17  BANK18  BANK19  BANK20  BANK21  BANK22  BANK23  BANK24  BANK25  BANK26  BANK27  BANK28  BANK29  BANK30  BANK3
      +1  BANK32  BANK33  BANK34  BANK35  BANK36  BANK37  BANK38  BANK39  BANK40  BANK41  BANK42  BANK43  BANK44  BANK45  BANK4
      +6  BANK47  BANK48  BANK49  BANK50  BANK51  BANK52  BANK53  BANK54
  9176 ;;      Params:         0       0       0       0       0       0       0       0       0       0       0       0       
      +0       0       0       0       0       0       0       0       0       0       0       0       0       0       0       
      +0       0       0       0       0       0       0       0       0       0       0       0       0       0       0       
      +0       0       0       0       0       0       0       0       0
  9177 ;;      Locals:         0       0       0       0       0       0       0       0       0       0       0       0       
      +0       0       0       0       0       0       0       0       0       0       0       0       0       0       0       
      +0       0       0       0       0       0       0       0       0       0       0       0       0       0       0       
      +0       0       0       0       0       0       0       0       0
  9178 ;;      Temps:          0       0       0       0       0       0       0       0       0       0       0       0       
      +0       0       0       0       0       0       0       0       0       0       0       0       0       0       0       
      +0       0       0       0       0       0       0       0       0       0       0       0       0       0       0       
      +0       0       0       0       0       0       0       0       0
  9179 ;;      Totals:         0       0       0       0       0       0       0       0       0       0       0       0       
      +0       0       0       0       0       0       0       0       0       0       0       0       0       0       0       
      +0       0       0       0       0       0       0       0       0       0       0       0       0       0       0       
      +0       0       0       0       0       0       0       0       0
  9180 ;;Total ram usage:        0 bytes
  9181 ;; Hardware stack levels used: 1
  9182 ;; This function calls:
  9183 ;;		Nothing
  9184 ;; This function is called by:
  9185 ;;		_UART1_Initialize
  9186 ;;		_UART1_Receive_ISR
  9187 ;; This function uses a non-reentrant model
  9188 ;;
  9189                           
  9190                           	psect	text52
  9191   006E6E                     __ptext52:
  9192                           	callstack 0
  9193   006E6E                     _UART1_DefaultFramingErrorHandler:
  9194                           	callstack 114
  9195   006E6E  0012               	return		;funcret
  9196   006E70                     __end_of_UART1_DefaultFramingErrorHandler:
  9197                           	callstack 0
  9198                           
  9199 ;; *************** function _UART1_DefaultErrorHandler *****************
  9200 ;; Defined at:
  9201 ;;		line 299 in file "mcc_generated_files/uart1.c"
  9202 ;; Parameters:    Size  Location     Type
  9203 ;;		None
  9204 ;; Auto vars:     Size  Location     Type
  9205 ;;		None
  9206 ;; Return value:  Size  Location     Type
  9207 ;;                  1    wreg      void 
  9208 ;; Registers used:
  9209 ;;		wreg, fsr2l, fsr2h, status,2, status,0, cstack
  9210 ;; Tracked objects:
  9211 ;;		On entry : 0/0
  9212 ;;		On exit  : 0/0
  9213 ;;		Unchanged: 0/0
  9214 ;; Data sizes:     COMRAM   BANK5   BANK6   BANK7   BANK8   BANK9  BANK10  BANK11  BANK12  BANK13  BANK14  BANK15  BANK1
      +6  BANK17  BANK18  BANK19  BANK20  BANK21  BANK22  BANK23  BANK24  BANK25  BANK26  BANK27  BANK28  BANK29  BANK30  BANK3
      +1  BANK32  BANK33  BANK34  BANK35  BANK36  BANK37  BANK38  BANK39  BANK40  BANK41  BANK42  BANK43  BANK44  BANK45  BANK4
      +6  BANK47  BANK48  BANK49  BANK50  BANK51  BANK52  BANK53  BANK54
  9215 ;;      Params:         0       0       0       0       0       0       0       0       0       0       0       0       
      +0       0       0       0       0       0       0       0       0       0       0       0       0       0       0       
      +0       0       0       0       0       0       0       0       0       0       0       0       0       0       0       
      +0       0       0       0       0       0       0       0       0
  9216 ;;      Locals:         0       0       0       0       0       0       0       0       0       0       0       0       
      +0       0       0       0       0       0       0       0       0       0       0       0       0       0       0       
      +0       0       0       0       0       0       0       0       0       0       0       0       0       0       0       
      +0       0       0       0       0       0       0       0       0
  9217 ;;      Temps:          0       0       0       0       0       0       0       0       0       0       0       0       
      +0       0       0       0       0       0       0       0       0       0       0       0       0       0       0       
      +0       0       0       0       0       0       0       0       0       0       0       0       0       0       0       
      +0       0       0       0       0       0       0       0       0
  9218 ;;      Totals:         0       0       0       0       0       0       0       0       0       0       0       0       
      +0       0       0       0       0       0       0       0       0       0       0       0       0       0       0       
      +0       0       0       0       0       0       0       0       0       0       0       0       0       0       0       
      +0       0       0       0       0       0       0       0       0
  9219 ;;Total ram usage:        0 bytes
  9220 ;; Hardware stack levels used: 1
  9221 ;; Hardware stack levels required when called: 1
  9222 ;; This function calls:
  9223 ;;		_UART1_RxDataHandler
  9224 ;; This function is called by:
  9225 ;;		_UART1_Initialize
  9226 ;;		_UART1_Receive_ISR
  9227 ;; This function uses a non-reentrant model
  9228 ;;
  9229                           
  9230                           	psect	text53
  9231   006E62                     __ptext53:
  9232                           	callstack 0
  9233   006E62                     _UART1_DefaultErrorHandler:
  9234                           	callstack 113
  9235   006E62                     
  9236                           ;mcc_generated_files/uart1.c: 300:     UART1_RxDataHandler();
  9237   006E62  EC6E  F036         	call	_UART1_RxDataHandler	;wreg free
  9238   006E66  0012               	return		;funcret
  9239   006E68                     __end_of_UART1_DefaultErrorHandler:
  9240                           	callstack 0
  9241                           
  9242 ;; *************** function _UART1_RxDataHandler *****************
  9243 ;; Defined at:
  9244 ;;		line 285 in file "mcc_generated_files/uart1.c"
  9245 ;; Parameters:    Size  Location     Type
  9246 ;;		None
  9247 ;; Auto vars:     Size  Location     Type
  9248 ;;		None
  9249 ;; Return value:  Size  Location     Type
  9250 ;;                  1    wreg      void 
  9251 ;; Registers used:
  9252 ;;		wreg, fsr2l, fsr2h, status,2, status,0
  9253 ;; Tracked objects:
  9254 ;;		On entry : 0/0
  9255 ;;		On exit  : 0/0
  9256 ;;		Unchanged: 0/0
  9257 ;; Data sizes:     COMRAM   BANK5   BANK6   BANK7   BANK8   BANK9  BANK10  BANK11  BANK12  BANK13  BANK14  BANK15  BANK1
      +6  BANK17  BANK18  BANK19  BANK20  BANK21  BANK22  BANK23  BANK24  BANK25  BANK26  BANK27  BANK28  BANK29  BANK30  BANK3
      +1  BANK32  BANK33  BANK34  BANK35  BANK36  BANK37  BANK38  BANK39  BANK40  BANK41  BANK42  BANK43  BANK44  BANK45  BANK4
      +6  BANK47  BANK48  BANK49  BANK50  BANK51  BANK52  BANK53  BANK54
  9258 ;;      Params:         0       0       0       0       0       0       0       0       0       0       0       0       
      +0       0       0       0       0       0       0       0       0       0       0       0       0       0       0       
      +0       0       0       0       0       0       0       0       0       0       0       0       0       0       0       
      +0       0       0       0       0       0       0       0       0
  9259 ;;      Locals:         0       0       0       0       0       0       0       0       0       0       0       0       
      +0       0       0       0       0       0       0       0       0       0       0       0       0       0       0       
      +0       0       0       0       0       0       0       0       0       0       0       0       0       0       0       
      +0       0       0       0       0       0       0       0       0
  9260 ;;      Temps:          0       0       0       0       0       0       0       0       0       0       0       0       
      +0       0       0       0       0       0       0       0       0       0       0       0       0       0       0       
      +0       0       0       0       0       0       0       0       0       0       0       0       0       0       0       
      +0       0       0       0       0       0       0       0       0
  9261 ;;      Totals:         0       0       0       0       0       0       0       0       0       0       0       0       
      +0       0       0       0       0       0       0       0       0       0       0       0       0       0       0       
      +0       0       0       0       0       0       0       0       0       0       0       0       0       0       0       
      +0       0       0       0       0       0       0       0       0
  9262 ;;Total ram usage:        0 bytes
  9263 ;; Hardware stack levels used: 1
  9264 ;; This function calls:
  9265 ;;		Nothing
  9266 ;; This function is called by:
  9267 ;;		_UART1_Receive_ISR
  9268 ;;		_UART1_DefaultErrorHandler
  9269 ;; This function uses a non-reentrant model
  9270 ;;
  9271                           
  9272                           	psect	text54
  9273   006CDC                     __ptext54:
  9274                           	callstack 0
  9275   006CDC                     _UART1_RxDataHandler:
  9276                           	callstack 114
  9277   006CDC                     
  9278                           ;mcc_generated_files/uart1.c: 287:     uart1RxBuffer[uart1RxHead++] = U1RXB;
  9279   006CDC  0E54               	movlw	low _uart1RxBuffer
  9280   006CDE  2456               	addwf	_uart1RxHead^(0+1280),w,c	;volatile
  9281   006CE0  6ED9               	movwf	fsr2l,c
  9282   006CE2  6ADA               	clrf	fsr2h,c
  9283   006CE4  0E05               	movlw	high _uart1RxBuffer
  9284   006CE6  22DA               	addwfc	fsr2h,f,c
  9285   006CE8  C2A1 F4DF          	movff	673,indf2	;volatile
  9286   006CEC  2A56               	incf	_uart1RxHead^(0+1280),f,c	;volatile
  9287   006CEE                     
  9288                           ;mcc_generated_files/uart1.c: 288:     if(sizeof(uart1RxBuffer) <= uart1RxHead)
  9289   006CEE  5056               	movf	_uart1RxHead^(0+1280),w,c	;volatile
  9290   006CF0  B4D8               	btfsc	status,2,c
  9291   006CF2  EF7D  F036         	goto	i2u382_41
  9292   006CF6  EF7F  F036         	goto	i2u382_40
  9293   006CFA                     i2u382_41:
  9294   006CFA  EF81  F036         	goto	i2l4412
  9295   006CFE                     i2u382_40:
  9296   006CFE                     
  9297                           ;mcc_generated_files/uart1.c: 289:     {;mcc_generated_files/uart1.c: 290:         uart1
      +                          RxHead = 0;
  9298   006CFE  0E00               	movlw	0
  9299   006D00  6E56               	movwf	_uart1RxHead^(0+1280),c	;volatile
  9300   006D02                     i2l4412:
  9301                           
  9302                           ;mcc_generated_files/uart1.c: 292:     uart1RxCount++;
  9303   006D02  2A52               	incf	_uart1RxCount^(0+1280),f,c	;volatile
  9304   006D04  0012               	return		;funcret
  9305   006D06                     __end_of_UART1_RxDataHandler:
  9306                           	callstack 0
  9307                           
  9308                           ;
  9309                           ; Interrupt Vector Table @ 0x8
  9310                           ;
  9311                           
  9312                           	psect	ivt0x8
  9313   000008                     __pivt0x8:
  9314                           	callstack 0
  9315   000008                     ivt0x8_base:
  9316                           	callstack 0
  9317                           
  9318                           ; high-priority vector
  9319   000008  EF05  F034         	goto	_INTERRUPT_InterruptManager
  9320   000018                     	org	16
  9321                           
  9322                           ; low-priority vector
  9323   000018  00FF               	reset	
  9324                           
  9325                           	psect	text55
  9326   000000                     __ptext55:
  9327                           	callstack 0
  9328   000000                     
  9329                           	psect	rparam
  9330   000000                     
  9331                           	psect	idloc
  9332                           
  9333                           ;Config register IDLOC0 @ 0x200000
  9334                           ;	unspecified, using default values
  9335   200000                     	org	2097152
  9336   200000  0FFF               	dw	4095
  9337                           
  9338                           ;Config register IDLOC1 @ 0x200002
  9339                           ;	unspecified, using default values
  9340   200002                     	org	2097154
  9341   200002  0FFF               	dw	4095
  9342                           
  9343                           ;Config register IDLOC2 @ 0x200004
  9344                           ;	unspecified, using default values
  9345   200004                     	org	2097156
  9346   200004  0FFF               	dw	4095
  9347                           
  9348                           ;Config register IDLOC3 @ 0x200006
  9349                           ;	unspecified, using default values
  9350   200006                     	org	2097158
  9351   200006  0FFF               	dw	4095
  9352                           
  9353                           ;Config register IDLOC4 @ 0x200008
  9354                           ;	unspecified, using default values
  9355   200008                     	org	2097160
  9356   200008  0FFF               	dw	4095
  9357                           
  9358                           ;Config register IDLOC5 @ 0x20000A
  9359                           ;	unspecified, using default values
  9360   20000A                     	org	2097162
  9361   20000A  0FFF               	dw	4095
  9362                           
  9363                           ;Config register IDLOC6 @ 0x20000C
  9364                           ;	unspecified, using default values
  9365   20000C                     	org	2097164
  9366   20000C  0FFF               	dw	4095
  9367                           
  9368                           ;Config register IDLOC7 @ 0x20000E
  9369                           ;	unspecified, using default values
  9370   20000E                     	org	2097166
  9371   20000E  0FFF               	dw	4095
  9372                           
  9373                           ;Config register IDLOC8 @ 0x200010
  9374                           ;	unspecified, using default values
  9375   200010                     	org	2097168
  9376   200010  0FFF               	dw	4095
  9377                           
  9378                           ;Config register IDLOC9 @ 0x200012
  9379                           ;	unspecified, using default values
  9380   200012                     	org	2097170
  9381   200012  0FFF               	dw	4095
  9382                           
  9383                           ;Config register IDLOC10 @ 0x200014
  9384                           ;	unspecified, using default values
  9385   200014                     	org	2097172
  9386   200014  0FFF               	dw	4095
  9387                           
  9388                           ;Config register IDLOC11 @ 0x200016
  9389                           ;	unspecified, using default values
  9390   200016                     	org	2097174
  9391   200016  0FFF               	dw	4095
  9392                           
  9393                           ;Config register IDLOC12 @ 0x200018
  9394                           ;	unspecified, using default values
  9395   200018                     	org	2097176
  9396   200018  0FFF               	dw	4095
  9397                           
  9398                           ;Config register IDLOC13 @ 0x20001A
  9399                           ;	unspecified, using default values
  9400   20001A                     	org	2097178
  9401   20001A  0FFF               	dw	4095
  9402                           
  9403                           ;Config register IDLOC14 @ 0x20001C
  9404                           ;	unspecified, using default values
  9405   20001C                     	org	2097180
  9406   20001C  0FFF               	dw	4095
  9407                           
  9408                           ;Config register IDLOC15 @ 0x20001E
  9409                           ;	unspecified, using default values
  9410   20001E                     	org	2097182
  9411   20001E  0FFF               	dw	4095
  9412                           
  9413                           ;Config register IDLOC16 @ 0x200020
  9414                           ;	unspecified, using default values
  9415   200020                     	org	2097184
  9416   200020  0FFF               	dw	4095
  9417                           
  9418                           ;Config register IDLOC17 @ 0x200022
  9419                           ;	unspecified, using default values
  9420   200022                     	org	2097186
  9421   200022  0FFF               	dw	4095
  9422                           
  9423                           ;Config register IDLOC18 @ 0x200024
  9424                           ;	unspecified, using default values
  9425   200024                     	org	2097188
  9426   200024  0FFF               	dw	4095
  9427                           
  9428                           ;Config register IDLOC19 @ 0x200026
  9429                           ;	unspecified, using default values
  9430   200026                     	org	2097190
  9431   200026  0FFF               	dw	4095
  9432                           
  9433                           ;Config register IDLOC20 @ 0x200028
  9434                           ;	unspecified, using default values
  9435   200028                     	org	2097192
  9436   200028  0FFF               	dw	4095
  9437                           
  9438                           ;Config register IDLOC21 @ 0x20002A
  9439                           ;	unspecified, using default values
  9440   20002A                     	org	2097194
  9441   20002A  0FFF               	dw	4095
  9442                           
  9443                           ;Config register IDLOC22 @ 0x20002C
  9444                           ;	unspecified, using default values
  9445   20002C                     	org	2097196
  9446   20002C  0FFF               	dw	4095
  9447                           
  9448                           ;Config register IDLOC23 @ 0x20002E
  9449                           ;	unspecified, using default values
  9450   20002E                     	org	2097198
  9451   20002E  0FFF               	dw	4095
  9452                           
  9453                           ;Config register IDLOC24 @ 0x200030
  9454                           ;	unspecified, using default values
  9455   200030                     	org	2097200
  9456   200030  0FFF               	dw	4095
  9457                           
  9458                           ;Config register IDLOC25 @ 0x200032
  9459                           ;	unspecified, using default values
  9460   200032                     	org	2097202
  9461   200032  0FFF               	dw	4095
  9462                           
  9463                           ;Config register IDLOC26 @ 0x200034
  9464                           ;	unspecified, using default values
  9465   200034                     	org	2097204
  9466   200034  0FFF               	dw	4095
  9467                           
  9468                           ;Config register IDLOC27 @ 0x200036
  9469                           ;	unspecified, using default values
  9470   200036                     	org	2097206
  9471   200036  0FFF               	dw	4095
  9472                           
  9473                           ;Config register IDLOC28 @ 0x200038
  9474                           ;	unspecified, using default values
  9475   200038                     	org	2097208
  9476   200038  0FFF               	dw	4095
  9477                           
  9478                           ;Config register IDLOC29 @ 0x20003A
  9479                           ;	unspecified, using default values
  9480   20003A                     	org	2097210
  9481   20003A  0FFF               	dw	4095
  9482                           
  9483                           ;Config register IDLOC30 @ 0x20003C
  9484                           ;	unspecified, using default values
  9485   20003C                     	org	2097212
  9486   20003C  0FFF               	dw	4095
  9487                           
  9488                           ;Config register IDLOC31 @ 0x20003E
  9489                           ;	unspecified, using default values
  9490   20003E                     	org	2097214
  9491   20003E  0FFF               	dw	4095
  9492                           
  9493                           	psect	config
  9494                           
  9495                           ;Config register CONFIG1 @ 0x300000
  9496                           ;	External Oscillator Selection
  9497                           ;	FEXTOSC = OFF, Oscillator not enabled
  9498                           ;	Reset Oscillator Selection
  9499                           ;	RSTOSC = HFINTOSC_1MHZ, HFINTOSC with HFFRQ = 4 MHz and CDIV = 4:1
  9500   300000                     	org	3145728
  9501   300000  EC                 	db	236
  9502                           
  9503                           ;Config register CONFIG2 @ 0x300001
  9504                           ;	Clock out Enable bit
  9505                           ;	CLKOUTEN = OFF, CLKOUT function is disabled
  9506                           ;	PRLOCKED One-Way Set Enable bit
  9507                           ;	PR1WAY = ON, PRLOCKED bit can be cleared and set only once
  9508                           ;	Clock Switch Enable bit
  9509                           ;	CSWEN = ON, Writing to NOSC and NDIV is allowed
  9510                           ;	JTAG Enable bit
  9511                           ;	JTAGEN = OFF, Disable JTAG Boundary Scan mode, JTAG pins revert to user functions
  9512                           ;	Fail-Safe Clock Monitor Enable bit
  9513                           ;	FCMEN = ON, Fail-Safe Clock Monitor enabled
  9514                           ;	Fail-Safe Clock Monitor -Primary XTAL Enable bit
  9515                           ;	FCMENP = ON, FSCM timer will set FSCMP bit and OSFIF interrupt on Primary XTAL failure
  9516                           ;	Fail-Safe Clock Monitor -Secondary XTAL Enable bit
  9517                           ;	FCMENS = ON, FSCM timer will set FSCMS bit and OSFIF interrupt on Secondary XTAL failu
      +                          re
  9518   300001                     	org	3145729
  9519   300001  EF                 	db	239
  9520                           
  9521                           ;Config register CONFIG3 @ 0x300002
  9522                           ;	MCLR Enable bit
  9523                           ;	MCLRE = EXTMCLR, If LVP = 0, MCLR pin is MCLR; If LVP = 1, RE3 pin function is MCLR
  9524                           ;	Power-up timer selection bits
  9525                           ;	PWRTS = PWRT_OFF, PWRT is disabled
  9526                           ;	Multi-vector enable bit
  9527                           ;	MVECEN = OFF, Interrupt contoller does not use vector table to prioritze interrupts
  9528                           ;	IVTLOCK bit One-way set enable bit
  9529                           ;	IVT1WAY = ON, IVTLOCKED bit can be cleared and set only once
  9530                           ;	Low Power BOR Enable bit
  9531                           ;	LPBOREN = OFF, Low-Power BOR disabled
  9532                           ;	Brown-out Reset Enable bits
  9533                           ;	BOREN = SBORDIS, Brown-out Reset enabled , SBOREN bit is ignored
  9534   300002                     	org	3145730
  9535   300002  F7                 	db	247
  9536                           
  9537                           ;Config register CONFIG4 @ 0x300003
  9538                           ;	Brown-out Reset Voltage Selection bits
  9539                           ;	BORV = VBOR_1P9, Brown-out Reset Voltage (VBOR) set to 1.9V
  9540                           ;	ZCD Disable bit
  9541                           ;	ZCD = OFF, ZCD module is disabled. ZCD can be enabled by setting the ZCDSEN bit of ZCD
      +                          CON
  9542                           ;	PPSLOCK bit One-Way Set Enable bit
  9543                           ;	PPS1WAY = ON, PPSLOCKED bit can be cleared and set only once; PPS registers remain loc
      +                          ked after one clear/set cycle
  9544                           ;	Stack Full/Underflow Reset Enable bit
  9545                           ;	STVREN = ON, Stack full/underflow will cause Reset
  9546                           ;	Low Voltage Programming Enable bit
  9547                           ;	LVP = ON, Low voltage programming enabled. MCLR/VPP pin function is MCLR. MCLRE config
      +                          uration bit is ignored
  9548                           ;	Extended Instruction Set Enable bit
  9549                           ;	XINST = OFF, Extended Instruction Set and Indexed Addressing Mode disabled
  9550   300003                     	org	3145731
  9551   300003  FF                 	db	255
  9552                           
  9553                           ;Config register CONFIG5 @ 0x300004
  9554                           ;	WDT Period selection bits
  9555                           ;	WDTCPS = WDTCPS_31, Divider ratio 1:65536; software control of WDTPS
  9556                           ;	WDT operating mode
  9557                           ;	WDTE = OFF, WDT Disabled; SWDTEN is ignored
  9558   300004                     	org	3145732
  9559   300004  9F                 	db	159
  9560                           
  9561                           ;Config register CONFIG6 @ 0x300005
  9562                           ;	WDT Window Select bits
  9563                           ;	WDTCWS = WDTCWS_7, window always open (100%); software control; keyed access not requi
      +                          red
  9564                           ;	WDT input clock selector
  9565                           ;	WDTCCS = SC, Software Control
  9566   300005                     	org	3145733
  9567   300005  FF                 	db	255
  9568                           
  9569                           ;Config register CONFIG7 @ 0x300006
  9570                           ;	Boot Block Size selection bits
  9571                           ;	BBSIZE = BBSIZE_512, Boot Block size is 512 words
  9572                           ;	Boot Block enable bit
  9573                           ;	BBEN = OFF, Boot block disabled
  9574                           ;	Storage Area Flash enable bit
  9575                           ;	SAFEN = OFF, SAF disabled
  9576                           ;	Background Debugger
  9577                           ;	DEBUG = 0x1, unprogrammed default
  9578   300006                     	org	3145734
  9579   300006  FF                 	db	255
  9580                           
  9581                           ;Config register CONFIG8 @ 0x300007
  9582                           ;	Boot Block Write Protection bit
  9583                           ;	WRTB = OFF, Boot Block not Write protected
  9584                           ;	Configuration Register Write Protection bit
  9585                           ;	WRTC = OFF, Configuration registers not Write protected
  9586                           ;	Data EEPROM Write Protection bit
  9587                           ;	WRTD = OFF, Data EEPROM not Write protected
  9588                           ;	SAF Write protection bit
  9589                           ;	WRTSAF = OFF, SAF not Write Protected
  9590                           ;	Application Block write protection bit
  9591                           ;	WRTAPP = OFF, Application Block not write protected
  9592   300007                     	org	3145735
  9593   300007  FF                 	db	255
  9594                           
  9595                           ;Config register CONFIG9 @ 0x300008
  9596                           ;	CRC on boot output pin selection
  9597                           ;	BOOTPINSEL = RC5, CRC on boot output pin is RC5
  9598                           ;	CRC on boot output pin enable bit
  9599                           ;	BPEN = OFF, CRC on boot output pin disabled
  9600                           ;	CRC on boot output pin open drain bit
  9601                           ;	ODCON = OFF, Pin drives both high-going and low-going signals
  9602   300008                     	org	3145736
  9603   300008  FF                 	db	255
  9604                           
  9605                           ;Config register CONFIG10 @ 0x300009
  9606                           ;	PFM and Data EEPROM Code Protection bit
  9607                           ;	CP = OFF, PFM and Data EEPROM code protection disabled
  9608   300009                     	org	3145737
  9609   300009  FF                 	db	255
  9610                           
  9611                           ;Config register CONFIG11 @ 0x30000A
  9612                           ;	CRC on boot scan enable for boot area
  9613                           ;	BOOTSCEN = OFF, CRC on boot will not include the boot area of program memory in its ca
      +                          lculation
  9614                           ;	CRC on boot Continue on Error for boot areas bit
  9615                           ;	BOOTCOE = HALT, CRC on boot will stop device if error is detected in boot areas
  9616                           ;	CRC on boot application code scan enable
  9617                           ;	APPSCEN = OFF, CRC on boot will not include the application area of program memory in 
      +                          its calculation
  9618                           ;	CRC on boot SAF area scan enable
  9619                           ;	SAFSCEN = OFF, CRC on boot will not include the SAF area of program memory in its calc
      +                          ulation
  9620                           ;	CRC on boot Data EEPROM scan enable
  9621                           ;	DATASCEN = OFF, CRC on boot will not include data EEPROM in its calculation
  9622                           ;	CRC on boot Config fuses scan enable
  9623                           ;	CFGSCEN = OFF, CRC on boot will not include the configuration fuses in its calculation
  9624                           ;	CRC on boot Continue on Error for non-boot areas bit
  9625                           ;	COE = HALT, CRC on boot will stop device if error is detected in non-boot areas
  9626                           ;	Boot on CRC Enable bit
  9627                           ;	BOOTPOR = OFF, CRC on boot will not run
  9628   30000A                     	org	3145738
  9629   30000A  FF                 	db	255
  9630                           
  9631                           ;Config register CONFIG12 @ 0x30000B
  9632                           ;	Boot Sector Polynomial for CRC on boot bits 31-24
  9633                           ;	BCRCPOLT = hFF, Bits 31:24 of BCRCPOL are 0xFF
  9634   30000B                     	org	3145739
  9635   30000B  FF                 	db	255
  9636                           
  9637                           ;Config register CONFIG13 @ 0x30000C
  9638                           ;	Boot Sector Polynomial for CRC on boot bits 23-16
  9639                           ;	BCRCPOLU = hFF, Bits 23:16 of BCRCPOL are 0xFF
  9640   30000C                     	org	3145740
  9641   30000C  FF                 	db	255
  9642                           
  9643                           ;Config register CONFIG14 @ 0x30000D
  9644                           ;	Boot Sector Polynomial for CRC on boot bits 15-8
  9645                           ;	BCRCPOLH = hFF, Bits 15:8 of BCRCPOL are 0xFF
  9646   30000D                     	org	3145741
  9647   30000D  FF                 	db	255
  9648                           
  9649                           ;Config register CONFIG15 @ 0x30000E
  9650                           ;	Boot Sector Polynomial for CRC on boot bits 7-0
  9651                           ;	BCRCPOLL = hFF, Bits 7:0 of BCRCPOL are 0xFF
  9652   30000E                     	org	3145742
  9653   30000E  FF                 	db	255
  9654                           
  9655                           ;Config register CONFIG16 @ 0x30000F
  9656                           ;	Boot Sector Seed for CRC on boot bits 31-24
  9657                           ;	BCRCSEEDT = hFF, Bits 31:24 of BCRCSEED are 0xFF
  9658   30000F                     	org	3145743
  9659   30000F  FF                 	db	255
  9660                           
  9661                           ;Config register CONFIG17 @ 0x300010
  9662                           ;	Boot Sector Seed for CRC on boot bits 23-16
  9663                           ;	BCRCSEEDU = hFF, Bits 23:16 of BCRCSEED are 0xFF
  9664   300010                     	org	3145744
  9665   300010  FF                 	db	255
  9666                           
  9667                           ;Config register CONFIG18 @ 0x300011
  9668                           ;	Boot Sector Seed for CRC on boot bits 15-8
  9669                           ;	BCRCSEEDH = hFF, Bits 15:8 of BCRCSEED are 0xFF
  9670   300011                     	org	3145745
  9671   300011  FF                 	db	255
  9672                           
  9673                           ;Config register CONFIG19 @ 0x300012
  9674                           ;	Boot Sector Seed for CRC on boot bits 7-0
  9675                           ;	BCRCSEEDL = hFF, Bits 7:0 of BCRCSEED are 0xFF
  9676   300012                     	org	3145746
  9677   300012  FF                 	db	255
  9678                           
  9679                           ;Config register CONFIG20 @ 0x300013
  9680                           ;	unspecified, using default values
  9681                           ;	Boot Sector Expected Result for CRC on boot bits 31-24
  9682                           ;	BCRCEREST = 0xFF, unprogrammed default
  9683   300013                     	org	3145747
  9684   300013  FF                 	db	255
  9685                           
  9686                           ;Config register CONFIG21 @ 0x300014
  9687                           ;	unspecified, using default values
  9688                           ;	Boot Sector Expected Result for CRC on boot bits 23-16
  9689                           ;	BCRCERESU = 0xFF, unprogrammed default
  9690   300014                     	org	3145748
  9691   300014  FF                 	db	255
  9692                           
  9693                           ;Config register CONFIG22 @ 0x300015
  9694                           ;	unspecified, using default values
  9695                           ;	Boot Sector Expected Result for CRC on boot bits 15-8
  9696                           ;	BCRCERESH = 0xFF, unprogrammed default
  9697   300015                     	org	3145749
  9698   300015  FF                 	db	255
  9699                           
  9700                           ;Config register CONFIG23 @ 0x300016
  9701                           ;	unspecified, using default values
  9702                           ;	Boot Sector Expected Result for CRC on boot bits 7-0
  9703                           ;	BCRCERESL = 0xFF, unprogrammed default
  9704   300016                     	org	3145750
  9705   300016  FF                 	db	255
  9706                           
  9707                           ;Config register CONFIG24 @ 0x300017
  9708                           ;	Non-Boot Sector Polynomial for CRC on boot bits 31-24
  9709                           ;	CRCPOLT = hFF, Bits 31:24 of CRCPOL are 0xFF
  9710   300017                     	org	3145751
  9711   300017  FF                 	db	255
  9712                           
  9713                           ;Config register CONFIG25 @ 0x300018
  9714                           ;	Non-Boot Sector Polynomial for CRC on boot bits 23-16
  9715                           ;	CRCPOLU = hFF, Bits 23:16 of CRCPOL are 0xFF
  9716   300018                     	org	3145752
  9717   300018  FF                 	db	255
  9718                           
  9719                           ;Config register CONFIG26 @ 0x300019
  9720                           ;	Non-Boot Sector Polynomial for CRC on boot bits 15-8
  9721                           ;	CRCPOLH = hFF, Bits 15:8 of CRCPOL are 0xFF
  9722   300019                     	org	3145753
  9723   300019  FF                 	db	255
  9724                           
  9725                           ;Config register CONFIG27 @ 0x30001A
  9726                           ;	Non-Boot Sector Polynomial for CRC on boot bits 7-0
  9727                           ;	CRCPOLL = hFF, Bits 7:0 of CRCPOL are 0xFF
  9728   30001A                     	org	3145754
  9729   30001A  FF                 	db	255
  9730                           
  9731                           ;Config register CONFIG28 @ 0x30001B
  9732                           ;	Non-Boot Sector Seed for CRC on boot bits 31-24
  9733                           ;	CRCSEEDT = hFF, Bits 31:24 of CRCSEED are 0xFF
  9734   30001B                     	org	3145755
  9735   30001B  FF                 	db	255
  9736                           
  9737                           ;Config register CONFIG29 @ 0x30001C
  9738                           ;	Non-Boot Sector Seed for CRC on boot bits 23-16
  9739                           ;	CRCSEEDU = hFF, Bits 23:16 of CRCSEED are 0xFF
  9740   30001C                     	org	3145756
  9741   30001C  FF                 	db	255
  9742                           
  9743                           ;Config register CONFIG30 @ 0x30001D
  9744                           ;	Non-Boot Sector Seed for CRC on boot bits 15-8
  9745                           ;	CRCSEEDH = hFF, Bits 15:8 of CRCSEED are 0xFF
  9746   30001D                     	org	3145757
  9747   30001D  FF                 	db	255
  9748                           
  9749                           ;Config register CONFIG31 @ 0x30001E
  9750                           ;	Non-Boot Sector Seed for CRC on boot bits 7-0
  9751                           ;	CRCSEEDL = hFF, Bits 7:0 of CRCSEED are 0xFF
  9752   30001E                     	org	3145758
  9753   30001E  FF                 	db	255
  9754                           
  9755                           ;Config register CONFIG32 @ 0x30001F
  9756                           ;	unspecified, using default values
  9757                           ;	Non-Boot Sector Expected Result for CRC on boot bits 31-24
  9758                           ;	CRCEREST = 0xFF, unprogrammed default
  9759   30001F                     	org	3145759
  9760   30001F  FF                 	db	255
  9761                           
  9762                           ;Config register CONFIG33 @ 0x300020
  9763                           ;	unspecified, using default values
  9764                           ;	Non-Boot Sector Expected Result for CRC on boot bits 23-16
  9765                           ;	CRCERESU = 0xFF, unprogrammed default
  9766   300020                     	org	3145760
  9767   300020  FF                 	db	255
  9768                           
  9769                           ;Config register CONFIG34 @ 0x300021
  9770                           ;	unspecified, using default values
  9771                           ;	Non-Boot Sector Expected Result for CRC on boot bits 15-8
  9772                           ;	CRCERESH = 0xFF, unprogrammed default
  9773   300021                     	org	3145761
  9774   300021  FF                 	db	255
  9775                           
  9776                           ;Config register CONFIG35 @ 0x300022
  9777                           ;	unspecified, using default values
  9778                           ;	Non-Boot Sector Expected Result for CRC on boot bits 7-0
  9779                           ;	CRCERESL = 0xFF, unprogrammed default
  9780   300022                     	org	3145762
  9781   300022  FF                 	db	255
  9782                           
  9783                           ; Padding undefined space
  9784   300023                     	org	3145763
  9785   300023  FF                 	db	255
  9786                           tosu	equ	0x4FF
  9787                           tosh	equ	0x4FE
  9788                           tosl	equ	0x4FD
  9789                           stkptr	equ	0x4FC
  9790                           pclatu	equ	0x4FB
  9791                           pclath	equ	0x4FA
  9792                           pcl	equ	0x4F9
  9793                           tblptru	equ	0x4F8
  9794                           tblptrh	equ	0x4F7
  9795                           tblptrl	equ	0x4F6
  9796                           tablat	equ	0x4F5
  9797                           prodh	equ	0x4F4
  9798                           prodl	equ	0x4F3
  9799                           indf0	equ	0x4EF
  9800                           postinc0	equ	0x4EE
  9801                           postdec0	equ	0x4ED
  9802                           preinc0	equ	0x4EC
  9803                           plusw0	equ	0x4EB
  9804                           fsr0h	equ	0x4EA
  9805                           fsr0l	equ	0x4E9
  9806                           wreg	equ	0x4E8
  9807                           indf1	equ	0x4E7
  9808                           postinc1	equ	0x4E6
  9809                           postdec1	equ	0x4E5
  9810                           preinc1	equ	0x4E4
  9811                           plusw1	equ	0x4E3
  9812                           fsr1h	equ	0x4E2
  9813                           fsr1l	equ	0x4E1
  9814                           bsr	equ	0x4E0
  9815                           indf2	equ	0x4DF
  9816                           postinc2	equ	0x4DE
  9817                           postdec2	equ	0x4DD
  9818                           preinc2	equ	0x4DC
  9819                           plusw2	equ	0x4DB
  9820                           fsr2h	equ	0x4DA
  9821                           fsr2l	equ	0x4D9
  9822                           status	equ	0x4D8

Data Sizes:
    Strings     112
    Constant    0
    Data        0
    BSS         113
    Persistent  28
    Stack       0

Auto Spaces:
    Space          Size  Autos    Used
    COMRAM           95     77      91
    BANK5           160     66     113
    BANK6           256      0      80
    BANK7           256      0       0
    BANK8           256      0       0
    BANK9           256      0       0
    BANK10          256      0       0
    BANK11          256      0       0
    BANK12          256      0       0
    BANK13          256      0       0
    BANK14          256      0       0
    BANK15          256      0       0
    BANK16          256      0       0
    BANK17          256      0       0
    BANK18          256      0       0
    BANK19          256      0       0
    BANK20          256      0       0
    BANK21          256      0       0
    BANK22          256      0       0
    BANK23          256      0       0
    BANK24          256      0       0
    BANK25          256      0       0
    BANK26          256      0       0
    BANK27          256      0       0
    BANK28          256      0       0
    BANK29          256      0       0
    BANK30          256      0       0
    BANK31          256      0       0
    BANK32          256      0       0
    BANK33          256      0       0
    BANK34          256      0       0
    BANK35          256      0       0
    BANK36          256      0       0
    BANK37          256      0       0
    BANK38          256      0       0
    BANK39          256      0       0
    BANK40          256      0       0
    BANK41          256      0       0
    BANK42          256      0       0
    BANK43          256      0       0
    BANK44          256      0       0
    BANK45          256      0       0
    BANK46          256      0       0
    BANK47          256      0       0
    BANK48          256      0       0
    BANK49          256      0       0
    BANK50          256      0       0
    BANK51          256      0       0
    BANK52          256      0       0
    BANK53          256      0       0
    BANK54          256      0       0

Pointer List with Targets:

    strcpy@dest	PTR unsigned char  size(2) Largest target is 80
		 -> dbuf(BANK6[80]), 

    strcpy@d	PTR unsigned char  size(2) Largest target is 80
		 -> dbuf(BANK6[80]), 

    strcpy@src	PTR const unsigned char  size(2) Largest target is 4
		 -> STR_8(CODE[4]), STR_5(CODE[4]), 

    strcpy@s	PTR const unsigned char  size(2) Largest target is 4
		 -> STR_8(CODE[4]), STR_5(CODE[4]), 

    fputs@s	PTR const unsigned char  size(2) Largest target is 80
		 -> dbuf(BANK6[80]), 

    fputs@fp	PTR struct _IO_FILE size(2) Largest target is 0
		 -> NULL(NULL[0]), 

    S1701$source	PTR const unsigned char  size(2) Largest target is 0

    fputc@fp...source	PTR const unsigned char  size(2) Largest target is 0

    S1701$buffer	PTR unsigned char  size(2) Largest target is 0

    fputc@fp...buffer	PTR unsigned char  size(2) Largest target is 0

    fputc@fp	PTR struct _IO_FILE size(2) Largest target is 0
		 -> NULL(NULL[0]), 

    memcpy@d1	PTR void  size(2) Largest target is 80
		 -> dbuf(BANK6[80]), 

    memcpy@d	PTR unsigned char  size(2) Largest target is 80
		 -> dbuf(BANK6[80]), 

    memcpy@s1	PTR const void  size(2) Largest target is 80
		 -> dbuf(BANK6[80]), 

    memcpy@s	PTR const unsigned char  size(2) Largest target is 80
		 -> dbuf(BANK6[80]), 

    vfprintf@ap	PTR PTR void  size(2) Largest target is 2
		 -> printf@ap(COMRAM[2]), 

    vfprintf@fp	PTR struct _IO_FILE size(2) Largest target is 0
		 -> NULL(NULL[0]), 

    vfprintf@fmt	PTR const unsigned char  size(2) Largest target is 37
		 -> STR_4(CODE[9]), STR_3(CODE[37]), STR_2(CODE[37]), STR_1(CODE[21]), 

    vfprintf@cfmt	PTR unsigned char  size(2) Largest target is 37
		 -> STR_4(CODE[9]), STR_3(CODE[37]), STR_2(CODE[37]), STR_1(CODE[21]), 

    vfpfcnvrt@fp	PTR struct _IO_FILE size(2) Largest target is 0
		 -> NULL(NULL[0]), 

    vfpfcnvrt@cp	PTR unsigned char  size(2) Largest target is 37
		 -> STR_4(CODE[9]), STR_3(CODE[37]), STR_2(CODE[37]), STR_1(CODE[21]), 

    vfpfcnvrt@ap	PTR PTR void  size(2) Largest target is 2
		 -> printf@ap(COMRAM[2]), 

    vfpfcnvrt@fmt	PTR PTR unsigned char  size(2) Largest target is 2
		 -> vfprintf@cfmt(COMRAM[2]), 

    S1772$vp	PTR void  size(2) Largest target is 0

    convarg.vp	PTR void  size(2) Largest target is 0

    read_prec_or_width@ap	PTR PTR void [1] size(2) Largest target is 2
		 -> printf@ap(COMRAM[2]), 

    read_prec_or_width@fmt	PTR PTR const unsigned char  size(2) Largest target is 2
		 -> vfprintf@cfmt(COMRAM[2]), 

    sp__memcpy	PTR void  size(2) Largest target is 80
		 -> dbuf(BANK6[80]), 

    efgtoa@fp	PTR struct _IO_FILE size(2) Largest target is 0
		 -> NULL(NULL[0]), 

    sp__strcpy	PTR unsigned char  size(2) Largest target is 80
		 -> dbuf(BANK6[80]), 

    pad@buf	PTR unsigned char  size(2) Largest target is 80
		 -> dbuf(BANK6[80]), 

    pad@fp	PTR struct _IO_FILE size(2) Largest target is 0
		 -> NULL(NULL[0]), 

    printf@fmt	PTR const unsigned char  size(2) Largest target is 37
		 -> STR_4(CODE[9]), STR_3(CODE[37]), STR_2(CODE[37]), STR_1(CODE[21]), 

    printf@ap	PTR void [1] size(2) Largest target is 2
		 -> ?_printf(BANK5[2]), 

    UART1_SetTxInterruptHandler@InterruptHandler	PTR FTN()void  size(3) Largest target is 1
		 -> UART1_Transmit_ISR(), 

    UART1_SetRxInterruptHandler@InterruptHandler	PTR FTN()void  size(3) Largest target is 1
		 -> UART1_Receive_ISR(), 

    UART1_SetErrorHandler@interruptHandler	PTR FTN()void  size(3) Largest target is 1
		 -> UART1_DefaultErrorHandler(), 

    UART1_SetOverrunErrorHandler@interruptHandler	PTR FTN()void  size(3) Largest target is 1
		 -> UART1_DefaultOverrunErrorHandler(), 

    UART1_SetFramingErrorHandler@interruptHandler	PTR FTN()void  size(3) Largest target is 1
		 -> UART1_DefaultFramingErrorHandler(), 

    UART1_ErrorHandler	PTR FTN()void  size(3) Largest target is 1
		 -> NULL(), UART1_DefaultErrorHandler(), 

    UART1_OverrunErrorHandler	PTR FTN()void  size(3) Largest target is 1
		 -> NULL(), UART1_DefaultOverrunErrorHandler(), 

    UART1_FramingErrorHandler	PTR FTN()void  size(3) Largest target is 1
		 -> NULL(), UART1_DefaultFramingErrorHandler(), 

    ADC_SetActiveClockTuningInterruptHandler@InterruptHandler	PTR FTN()void  size(3) Largest target is 1
		 -> ADC_DefaultActiveClockTuning_ISR(), 

    ADC_SetContext1ThresholdInterruptHandler@InterruptHandler	PTR FTN()void  size(3) Largest target is 1
		 -> ADC_DefaultContext1Threshold_ISR(), 

    ADC_SetADIInterruptHandler@InterruptHandler	PTR FTN()void  size(3) Largest target is 1
		 -> ADC_DefaultADI_ISR(), 

    ADC_Context1Thereshld_ISR	PTR FTN()void  size(3) Largest target is 1
		 -> NULL(), ADC_DefaultContext1Threshold_ISR(), 

    ADC_ActiveClockTuning_ISR	PTR FTN()void  size(3) Largest target is 1
		 -> NULL(), ADC_DefaultActiveClockTuning_ISR(), 

    ADC_ConversionComplete_ISR	PTR FTN()void  size(3) Largest target is 1
		 -> NULL(), ADC_DefaultADI_ISR(), 

    UART1_RxInterruptHandler	PTR FTN()void  size(3) Largest target is 1
		 -> NULL(), UART1_Receive_ISR(), 

    UART1_TxInterruptHandler	PTR FTN()void  size(3) Largest target is 1
		 -> NULL(), UART1_Transmit_ISR(), 


Critical Paths under _main in COMRAM

    _main->_ADC_Temp_routine
    _UART1_Initialize->_UART1_SetErrorHandler
    _UART1_Initialize->_UART1_SetFramingErrorHandler
    _UART1_Initialize->_UART1_SetOverrunErrorHandler
    _UART1_Initialize->_UART1_SetRxInterruptHandler
    _UART1_Initialize->_UART1_SetTxInterruptHandler
    _ADC_Initialize->_ADC_SetADIInterruptHandler
    _ADC_Initialize->_ADC_SetActiveClockTuningInterruptHandler
    _ADC_Initialize->_ADC_SetContext1ThresholdInterruptHandler
    _ADC_Temp_routine->_printf
    _printf->_vfprintf
    _vfprintf->_vfpfcnvrt
    _vfpfcnvrt->_efgtoa
    _read_prec_or_width->___wmul
    _efgtoa->___flsub
    _pad->_fputs
    _fputs->_fputc
    _fputc->_putch
    _putch->_UART1_Write
    _floorf->___fldiv
    ___flsub->___fladd
    ___fladd->___flmul
    ___flge->___flmul

Critical Paths under _INTERRUPT_InterruptManager in COMRAM

    None.

Critical Paths under _main in BANK5

    _main->_ADC_Temp_routine
    _ADC_Temp_routine->_printf
    _printf->_vfprintf
    _vfprintf->_vfpfcnvrt
    _vfpfcnvrt->_efgtoa

Critical Paths under _INTERRUPT_InterruptManager in BANK5

    None.

Critical Paths under _main in BANK6

    None.

Critical Paths under _INTERRUPT_InterruptManager in BANK6

    None.

Critical Paths under _main in BANK7

    None.

Critical Paths under _INTERRUPT_InterruptManager in BANK7

    None.

Critical Paths under _main in BANK8

    None.

Critical Paths under _INTERRUPT_InterruptManager in BANK8

    None.

Critical Paths under _main in BANK9

    None.

Critical Paths under _INTERRUPT_InterruptManager in BANK9

    None.

Critical Paths under _main in BANK10

    None.

Critical Paths under _INTERRUPT_InterruptManager in BANK10

    None.

Critical Paths under _main in BANK11

    None.

Critical Paths under _INTERRUPT_InterruptManager in BANK11

    None.

Critical Paths under _main in BANK12

    None.

Critical Paths under _INTERRUPT_InterruptManager in BANK12

    None.

Critical Paths under _main in BANK13

    None.

Critical Paths under _INTERRUPT_InterruptManager in BANK13

    None.

Critical Paths under _main in BANK14

    None.

Critical Paths under _INTERRUPT_InterruptManager in BANK14

    None.

Critical Paths under _main in BANK15

    None.

Critical Paths under _INTERRUPT_InterruptManager in BANK15

    None.

Critical Paths under _main in BANK16

    None.

Critical Paths under _INTERRUPT_InterruptManager in BANK16

    None.

Critical Paths under _main in BANK17

    None.

Critical Paths under _INTERRUPT_InterruptManager in BANK17

    None.

Critical Paths under _main in BANK18

    None.

Critical Paths under _INTERRUPT_InterruptManager in BANK18

    None.

Critical Paths under _main in BANK19

    None.

Critical Paths under _INTERRUPT_InterruptManager in BANK19

    None.

Critical Paths under _main in BANK20

    None.

Critical Paths under _INTERRUPT_InterruptManager in BANK20

    None.

Critical Paths under _main in BANK21

    None.

Critical Paths under _INTERRUPT_InterruptManager in BANK21

    None.

Critical Paths under _main in BANK22

    None.

Critical Paths under _INTERRUPT_InterruptManager in BANK22

    None.

Critical Paths under _main in BANK23

    None.

Critical Paths under _INTERRUPT_InterruptManager in BANK23

    None.

Critical Paths under _main in BANK24

    None.

Critical Paths under _INTERRUPT_InterruptManager in BANK24

    None.

Critical Paths under _main in BANK25

    None.

Critical Paths under _INTERRUPT_InterruptManager in BANK25

    None.

Critical Paths under _main in BANK26

    None.

Critical Paths under _INTERRUPT_InterruptManager in BANK26

    None.

Critical Paths under _main in BANK27

    None.

Critical Paths under _INTERRUPT_InterruptManager in BANK27

    None.

Critical Paths under _main in BANK28

    None.

Critical Paths under _INTERRUPT_InterruptManager in BANK28

    None.

Critical Paths under _main in BANK29

    None.

Critical Paths under _INTERRUPT_InterruptManager in BANK29

    None.

Critical Paths under _main in BANK30

    None.

Critical Paths under _INTERRUPT_InterruptManager in BANK30

    None.

Critical Paths under _main in BANK31

    None.

Critical Paths under _INTERRUPT_InterruptManager in BANK31

    None.

Critical Paths under _main in BANK32

    None.

Critical Paths under _INTERRUPT_InterruptManager in BANK32

    None.

Critical Paths under _main in BANK33

    None.

Critical Paths under _INTERRUPT_InterruptManager in BANK33

    None.

Critical Paths under _main in BANK34

    None.

Critical Paths under _INTERRUPT_InterruptManager in BANK34

    None.

Critical Paths under _main in BANK35

    None.

Critical Paths under _INTERRUPT_InterruptManager in BANK35

    None.

Critical Paths under _main in BANK36

    None.

Critical Paths under _INTERRUPT_InterruptManager in BANK36

    None.

Critical Paths under _main in BANK37

    None.

Critical Paths under _INTERRUPT_InterruptManager in BANK37

    None.

Critical Paths under _main in BANK38

    None.

Critical Paths under _INTERRUPT_InterruptManager in BANK38

    None.

Critical Paths under _main in BANK39

    None.

Critical Paths under _INTERRUPT_InterruptManager in BANK39

    None.

Critical Paths under _main in BANK40

    None.

Critical Paths under _INTERRUPT_InterruptManager in BANK40

    None.

Critical Paths under _main in BANK41

    None.

Critical Paths under _INTERRUPT_InterruptManager in BANK41

    None.

Critical Paths under _main in BANK42

    None.

Critical Paths under _INTERRUPT_InterruptManager in BANK42

    None.

Critical Paths under _main in BANK43

    None.

Critical Paths under _INTERRUPT_InterruptManager in BANK43

    None.

Critical Paths under _main in BANK44

    None.

Critical Paths under _INTERRUPT_InterruptManager in BANK44

    None.

Critical Paths under _main in BANK45

    None.

Critical Paths under _INTERRUPT_InterruptManager in BANK45

    None.

Critical Paths under _main in BANK46

    None.

Critical Paths under _INTERRUPT_InterruptManager in BANK46

    None.

Critical Paths under _main in BANK47

    None.

Critical Paths under _INTERRUPT_InterruptManager in BANK47

    None.

Critical Paths under _main in BANK48

    None.

Critical Paths under _INTERRUPT_InterruptManager in BANK48

    None.

Critical Paths under _main in BANK49

    None.

Critical Paths under _INTERRUPT_InterruptManager in BANK49

    None.

Critical Paths under _main in BANK50

    None.

Critical Paths under _INTERRUPT_InterruptManager in BANK50

    None.

Critical Paths under _main in BANK51

    None.

Critical Paths under _INTERRUPT_InterruptManager in BANK51

    None.

Critical Paths under _main in BANK52

    None.

Critical Paths under _INTERRUPT_InterruptManager in BANK52

    None.

Critical Paths under _main in BANK53

    None.

Critical Paths under _INTERRUPT_InterruptManager in BANK53

    None.

Critical Paths under _main in BANK54

    None.

Critical Paths under _INTERRUPT_InterruptManager in BANK54

    None.

Call Graph Tables:

 ---------------------------------------------------------------------------------
 (Depth) Function   	        Calls       Base Space   Used Autos Params    Refs
 ---------------------------------------------------------------------------------
 (0) _main                                                 0     0      0   42473
                   _ADC_Temp_routine
                     _FLASH_ReadWord
                  _SYSTEM_Initialize
 ---------------------------------------------------------------------------------
 (1) _SYSTEM_Initialize                                    0     0      0     784
                     _ADC_Initialize
                     _FVR_Initialize
               _INTERRUPT_Initialize
              _OSCILLATOR_Initialize
             _PIN_MANAGER_Initialize
                     _PMD_Initialize
                   _UART1_Initialize
 ---------------------------------------------------------------------------------
 (2) _UART1_Initialize                                     0     0      0     490
              _UART1_SetErrorHandler
       _UART1_SetFramingErrorHandler
       _UART1_SetOverrunErrorHandler
        _UART1_SetRxInterruptHandler
        _UART1_SetTxInterruptHandler
 ---------------------------------------------------------------------------------
 (3) _UART1_SetTxInterruptHandler                          3     0      3      98
                                              2 COMRAM     3     0      3
 ---------------------------------------------------------------------------------
 (3) _UART1_SetRxInterruptHandler                          3     0      3      98
                                              2 COMRAM     3     0      3
 ---------------------------------------------------------------------------------
 (3) _UART1_SetOverrunErrorHandler                         3     0      3      98
                                              2 COMRAM     3     0      3
 ---------------------------------------------------------------------------------
 (3) _UART1_SetFramingErrorHandler                         3     0      3      98
                                              2 COMRAM     3     0      3
 ---------------------------------------------------------------------------------
 (3) _UART1_SetErrorHandler                                3     0      3      98
                                              2 COMRAM     3     0      3
 ---------------------------------------------------------------------------------
 (2) _PMD_Initialize                                       0     0      0       0
 ---------------------------------------------------------------------------------
 (2) _PIN_MANAGER_Initialize                               0     0      0       0
 ---------------------------------------------------------------------------------
 (2) _OSCILLATOR_Initialize                                0     0      0       0
 ---------------------------------------------------------------------------------
 (2) _INTERRUPT_Initialize                                 0     0      0       0
 ---------------------------------------------------------------------------------
 (2) _FVR_Initialize                                       0     0      0       0
 ---------------------------------------------------------------------------------
 (2) _ADC_Initialize                                       0     0      0     294
         _ADC_SetADIInterruptHandler
_ADC_SetActiveClockTuningInterruptHa
_ADC_SetContext1ThresholdInterruptHa
 ---------------------------------------------------------------------------------
 (3) _ADC_SetContext1ThresholdInterruptHandler             3     0      3      98
                                              2 COMRAM     3     0      3
 ---------------------------------------------------------------------------------
 (3) _ADC_SetActiveClockTuningInterruptHandler             3     0      3      98
                                              2 COMRAM     3     0      3
 ---------------------------------------------------------------------------------
 (3) _ADC_SetADIInterruptHandler                           3     0      3      98
                                              2 COMRAM     3     0      3
 ---------------------------------------------------------------------------------
 (1) _FLASH_ReadWord                                       8     4      4     264
                                              2 COMRAM     8     4      4
 ---------------------------------------------------------------------------------
 (1) _ADC_Temp_routine                                     8     8      0   41425
                                             73 COMRAM     4     4      0
                                             62 BANK5      4     4      0
       _ADC_DischargeSampleCapacitor
            _ADC_GetSingleConversion
                            ___atdiv
                            ___fladd
                            ___fldiv
                            ___flmul
                             ___tmul
                           ___xxtofl
                             _printf
 ---------------------------------------------------------------------------------
 (2) _printf                                              10     4      6   29735
                                             71 COMRAM     2     2      0
                                             56 BANK5      6     0      6
                           _vfprintf
 ---------------------------------------------------------------------------------
 (3) _vfprintf                                             8     2      6   29282
                                             69 COMRAM     2     2      0
                                             50 BANK5      6     0      6
                          _vfpfcnvrt
 ---------------------------------------------------------------------------------
 (4) _vfpfcnvrt                                           19    13      6   28794
                                             60 COMRAM     9     9      0
                                             44 BANK5      6     0      6
                             _efgtoa
                              _fputc
                 _read_prec_or_width
 ---------------------------------------------------------------------------------
 (5) _read_prec_or_width                                   9     5      4     852
                                              8 COMRAM     9     5      4
                             ___wmul
 ---------------------------------------------------------------------------------
 (6) ___wmul                                               6     2      4     412
                                              2 COMRAM     6     2      4
 ---------------------------------------------------------------------------------
 (5) _efgtoa                                              54    47      7   25988
                                             51 COMRAM     9     2      7
                                              0 BANK5     44    44      0
                            ___fladd
                            ___fldiv
                             ___fleq
                             ___flge
                            ___flmul
                            ___flneg
                            ___flsub
                            ___fltol
                      ___fpclassifyf
                             _floorf
                               _labs
                             _memcpy
                                _pad
                             _strcpy
 ---------------------------------------------------------------------------------
 (6) _strcpy                                               8     4      4     497
                                              2 COMRAM     8     4      4
 ---------------------------------------------------------------------------------
 (6) _pad                                                 11     5      6    3259
                                             20 COMRAM    11     5      6
                              _fputc
                              _fputs
 ---------------------------------------------------------------------------------
 (7) _fputs                                                7     3      4    1270
                                             13 COMRAM     7     3      4
                              _fputc
 ---------------------------------------------------------------------------------
 (5) _fputc                                                9     5      4     950
                                              4 COMRAM     9     5      4
                              _putch
 ---------------------------------------------------------------------------------
 (6) _putch                                                1     1      0      93
                                              3 COMRAM     1     1      0
                        _UART1_Write
 ---------------------------------------------------------------------------------
 (7) _UART1_Write                                          1     1      0      62
                                              2 COMRAM     1     1      0
 ---------------------------------------------------------------------------------
 (6) _memcpy                                              11     5      6     478
                                              2 COMRAM    11     5      6
 ---------------------------------------------------------------------------------
 (6) _labs                                                 8     4      4     363
                                              2 COMRAM     8     4      4
 ---------------------------------------------------------------------------------
 (6) _floorf                                              20    16      4     669
                                             27 COMRAM    20    16      4
                            ___fldiv (ARG)
 ---------------------------------------------------------------------------------
 (6) ___fpclassifyf                                       14    10      4     375
                                              2 COMRAM    14    10      4
 ---------------------------------------------------------------------------------
 (6) ___fltol                                             10     6      4     607
                                              2 COMRAM    10     6      4
 ---------------------------------------------------------------------------------
 (6) ___flsub                                              8     0      8    4187
                                             43 COMRAM     8     0      8
                            ___fladd
                            ___flmul (ARG)
 ---------------------------------------------------------------------------------
 (7) ___fladd                                             16     8      8    3622
                                             27 COMRAM    16     8      8
                            ___flmul (ARG)
 ---------------------------------------------------------------------------------
 (6) ___flneg                                              4     0      4     155
                                              2 COMRAM     4     0      4
 ---------------------------------------------------------------------------------
 (6) ___flmul                                             25    17      8    3593
                                              2 COMRAM    25    17      8
 ---------------------------------------------------------------------------------
 (6) ___flge                                              12     4      8     986
                                             27 COMRAM    12     4      8
                            ___flmul (ARG)
 ---------------------------------------------------------------------------------
 (6) ___fleq                                              12     4      8     770
                                              2 COMRAM    12     4      8
 ---------------------------------------------------------------------------------
 (6) ___fldiv                                             25    17      8    2903
                                              2 COMRAM    25    17      8
 ---------------------------------------------------------------------------------
 (2) ___xxtofl                                            14    10      4     566
                                              2 COMRAM    14    10      4
 ---------------------------------------------------------------------------------
 (2) ___tmul                                               9     3      6     316
                                              2 COMRAM     9     3      6
 ---------------------------------------------------------------------------------
 (2) ___atdiv                                             11     5      6     625
                                              2 COMRAM    11     5      6
 ---------------------------------------------------------------------------------
 (2) _ADC_GetSingleConversion                              5     3      2      31
                                              2 COMRAM     5     3      2
 ---------------------------------------------------------------------------------
 (2) _ADC_DischargeSampleCapacitor                         0     0      0       0
 ---------------------------------------------------------------------------------
 Estimated maximum stack depth 7
 ---------------------------------------------------------------------------------
 (Depth) Function   	        Calls       Base Space   Used Autos Params    Refs
 ---------------------------------------------------------------------------------
 (11) _INTERRUPT_InterruptManager                          2     2      0       0
                                              0 COMRAM     2     2      0
                                NULL *
                  _UART1_Receive_ISR *
                 _UART1_Transmit_ISR *
 ---------------------------------------------------------------------------------
 (12) _UART1_Transmit_ISR                                  0     0      0       0
 ---------------------------------------------------------------------------------
 (12) _UART1_Receive_ISR                                   0     0      0       0
                                NULL *
          _UART1_DefaultErrorHandler *
   _UART1_DefaultFramingErrorHandler *
   _UART1_DefaultOverrunErrorHandler *
                _UART1_RxDataHandler
 ---------------------------------------------------------------------------------
 (13) _UART1_DefaultOverrunErrorHandler                    0     0      0       0
 ---------------------------------------------------------------------------------
 (13) _UART1_DefaultFramingErrorHandler                    0     0      0       0
 ---------------------------------------------------------------------------------
 (13) _UART1_DefaultErrorHandler                           0     0      0       0
                _UART1_RxDataHandler
 ---------------------------------------------------------------------------------
 (13) _UART1_RxDataHandler                                 0     0      0       0
 ---------------------------------------------------------------------------------
 (13) NULL(Fake)                                           0     0      0       0
 ---------------------------------------------------------------------------------
 Estimated maximum stack depth 13
 ---------------------------------------------------------------------------------

 Call Graph Graphs:

 _main (ROOT)
   _ADC_Temp_routine
     _ADC_DischargeSampleCapacitor
     _ADC_GetSingleConversion
     ___atdiv
     ___fladd
       ___flmul (ARG)
     ___fldiv
     ___flmul
     ___tmul
     ___xxtofl
     _printf
       _vfprintf
         _vfpfcnvrt
           _efgtoa
             ___fladd
             ___fldiv
             ___fleq
             ___flge
               ___flmul (ARG)
             ___flmul
             ___flneg
             ___flsub
               ___fladd
               ___flmul (ARG)
             ___fltol
             ___fpclassifyf
             _floorf
               ___fldiv (ARG)
             _labs
             _memcpy
             _pad
               _fputc
                 _putch
                   _UART1_Write
               _fputs
                 _fputc
             _strcpy
           _fputc
           _read_prec_or_width
             ___wmul
   _FLASH_ReadWord
   _SYSTEM_Initialize
     _ADC_Initialize
       _ADC_SetADIInterruptHandler
       _ADC_SetActiveClockTuningInterruptHandler
       _ADC_SetContext1ThresholdInterruptHandler
     _FVR_Initialize
     _INTERRUPT_Initialize
     _OSCILLATOR_Initialize
     _PIN_MANAGER_Initialize
     _PMD_Initialize
     _UART1_Initialize
       _UART1_SetErrorHandler
       _UART1_SetFramingErrorHandler
       _UART1_SetOverrunErrorHandler
       _UART1_SetRxInterruptHandler
       _UART1_SetTxInterruptHandler

 _INTERRUPT_InterruptManager (ROOT)
   NULL(Fake) *
   _UART1_Receive_ISR *
     NULL(Fake) *
     _UART1_DefaultErrorHandler *
       _UART1_RxDataHandler
     _UART1_DefaultFramingErrorHandler *
     _UART1_DefaultOverrunErrorHandler *
     _UART1_RxDataHandler *
   _UART1_Transmit_ISR *

 Address spaces:
Name               Size   Autos  Total    Cost      Usage
BIGRAM            31FF      0       0     105        0.0%
BITBIGSFR_1        8FE      0       0     104        0.0%
EEDATA             400      0       0       0        0.0%
BITBIGSFRllllll    175      0       0     126        0.0%
BITBIGSFRllllll    123      0       0     121        0.0%
BITBANK54          100      0       0     102        0.0%
BANK54             100      0       0     103        0.0%
BITBANK53          100      0       0     100        0.0%
BANK53             100      0       0     101        0.0%
BITBANK52          100      0       0      98        0.0%
BANK52             100      0       0      99        0.0%
BITBANK51          100      0       0      96        0.0%
BANK51             100      0       0      97        0.0%
BITBANK50          100      0       0      94        0.0%
BANK50             100      0       0      95        0.0%
BITBANK49          100      0       0      92        0.0%
BANK49             100      0       0      93        0.0%
BITBANK48          100      0       0      90        0.0%
BANK48             100      0       0      91        0.0%
BITBANK47          100      0       0      88        0.0%
BANK47             100      0       0      89        0.0%
BITBANK46          100      0       0      86        0.0%
BANK46             100      0       0      87        0.0%
BITBANK45          100      0       0      84        0.0%
BANK45             100      0       0      85        0.0%
BITBANK44          100      0       0      82        0.0%
BANK44             100      0       0      83        0.0%
BITBANK43          100      0       0      80        0.0%
BANK43             100      0       0      81        0.0%
BITBANK42          100      0       0      78        0.0%
BANK42             100      0       0      79        0.0%
BITBANK41          100      0       0      76        0.0%
BANK41             100      0       0      77        0.0%
BITBANK40          100      0       0      74        0.0%
BANK40             100      0       0      75        0.0%
BITBANK39          100      0       0      72        0.0%
BANK39             100      0       0      73        0.0%
BITBANK38          100      0       0      70        0.0%
BANK38             100      0       0      71        0.0%
BITBANK37          100      0       0      68        0.0%
BANK37             100      0       0      69        0.0%
BITBANK36          100      0       0      66        0.0%
BANK36             100      0       0      67        0.0%
BITBANK35          100      0       0      64        0.0%
BANK35             100      0       0      65        0.0%
BITBANK34          100      0       0      62        0.0%
BANK34             100      0       0      63        0.0%
BITBANK33          100      0       0      60        0.0%
BANK33             100      0       0      61        0.0%
BITBANK32          100      0       0      58        0.0%
BANK32             100      0       0      59        0.0%
BITBANK31          100      0       0      56        0.0%
BANK31             100      0       0      57        0.0%
BITBANK30          100      0       0      54        0.0%
BANK30             100      0       0      55        0.0%
BITBANK29          100      0       0      52        0.0%
BANK29             100      0       0      53        0.0%
BITBANK28          100      0       0      50        0.0%
BANK28             100      0       0      51        0.0%
BITBANK27          100      0       0      48        0.0%
BANK27             100      0       0      49        0.0%
BITBANK26          100      0       0      46        0.0%
BANK26             100      0       0      47        0.0%
BITBANK25          100      0       0      44        0.0%
BANK25             100      0       0      45        0.0%
BITBANK24          100      0       0      42        0.0%
BANK24             100      0       0      43        0.0%
BITBANK23          100      0       0      40        0.0%
BANK23             100      0       0      41        0.0%
BITBANK22          100      0       0      38        0.0%
BANK22             100      0       0      39        0.0%
BITBANK21          100      0       0      36        0.0%
BANK21             100      0       0      37        0.0%
BITBANK20          100      0       0      34        0.0%
BANK20             100      0       0      35        0.0%
BITBANK19          100      0       0      32        0.0%
BANK19             100      0       0      33        0.0%
BITBANK18          100      0       0      30        0.0%
BANK18             100      0       0      31        0.0%
BITBANK17          100      0       0      28        0.0%
BANK17             100      0       0      29        0.0%
BITBANK16          100      0       0      26        0.0%
BANK16             100      0       0      27        0.0%
BITBANK15          100      0       0      24        0.0%
BANK15             100      0       0      25        0.0%
BITBANK14          100      0       0      22        0.0%
BANK14             100      0       0      23        0.0%
BITBANK13          100      0       0      20        0.0%
BANK13             100      0       0      21        0.0%
BITBANK12          100      0       0      18        0.0%
BANK12             100      0       0      19        0.0%
BITBANK11          100      0       0      16        0.0%
BANK11             100      0       0      17        0.0%
BITBANK10          100      0       0      14        0.0%
BANK10             100      0       0      15        0.0%
BITBANK9           100      0       0      12        0.0%
BANK9              100      0       0      13        0.0%
BITBANK8           100      0       0      10        0.0%
BANK8              100      0       0      11        0.0%
BITBANK7           100      0       0       8        0.0%
BANK7              100      0       0       9        0.0%
BITBANK6           100      0       0       6        0.0%
BANK6              100      0      50       7       31.2%
BITBANK5            A0      0       0       4        0.0%
BANK5               A0     42      71       5       70.6%
BITBIGSFRllhhhl     75      0       0     113        0.0%
BITCOMRAM           5F      0       0       0        0.0%
COMRAM              5F     4D      5B       1       95.8%
BITBIGSFRllllll     48      0       0     125        0.0%
BITBIGSFRllllll     44      0       0     129        0.0%
BITBIGSFRllllll     40      0       0     131        0.0%
BITBIGSFRllllll     2E      0       0     124        0.0%
BITBIGSFRhhhl       1E      0       0     107        0.0%
BITBIGSFRllllll     19      0       0     130        0.0%
BITBIGSFRllhhhh      C      0       0     112        0.0%
BITBIGSFRllhhhh      A      0       0     110        0.0%
BITBIGSFRhhl         A      0       0     108        0.0%
BITBIGSFRhhhh        7      0       0     106        0.0%
BITBIGSFRllllll      3      0       0     119        0.0%
BITBIGSFRlllllh      3      0       0     118        0.0%
BITBIGSFRllhhl       3      0       0     114        0.0%
BITBIGSFRllllh       3      0       0     117        0.0%
BITBIGSFRlllh        3      0       0     116        0.0%
BITBIGSFRllhl        3      0       0     115        0.0%
BITBIGSFRhll         2      0       0     109        0.0%
BITBIGSFRllllll      1      0       0     127        0.0%
BITBIGSFRllllll      1      0       0     128        0.0%
BITBIGSFRllllll      1      0       0     123        0.0%
BITBIGSFRllllll      1      0       0     122        0.0%
BITBIGSFRllhhhh      1      0       0     111        0.0%
BITBIGSFRllllll      1      0       0     120        0.0%
BIGSFR_1             0      0       0     200        0.0%
BIGSFR               0      0       0     200        0.0%
BITSFR_14            0      0       0     200        0.0%
SFR_14               0      0       0     200        0.0%
BITSFR_13            0      0       0     200        0.0%
SFR_13               0      0       0     200        0.0%
BITSFR_12            0      0       0     200        0.0%
SFR_12               0      0       0     200        0.0%
BITSFR_11            0      0       0     200        0.0%
SFR_11               0      0       0     200        0.0%
BITSFR_10            0      0       0     200        0.0%
SFR_10               0      0       0     200        0.0%
BITSFR_9             0      0       0     200        0.0%
SFR_9                0      0       0     200        0.0%
BITSFR_8             0      0       0     200        0.0%
SFR_8                0      0       0     200        0.0%
BITSFR_7             0      0       0     200        0.0%
SFR_7                0      0       0     200        0.0%
BITSFR_6             0      0       0     200        0.0%
SFR_6                0      0       0     200        0.0%
BITSFR_5             0      0       0     200        0.0%
SFR_5                0      0       0     200        0.0%
BITSFR_4             0      0       0     200        0.0%
SFR_4                0      0       0     200        0.0%
BITSFR_3             0      0       0     200        0.0%
SFR_3                0      0       0     200        0.0%
BITSFR_2             0      0       0     200        0.0%
SFR_2                0      0       0     200        0.0%
BITSFR_1             0      0       0     200        0.0%
SFR_1                0      0       0     200        0.0%
BITSFR               0      0       0     200        0.0%
SFR                  0      0       0     200        0.0%
STACK                0      0       0       2        0.0%
NULL                 0      0       0       0        0.0%
ABS                  0      0     11C     132        0.0%
DATA                 0      0     11C       3        0.0%
CODE                 0      0       0       0        0.0%


Microchip Technology PIC18 Macro Assembler V2.41 build 20230208172133 
Symbol Table                                                                                   Mon Apr 24 09:30:32 2023

                                            ___fldiv@aexp 051B  
                                            ___fldiv@bexp 051A  
                                            ___fldiv@sign 0513  
                                                      l91 6808  
                                        ___atdiv@quotient 050B  
                                  __end_of_FVR_Initialize 6E5A  
                                     ___wmul@multiplicand 0505  
                                                     l107 6E6A  
                                                     l227 661A  
                                                     l265 6CBA  
                                                     l361 6E38  
                                                     l355 6E46  
                                                     l531 6E00  
                                                     l268 6CDA  
                                                     l540 6DE4  
                                                     l277 6E60  
                                                     l358 6E2A  
                                                     l534 6E1C  
                                                     l528 6E0E  
                                                     l537 6DF2  
                                                     l465 66CC  
                                                     l490 6AAE  
                                                     l722 695E  
                                                     l715 5D5C  
                                                     l732 6DA0  
                                                     l493 6ADA  
                                                     l725 6968  
                                                     l670 6D2C  
                                                     l576 6D7A  
                                                     l664 6DBE  
                                                     l737 6A22  
                                                     l489 6A98  
                                                     l738 6A2E  
                                                     l931 6300  
                                                     l499 6E50  
                                                     l667 6DD6  
                                                     l677 6E58  
                                                     l928 62CA  
                                                     l991 6776  
                                                     l997 60D4  
                                                     _pad 6890  
                                                     tosl 04FD  
                                                     wreg 04E8  
                                            ___flmul@aexp 0510  
                                            ___flmul@bexp 0515  
                                      _UART1_Transmit_ISR 6BFA  
                                            ___flmul@sign 050F  
                                            ___flmul@temp 051A  
                                            ___flmul@prod 0516  
                                            ___fltol@exp1 050C  
                                                    l1002 611A  
                                                    l1006 6CAA  
                                                    l1029 6016  
                                                    l1302 6B70  
                                                    l1401 5EA8  
                                                    l1314 5712  
                                                    l1410 6D54  
                                                    l1316 5572  
                                                    l1260 4C7E  
                                                    l1500 63C6  
                                                    l1325 55B8  
                                                    l1261 4C6C  
                                                    l1350 5378  
                                                    l1262 4C32  
                                                    l1327 5630  
                                                    l1319 5536  
                                                    l1328 561E  
                                                    l1440 68B2  
                                                    l1504 63CE  
                                                    l1353 520A  
                                                    l1346 5014  
                                                    l1363 533A  
                                                    l1355 5282  
                                                    l1531 6A84  
                                                    l1356 5270  
                                                    l1444 6908  
                                                    l1460 4270  
                                                    l1524 5994  
                                                    l1277 4D98  
                                                    l1269 4F4E  
                                                    l1541 6218  
                                                    l1390 5F10  
                                                    l1286 4E68  
                                                    l1287 4E56  
                                                    l1551 5AEA  
                                                    l1455 4A8E  
                                                    l5000 4B70  
                                                    l1394 5E4C  
                                                    l5010 4B9C  
                                                    l5002 4B82  
                                                    l1562 69D6  
                                                    l1458 442A  
                                                    l1387 5DB4  
                                                    l5100 4DD2  
                                                    l5020 4BB0  
                                                    l5012 4BA0  
                                                    l5004 4B90  
                                                    l1548 5BA6  
                                                    l1580 6498  
                                                    l5110 4E02  
                                                    l5102 4DDC  
                                                    l5030 4BC4  
                                                    l5022 4BB4  
                                                    l5014 4BA4  
                                                    l5006 4B94  
                                                    l1559 69C6  
                                                    l6000 6266  
                                                    l5200 53FC  
                                                    l5120 4E2A  
                                                    l5112 4E06  
                                                    l5104 4DEA  
                                                    l5040 4BFE  
                                                    l5032 4BC8  
                                                    l5024 4BB8  
                                                    l5016 4BA8  
                                                    l5008 4B98  
                                                    l1568 6B2A  
                                                    l1488 4872  
                                                    l4400 6DF4  
                                                    l6010 62A2  
                                                    l6002 627A  
                                                    l5202 540C  
                                                    l5210 5436  
                                                    l5130 4E84  
                                                    l5122 4E38  
                                                    l5114 4E16  
                                                    l5106 4DEC  
                                                    l5050 4C50  
                                                    l5042 4C1A  
                                                    l5034 4BCC  
                                                    l5026 4BBC  
                                                    l5018 4BAC  
                                                    l1594 6BB4  
                                                    l4402 6E10  
                                                    l6020 62E8  
                                                    l6012 62BC  
                                                    l6004 6282  
                                                    l5300 5700  
                                                    l5220 5478  
                                                    l5212 5446  
                                                    l5204 541C  
                                                    l5140 4EEE  
                                                    l5132 4E92  
                                                    l5124 4E4E  
                                                    l5108 4DFA  
                                                    l5116 4E18  
                                                    l5060 4C9C  
                                                    l5052 4C5E  
                                                    l5044 4C2A  
                                                    l5028 4BC0  
                                                    l5036 4BD0  
                                                    l1588 6BF8  
                                                    l4500 6640  
                                                    l6100 690E  
                                                    l6022 62F4  
                                                    l6014 62C8  
                                                    l6006 628C  
                                                    l6030 5D7E  
                                                    l5302 5706  
                                                    l5214 545C  
                                                    l5206 542C  
                                                    l5150 4F28  
                                                    l5142 4F0E  
                                                    l5134 4ECC  
                                                    l5070 4CDC  
                                                    l5118 4E26  
                                                    l5054 4C60  
                                                    l5046 4C40  
                                                    l5038 4BD4  
                                                    l4430 679C  
                                                    l4510 6656  
                                                    l4502 6646  
                                                    l6110 694E  
                                                    l6102 6910  
                                                    l6016 62D2  
                                                    l6008 629A  
                                                    l6040 5DF6  
                                                    l6032 5DC4  
                                                    l5304 5708  
                                                    l5240 54FA  
                                                    l5232 54B0  
                                                    l5216 546C  
                                                    l5224 548C  
                                                    l5208 542E  
                                                    l5400 521A  
                                                    l5320 4F7C  
                                                    l5312 4F50  
                                                    l5152 4F2E  
                                                    l5144 4F12  
                                                    l5128 4E78  
                                                    l5136 4ECE  
                                                    l5080 4D06  
                                                    l5072 4CE8  
                                                    l5064 4CB0  
                                                    l5056 4C6A  
                                                    l5048 4C4C  
                                                    l5160 6BB6  
                                                    l4440 67B0  
                                                    l4432 679E  
                                                    l4424 6778  
                                                    l4520 666A  
                                                    l4512 665A  
                                                    l4504 664A  
                                                    l6112 6960  
                                                    l6104 692C  
                                                    l6018 62D8  
                                                    l6050 5E7E  
                                                    l6042 5E02  
                                                    l6034 5DDA  
                                                    l6026 5D60  
                                                    l5250 5540  
                                                    l5242 5502  
                                                    l5234 54CA  
                                                    l5226 549C  
                                                    l5218 5474  
                                                    l5402 5228  
                                                    l5330 4FB8  
                                                    l5322 4F8C  
                                                    l5314 4F5C  
                                                    l5154 4F3C  
                                                    l5146 4F20  
                                                    l5138 4EDE  
                                                    l5090 4D78  
                                                    l5074 4CEC  
                                                    l5066 4CC0  
                                                    l5058 4C8C  
                                                    l5082 4D0C  
                                                    l5162 6BC2  
                                                    l5170 6D98  
                                                    l4450 67EE  
                                                    l4442 67E2  
                                                    l4434 67A0  
                                                    l4426 6798  
                                                    l4530 667E  
                                                    l4522 666E  
                                                    l4514 665E  
                                                    l4506 664E  
                                                    l6106 6948  
                                                    l6060 5EBC  
                                                    l6052 5E8A  
                                                    l6044 5E34  
                                                    l6028 5D70  
                                                    l5260 5598  
                                                    l5252 555E  
                                                    l5244 5512  
                                                    l5236 54DA  
                                                    l5228 549C  
                                                    l5180 5396  
                                                    l5412 5292  
                                                    l5420 52DA  
                                                    l5404 522C  
                                                    l5340 4FEE  
                                                    l5332 4FBE  
                                                    l5324 4F9C  
                                                    l5316 4F6A  
                                                    l5156 4F3E  
                                                    l5148 4F26  
                                                    l5084 4D32  
                                                    l5092 4D88  
                                                    l5076 4CFA  
                                                    l5068 4CCE  
                                                    l5500 5F3C  
                                                    l5164 6BD4  
                                                    l4460 67FC  
                                                    l4452 67F0  
                                                    l4444 67E4  
                                                    l4436 67A4  
                                                    l4428 679A  
                                                    l4540 6D06  
                                                    l4532 668E  
                                                    l4524 6672  
                                                    l4516 6662  
                                                    l4508 6652  
                                                    l4700 6DB6  
                                                    l6108 694A  
                                                    l6062 5EE0  
                                                    l6054 5E98  
                                                    l6046 5E36  
                                                    l6038 5DEE  
                                                    l5270 55D6  
                                                    l5262 559E  
                                                    l5254 5560  
                                                    l5246 5526  
                                                    l5238 54EA  
                                                    l5182 53A6  
                                                    l5190 53D0  
                                                    l5174 537A  
                                                    l5430 534E  
                                                    l5422 52F4  
                                                    l5414 529E  
                                                    l5406 523A  
                                                    l5342 4FFE  
                                                    l5334 4FCC  
                                                    l5326 4FA2  
                                                    l5318 4F6C  
                                                    l5094 4DAE  
                                                    l5086 4D66  
                                                    l5078 4CFC  
                                                    l5510 5F8A  
                                                    l5502 5F66  
                                                    l5166 6BD8  
                                                    l4390 6E1E  
                                                    l4470 65E2  
                                                    l4462 6E68  
                                                    l4542 6DC0  
                                                    l4454 67F2  
                                                    l4446 67E6  
                                                    l4438 67A6  
                                                    l4534 669E  
                                                    l4526 6676  
                                                    l4518 6666  
                                                    l4702 6DBA  
                                                    ?_pad 0515  
                                                    l6064 5EF0  
                                                    l6056 5EB6  
                                                    l6048 5E42  
                                                    l5280 5640  
                                                    l5272 55DA  
                                                    l5264 55A8  
                                                    l5256 5570  
                                                    l5248 5534  
                                                    l5192 53E0  
                                                    l5184 53B6  
                                                    l5176 5386  
                                                    l5432 535C  
                                                    l5424 5308  
                                                    l5416 52AC  
                                                    l5408 5268  
                                                    l5360 5080  
                                                    l5352 5048  
                                                    l5344 5004  
                                                    l5336 4FCE  
                                                    l5328 4FB2  
                                                    l5096 4DBE  
                                                    l5088 4D68  
                                                    l5520 5FB6  
                                                    l5504 5F68  
                                                    l5600 5B4A  
                                                    l5168 6D7C  
                                                    l6080 5BDE  
                                                    l6072 5BA8  
                                                    l4392 6E2C  
                                                    l4472 65E4  
                                                    l4464 6564  
                                                    l4544 6E52  
                                                    l4456 67F4  
                                                    l4448 67E8  
                                                    l4536 66CA  
                                                    l4528 667A  
                                                    l6066 5EFE  
                                                    l6058 5EB8  
                                                    l5290 56A2  
                                                    l5282 564C  
                                                    l5274 55E8  
                                                    l5266 55B6  
                                                    l5258 5582  
                                                    l5194 53E6  
                                                    l5186 53C6  
                                                    l5178 5394  
                                                    l5450 66FC  
                                                    l5434 535E  
                                                    l5426 5322  
                                                    l5418 52D6  
                                                    l5370 50CA  
                                                    l5362 5098  
                                                    l5354 5054  
                                                    l5346 5024  
                                                    l5338 4FDE  
                                                    l5442 6B2C  
                                                    l5530 5FE6  
                                                    l5506 5F78  
                                                    l5602 5B5E  
                                                    l5610 6ADC  
                                                    l6090 5CBA  
                                                    l6082 5C06  
                                                    l6074 5BBE  
                                                    l4474 65F4  
                                                    l4466 65DE  
                                                    l4458 67F6  
                                                    l4394 6DE6  
                                                    l6068 5F00  
                                                    l5292 56B8  
                                                    l5284 565A  
                                                    l5276 5616  
                                                    l5268 55C8  
                                                    l5196 53EC  
                                                    l5188 53C8  
                                                    l5460 6774  
                                                    l5452 670C  
                                                    l5428 533E  
                                                    l5436 5364  
                                                    l5380 5120  
                                                    l5372 50DA  
                                                    l5364 50A4  
                                                    l5356 505E  
                                                    l5348 5034  
                                                    l5444 6B3C  
                                                    l5532 5FF6  
                                                    l5516 5FA2  
                                                    l5508 5F7C  
                                                    l5604 5B86  
                                                    l5612 6AF0  
                                                    l5620 6B10  
                                                    l5540 689E  
                                                    l5700 437C  
                                                    l6092 5CD8  
                                                    l6084 5C2E  
                                                    l6076 5BCC  
                                                    l4388 6E3A  
                                                    l4476 6604  
                                                    l4468 65E0  
                                                    l4396 6DD8  
                                                    l5294 56D2  
                                                    l5286 5684  
                                                    l5198 53FA  
                                                    l5454 673A  
                                                    l5470 6084  
                                                    l5438 5368  
                                                    l5390 51C4  
                                                    l5382 513C  
                                                    l5374 50E6  
                                                    l5366 50B0  
                                                    l5358 5074  
                                                    l5534 6006  
                                                    l5526 5FCA  
                                                    l5518 5FAC  
                                                    l5606 5B96  
                                                    l5614 6AFC  
                                                    l5550 68F4  
                                                    l5542 68AA  
                                                    l5710 4432  
                                                    l5702 43B0  
                                                    l5630 409A  
                                                    l5622 4072  
                                                    l6094 5D30  
                                                    l6086 5C4E  
                                                    l6078 5BD0  
                                                    l4478 6614  
                                                    l4398 6E02  
                                                    l4494 661C  
                                                    l5296 56EE  
                                                    l5288 5688  
                                                    l5456 674A  
                                                    l5448 66CE  
                                                    l5480 6112  
                                                    l5472 6094  
                                                    l5464 6018  
                                                    l5392 51D2  
                                                    l5384 5148  
                                                    l5376 50F6  
                                                    l5368 50BE  
                                                    l5528 5FD6  
                                                    l5560 61AE  
                                                    l5552 611C  
                                                    l5616 6B00  
                                                    l5544 68BE  
                                                    l5800 48C8  
                                                    l5720 4462  
                                                    l5712 4442  
                                                    l5704 43B8  
                                                    l5640 40F0  
                                                    l5632 40BE  
                                                    l5624 4078  
                                                    l6264 5800  
                                                    l6096 5D4E  
                                                    l6088 5C86  
                                                    l4496 661E  
                                                    l5298 56F2  
                                                    l5458 676E  
                                                    l5482 6118  
                                                    l5474 60A2  
                                                    l5466 6046  
                                                    l5394 51F0  
                                                    l5386 5164  
                                                    l5378 5110  
                                                    l5490 6C9A  
                                                    l5570 6210  
                                                    l5554 613C  
                                                    l5618 6B0C  
                                                    l4930 6AB0  
                                                    l5546 68D2  
                                                    l5538 6890  
                                                    l5810 48FC  
                                                    l5802 48CE  
                                                    l5722 4474  
                                                    l5730 44B4  
                                                    l5714 444E  
                                                    l5650 4140  
                                                    l5642 40FC  
                                                    l5634 40C8  
                                                    l5626 4088  
                                                    l6266 58BE  
                                                    l4498 662E  
                                                    l4690 6DA2  
                                                    l6098 690A  
                                                    l5476 60B4  
                                                    l5468 6056  
                                                    l5396 51FA  
                                                    l5388 518E  
                                                    l5556 617A  
                                                    l5564 61BA  
                                                    l5580 6990  
                                                    l4932 6AC0  
                                                    l4940 6AD8  
                                                    l4924 6A88  
                                                    l5548 68D6  
                                                    l5812 4902  
                                                    l5804 48D4  
                                                    l5820 499A  
                                                    l5740 459C  
                                                    l5732 44BC  
                                                    l5724 4482  
                                                    l5716 4456  
                                                    l5708 43F8  
                                                    l5660 4174  
                                                    l5652 4144  
                                                    l5644 4104  
                                                    l5636 40D0  
                                                    l5628 4096  
                                                    l6268 5948  
                                                    l4684 6D56  
                                                    l4692 6DA6  
                                                    l5478 60C2  
                                                    l5398 5208  
                                                    l5486 6C74  
                                                    l5494 5F12  
                                                    l5566 61CC  
                                                    l5558 61A2  
                                                    l5590 5A2E  
                                                    l5582 5996  
                                                    l4934 6AC2  
                                                    l4926 6A88  
                                                    l4942 6E4A  
                                                    l4950 63FE  
                                                    l5574 6B72  
                                                    l5830 4A1A  
                                                    l5822 49B8  
                                                    l5814 495A  
                                                    l5806 48E6  
                                                    l5750 465A  
                                                    l5742 45D0  
                                                    l5734 44CC  
                                                    l5726 449A  
                                                    l5718 445E  
                                                    l5670 41D0  
                                                    l5654 414A  
                                                    l5638 40E0  
                                                    l5646 4108  
                                                    l5902 5926  
                                                    l4686 6D6E  
                                                    l4694 6DAA  
                                                    _ADCP 03D8  
                                                    l5488 6C8A  
                                                    l4960 4A9C  
                                                    l5496 5F28  
                                                    l5584 59B6  
                                                    l4936 6AD2  
                                                    l4928 6AA6  
                                                    l4952 641C  
                                                    l4944 63D0  
                                                    l5576 6B82  
                                                    l5840 4A6E  
                                                    l5832 4A28  
                                                    l5824 49D4  
                                                    l5816 498E  
                                                    l5808 48F8  
                                                    l5760 46F6  
                                                    l5752 4670  
                                                    l5736 44E0  
                                                    l5744 45D6  
                                                    l5728 44AC  
                                                    l5672 41D6  
                                                    l5656 4152  
                                                    l5648 412E  
                                                    l5664 4194  
                                                    l5904 5956  
                                                    l4696 6DAE  
                                                    l4970 4ADC  
                                                    l4962 4AAA  
                                                    l5594 5A9E  
                                                    l5586 5A0C  
                                                    l5578 6972  
                                                    l4938 6AD6  
                                                    l4954 6452  
                                                    l4946 63E2  
                                                    l5834 4A40  
                                                    l5826 49DC  
                                                    l5818 4996  
                                                    l5762 474C  
                                                    l5770 479E  
                                                    l5754 46A2  
                                                    l5746 45F4  
                                                    l5738 4544  
                                                    l5690 4286  
                                                    l5674 41DE  
                                                    l5666 41BA  
                                                    l5682 4220  
                                                    l5658 416A  
                                                    l5850 636C  
                                                    l4698 6DB2  
                                                    l4980 4B0E  
                                                    l4972 4ADE  
                                                    l4964 4AAC  
                                                    l5596 5ADA  
                                                    l5588 5A20  
                                                    l4948 63F4  
                                                    l5836 4A50  
                                                    l5828 49EA  
                                                    l5780 47D0  
                                                    l5772 47AE  
                                                    l5764 4752  
                                                    l5756 46B2  
                                                    l5748 4628  
                                                    l5692 42BA  
                                                    l5684 423A  
                                                    l5676 41F6  
                                                    l5668 41CC  
                                                    l5852 638C  
                                                    l5844 6302  
                                                    l5860 574A  
                                                    l5908 5968  
                                                    l4990 4B36  
                                                    l4982 4B10  
                                                    l4966 4ABC  
                                                    l4974 4AE6  
                                                    l4958 4A90  
                                                    l5598 5B0E  
                                                    l5838 4A66  
                                                    l5790 48A2  
                                                    l5782 4848  
                                                    l5774 47B6  
                                                    l5766 4786  
                                                    l5758 46C2  
                                                    l5694 42F8  
                                                    l5678 4200  
                                                    l5854 639A  
                                                    l5846 630A  
                                                    l5870 57AE  
                                                    l5862 5758  
                                                    l5950 6A7A  
                                                    l5960 6CB8  
                                                    l4992 4B46  
                                                    l4984 4B16  
                                                    l4976 4AF6  
                                                    l4968 4ACC  
                                                    l5792 48A6  
                                                    l5784 4868  
                                                    l5776 47BC  
                                                    l5768 479A  
                                                    l5696 432A  
                                                    l5688 4280  
                                                    l5848 6332  
                                                    l5872 57BE  
                                                    l5864 575C  
                                                    l5856 5714  
                                                    l5944 6A30  
                                                    l5962 6CC8  
                                                    l5954 6CAE  
                                                    l4994 4B56  
                                                    l4986 4B24  
                                                    l4978 4AFC  
                                                    l5794 48AC  
                                                    l5786 4884  
                                                    l5778 47C4  
                                                    l5698 4368  
                                                    l5874 57D4  
                                                    l5882 57EC  
                                                    l5866 5784  
                                                    l5858 573C  
                                                    l5946 6A3C  
                                                    l5970 6D36  
                                                    l5956 6CB2  
                                                    l5980 69FE  
                                                    l4996 4B58  
                                                    l4988 4B26  
                                                    l5796 48B4  
                                                    l5788 4892  
                                                    l5892 58AA  
                                                    l5876 57DC  
                                                    l5884 581E  
                                                    l5868 5792  
                                                    l5948 6A5A  
                                                    l5966 6E5A  
                                                    l5958 6CB6  
                                                    l5990 6238  
                                                    l5982 6A0E  
                                                    l5974 69D8  
                                                    l4998 4B60  
                                                    l5798 48C4  
                                                    l5894 58D4  
                                                    l5886 5842  
                                                    l5878 57E4  
                                                    l5992 623C  
                                                    l5984 621A  
                                                    l5976 69E4  
                                                    l5896 58F4  
                                                    l5888 5876  
                                                    l5968 6D2E  
                                                    l5994 624A  
                                                    l5986 621E  
                                                    l5978 69F2  
                                                    l5996 6256  
                                                    l5988 622C  
                                                    l5998 625A  
                                                    STR_1 404B  
                                                    STR_2 4001  
                                                    STR_3 4026  
                                                    STR_4 4060  
                                                    STR_5 4069  
                                                    STR_8 406D  
                                                    _LATA 04BE  
                                                    _LATB 04BF  
                                                    _LATC 04C0  
                                                    _LATD 04C1  
                                                    _LATE 04C2  
                                                    _LATF 04C3  
                                                    u5000 5024  
                                                    u5001 5020  
                                                    u5010 5034  
                                                    u5011 5030  
                                                    u5100 52F4  
                                                    u5020 51AE  
                                                    u4300 6452  
                                                    u5101 52F0  
                                                    u4301 644E  
                                                    u5110 5322  
                                                    u5030 5208  
                                                    u4310 4AAA  
                                                    u5111 531E  
                                                    u5031 5204  
                                                    u4311 4AA6  
                                                    u6000 5DDA  
                                                    u5200 6112  
                                                    u5120 535C  
                                                    u5040 5228  
                                                    u4400 4BFE  
                                                    u4320 4ABC  
                                                    u4240 6A98  
                                                    u6001 5DD6  
                                                    u5201 610E  
                                                    u5121 5358  
                                                    u5041 5224  
                                                    u5025 51A4  
                                                    u4401 4BFA  
                                                    u4321 4AB8  
                                                    u4241 6A94  
                                                    u6010 5E30  
                                                    u5130 66FC  
                                                    u5050 523A  
                                                    u5210 6C8A  
                                                    u4410 4C16  
                                                    u4330 4ACC  
                                                    u4250 6AA6  
                                                    u6011 5E2C  
                                                    u5131 66F8  
                                                    u5051 5236  
                                                    u5211 6C86  
                                                    u4411 4C10  
                                                    u4331 4AC8  
                                                    u4251 6AA2  
                                                    u6020 5E7A  
                                                    u5140 673A  
                                                    u5060 5268  
                                                    u4500 4CFA  
                                                    u4420 4C18  
                                                    u4340 4B0E  
                                                    u5220 5F28  
                                                    u4260 6AD2  
                                                    u5300 68F4  
                                                    u6021 5E76  
                                                    u5141 6736  
                                                    u5061 5264  
                                                    u4501 4CF6  
                                                    u4341 4B0A  
                                                    u5221 5F24  
                                                    u4261 6ACE  
                                                    u5301 68F0  
                                                    u6030 5E98  
                                                    u5150 676E  
                                                    u5070 527E  
                                                    u4510 4D32  
                                                    u4430 4C40  
                                                    u4350 4B24  
                                                    u5230 5F5C  
                                                    u5310 615C  
                                                    u4270 63E2  
                                                    u6031 5E94  
                                                    u5151 676A  
                                                    u5071 527A  
                                                    u4511 4D2E  
                                                    u4431 4C3C  
                                                    u4351 4B20  
                                                    u4271 63DE  
                                                    u6040 5EA8  
                                                    u5160 6046  
                                                    u5080 5292  
                                                    u4600 4E4E  
                                                    u4520 4D78  
                                                    u4440 4C5E  
                                                    u4360 4B36  
                                                    u5240 5F8A  
                                                    u5320 617A  
                                                    u5400 59DE  
                                                    u4280 63F4  
                                                    u6041 5EA4  
                                                    u5161 6042  
                                                    u5081 528E  
                                                    u4601 4E4A  
                                                    u4521 4D74  
                                                    u4441 4C5A  
                                                    u4361 4B32  
                                                    u5241 5F86  
                                                    u5321 6176  
                                                    u4281 63F0  
                                                    u6050 5EB6  
                                                    u5170 6084  
                                                    u5090 52AC  
                                                    u4610 4E64  
                                                    u4530 4DAE  
                                                    u4450 4C7E  
                                                    u4370 4B46  
                                                    u5250 5F9E  
                                                    u5330 61A2  
                                                    u5410 5A0C  
                                                    u4290 641C  
                                                    u6051 5EB2  
                                                    u5171 6080  
                                                    u5091 52A8  
                                                    u4611 4E60  
                                                    u4531 4DAA  
                                                    u4451 4C7A  
                                                    u4371 4B42  
                                                    u5251 5F9A  
                                                    u5235 5F52  
                                                    u5331 619E  
                                                    u5315 6152  
                                                    u5411 5A08  
                                                    u4291 6418  
                                                    u6060 5EF0  
                                                    u5180 60A2  
                                                    u4620 4E78  
                                                    u4540 4DBE  
                                                    u4460 4C8C  
                                                    u4380 4B82  
                                                    u5260 5FC6  
                                                    u5340 61CC  
                                                    u5420 5A2E  
                                                    u5500 6B2A  
                                                    u4700 6BF8  
                                                    _PMD0 0060  
                                                    u6061 5EEC  
                                                    u5181 609E  
                                                    u4621 4E74  
                                                    u4541 4DBA  
                                                    u4461 4C88  
                                                    u4381 4B7E  
                                                    u5261 5FC2  
                                                    u5341 61C8  
                                                    u5421 5A2A  
                                                    u5405 59D4  
                                                    u5501 6B26  
                                                    u4701 6BF4  
                                                    _PMD1 0061  
                                                    u6070 5EFE  
                                                    u4710 5394  
                                                    u5190 60C2  
                                                    u4630 4E92  
                                                    u4550 4DEA  
                                                    u4470 4C9C  
                                                    u4390 4B90  
                                                    u5270 5FE6  
                                                    u5510 4096  
                                                    _PMD2 0062  
                                                    u6071 5EFA  
                                                    u4711 5390  
                                                    u5191 60BE  
                                                    u4631 4E8E  
                                                    u4551 4DE6  
                                                    u4471 4C98  
                                                    u4391 4B8C  
                                                    u5271 5FE2  
                                                    u5511 4092  
                                                    _PMD3 0063  
                                                    u4800 5534  
                                                    u4720 53A6  
                                                    u4640 4ECC  
                                                    u4560 4DFA  
                                                    u4480 4CCE  
                                                    u5280 5FF6  
                                                    u5360 6206  
                                                    u5440 5A9A  
                                                    u5600 432A  
                                                    u5520 40E0  
                                                    u6080 695E  
                                                    _PMD4 0064  
                                                    u4801 5530  
                                                    u4721 53A2  
                                                    u4641 4EC8  
                                                    u4561 4DF6  
                                                    u4481 4CCA  
                                                    u5281 5FF2  
                                                    u5361 6200  
                                                    u5441 5A96  
                                                    u5601 4326  
                                                    u5521 40DC  
                                                    u6081 695A  
                                                    _PMD5 0065  
                                                    u4810 555E  
                                                    u4730 53B6  
                                                    u4650 4EDE  
                                                    u4570 4E16  
                                                    u4490 4CDC  
                                                    u5370 6208  
                                                    u5450 5ABE  
                                                    u5290 689E  
                                                    u5610 4368  
                                                    u5530 40F0  
                                                    _PMD6 0066  
                                                    u4811 555A  
                                                    u4731 53B2  
                                                    u4651 4EDA  
                                                    u4571 4E12  
                                                    u4491 4CD8  
                                                    u5355 61DE  
                                                    u5435 5A42  
                                                    u5291 689A  
                                                    u5611 4364  
                                                    u5531 40EC  
                                                    _PMD7 0067  
                                                    u4900 565A  
                                                    u4820 5582  
                                                    u4740 53FA  
                                                    u4660 4EEE  
                                                    u4580 4E26  
                                                    u5460 5ADA  
                                                    u5436 5A4C  
                                                    u5380 6BB4  
                                                    u5700 46A2  
                                                    u5620 43F4  
                                                    u5540 412E  
                                                    _PMD8 0068  
                                                    u4901 5656  
                                                    u4821 557E  
                                                    u4741 53F6  
                                                    u4661 4EEA  
                                                    u4581 4E22  
                                                    u5461 5AD6  
                                                    u5437 5A5C  
                                                    u5381 6BB0  
                                                    u5701 469E  
                                                    u5621 43F0  
                                                    u5541 412A  
                                                    u4910 56A2  
                                                    u4830 5598  
                                                    u4750 540C  
                                                    u4670 4F0E  
                                                    u4590 4E38  
                                                    u5470 5B2E  
                                                    u5390 6990  
                                                    u5710 46B2  
                                                    u5630 442A  
                                                    u5550 4140  
                                                    u4911 569E  
                                                    u4831 5594  
                                                    u4751 5408  
                                                    u4671 4F0A  
                                                    u4591 4E34  
                                                    u5455 5AB4  
                                                    u5391 698C  
                                                    u5711 46AE  
                                                    u5631 4426  
                                                    u5551 413C  
                                                    u4920 56D2  
                                                    u4840 55B6  
                                                    u4760 541C  
                                                    u4680 4F20  
                                                    u5480 5B4A  
                                                    u5800 4A3A  
                                                    u5720 474C  
                                                    u5640 4442  
                                                    u5560 41BA  
                                                    u4921 56CE  
                                                    u4841 55B2  
                                                    u4761 5418  
                                                    u4681 4F1C  
                                                    u5481 5B46  
                                                    u5801 4A34  
                                                    u5721 4748  
                                                    u5641 443E  
                                                    u5561 41B6  
                                                    u6097 5BB2  
                                                    u4930 5700  
                                                    u4850 55D6  
                                                    u4770 545C  
                                                    u4690 4F3C  
                                                    u5490 5B86  
                                                    u5810 4A3C  
                                                    u5730 479A  
                                                    u5650 4474  
                                                    u5570 41CC  
                                                    u4931 56FC  
                                                    u4851 55D2  
                                                    u4771 5458  
                                                    u4691 4F38  
                                                    u5491 5B82  
                                                    u5475 5B24  
                                                    u5731 4796  
                                                    u5651 4470  
                                                    u5571 41C8  
                                                    u5900 69F2  
                                                    u4860 55E8  
                                                    u4780 549C  
                                                    u4940 4F6A  
                                                    u5820 4A50  
                                                    u5740 4848  
                                                    u5660 4482  
                                                    u5580 426C  
                                                    u5901 69EE  
                                                    u4861 55E4  
                                                    u4781 5498  
                                                    u4941 4F66  
                                                    u5821 4A4C  
                                                    u5741 4844  
                                                    u5661 447E  
                                                    u5581 4268  
                                                    u5910 6A22  
                                                    u4870 5616  
                                                    u4790 5512  
                                                    u4950 4F7C  
                                                    u5750 4884  
                                                    u5670 44AC  
                                                    u5590 42F8  
                                                    u5830 6332  
                                                    u5911 6A1E  
                                                    u4871 5612  
                                                    u4791 550E  
                                                    u4951 4F78  
                                                    u5751 4880  
                                                    u5671 44A8  
                                                    u5591 42F4  
                                                    u5831 632E  
                                                    u5920 622C  
                                                    u4880 562C  
                                                    u4960 4F8C  
                                                    u5760 4892  
                                                    u5680 45F4  
                                                    u5840 63C6  
                                                    u5921 6228  
                                                    u4881 5628  
                                                    u4961 4F88  
                                                    u5761 488E  
                                                    u5681 45F0  
                                                    u5841 63C2  
                                                    u5930 624A  
                                                    u4890 5640  
                                                    u4970 4FCC  
                                                    u5770 48E6  
                                                    u5690 465A  
                                                    u5850 573C  
                                                    u5931 6246  
                                                    u4891 563C  
                                                    u4971 4FC8  
                                                    u5771 48E2  
                                                    u5691 4656  
                                                    u5851 5738  
                                                    u5940 627A  
                                                    u4980 4FDE  
                                                    u5780 49B8  
                                                    u5860 5784  
                                                    u5941 6276  
                                                    u4981 4FDA  
                                                    u5781 49B4  
                                                    u5861 5780  
                                                    u5950 629A  
                                                    u4990 4FEE  
                                                    u5790 49D4  
                                                    u5870 583E  
                                                    u5951 6296  
                                                    u4991 4FEA  
                                                    u5791 49D0  
                                                    u5871 583A  
                                                    u5960 62BC  
                                                    u5880 6A7A  
                                                    u5961 62B8  
                                                    u5881 6A76  
                                                    u5890 6CC8  
                                                    u5970 62E8  
                                                    u5891 6CC4  
                                                    u5971 62E4  
                                                    u5980 5D70  
                                                    u5981 5D6C  
                                                    u5990 5D7E  
                                                    u5991 5D7A  
                                                    _WPUA 0401  
                                                    _WPUB 0409  
                                                    _WPUC 0411  
                                                    _WPUD 0419  
                                                    _WPUE 0421  
                                                    _WPUF 0429  
                                     ?_UART1_Transmit_ISR 0501  
                                                    _dbuf 0600  
                                                    _gain 05BC  
                                                    _labs 6972  
                                                    _main 690A  
                                                    _prec 05CC  
                                                    pad@i 051C  
                                                    pad@p 0519  
                                                    fsr1h 04E2  
                                                    fsr2h 04DA  
                                                    indf2 04DF  
                                                    fsr1l 04E1  
                                                    pad@w 051E  
                                                    fsr2l 04D9  
                                           ___fpclassifyf 611C  
                                                    prodh 04F4  
                                                    prodl 04F3  
                                                    start 001A  
                                         ___fldiv@new_exp 0514  
                           ??_UART1_SetTxInterruptHandler 0506  
                                            ___param_bank 0000  
                                                   ??_pad 051B  
                                         ?_FVR_Initialize 0501  
                                    ??_UART1_Transmit_ISR 0501  
                           __end_of_OSCILLATOR_Initialize 6DD8  
                                           ___fltol@sign1 050B  
                                                   ?_labs 0503  
                                                   _ADACT 03F9  
                                                   _ADCAP 03F0  
                                         __end_of___fladd 4F50  
                                                   ?_main 0501  
                                                   _ADCLK 03FA  
                                                   _ADCNT 03E6  
                                         __end_of___atdiv 6302  
                                                   _ADCTX 03FB  
                                                   _ADPCH 03EC  
                                         __end_of___fldiv 5714  
                                                   _ADREF 03F8  
                                         __end_of___flneg 6CAC  
                                                   _ADRPT 03E7  
                                         __end_of___flmul 537A  
                                         __end_of___flsub 6B72  
                                         __end_of___fltol 6018  
                                                   _U1P1H 02A6  
                                                   _U1P2H 02A8  
                                                   _U1P3H 02AA  
                                                   _U1P1L 02A5  
                                                   _U1P2L 02A7  
                                                   _U1P3L 02A9  
                                                   _U1UIR 02B1  
                                                   _U1RXB 02A1  
                                                   i2l112 684E  
                                                   _U1TXB 02A3  
                                                   i2l116 6886  
                                                   i2l502 6C38  
                                                   i2l512 6562  
                                                   i2l505 6C3A  
                                                   i2l522 6E6C  
                                                   i2l516 6D04  
                                                   i2l525 6E66  
                                                   i2l519 6E6E  
                                                   _OSCEN 00B3  
                                            vfpfcnvrt@fmt 058E  
                                                   _TRISA 04C6  
                                                   _TRISB 04C7  
                                                   _TRISC 04C8  
                                                   _TRISD 04C9  
                                                   _TRISE 04CA  
                                                   _TRISF 04CB  
                               ??_ADC_GetSingleConversion 0505  
                                                   _flags 05D0  
                                     read_prec_or_width@c 050F  
                                     read_prec_or_width@n 0510  
                                                   _fputc 63D0  
                                                   _fputs 6BB6  
                                                   labs@a 0503  
                                                   pad@fp 0515  
                                                   _width 05CA  
                                                   _putch 6E48  
                                                   pclath 04FA  
                                                   pclatu 04FB  
                                                   tablat 04F5  
                                                   status 04D8  
                     __end_of_UART1_SetRxInterruptHandler 6DF4  
                             _UART1_SetRxInterruptHandler 6DE6  
                                          ?___fpclassifyf 0503  
                     fp__UART1_DefaultFramingErrorHandler 0000  
                __end_of_UART1_DefaultFramingErrorHandler 6E70  
                      ??_UART1_DefaultFramingErrorHandler 0501  
                       ?_UART1_DefaultFramingErrorHandler 0501  
                        _UART1_DefaultFramingErrorHandler 6E6E  
                                   _ADC_Temp_routine$2281 059E  
                                         __initialization 6C3C  
                                            __end_of_labs 69D8  
                                            __end_of_main 6972  
                             ??_UART1_DefaultErrorHandler 0501  
                             ?_INTERRUPT_InterruptManager 0501  
                                            ?_UART1_Write 0501  
                                                  ??_labs 0507  
                                                  ??_main 054E  
                                           __activetblptr 0003  
                              __end_of_read_prec_or_width 63D0  
                                        _UART1_Initialize 661C  
                                                  _ADACCH 03E4  
                                                  _ADACCL 03E3  
                                                  _ADACCU 03E5  
                                                  _ADACQH 03EF  
                                                  _ADACQL 03EE  
                                                  _ADCON0 03F3  
                                                  _ADCON1 03F4  
                                                  _ADCON2 03F5  
                                                  _ADCON3 03F6  
                                                  _ADERRH 03DE  
                                                  _ADERRL 03DD  
                                                  ?_fputc 0505  
                                                  _ADLTHH 03DA  
                                                  _ADLTHL 03D9  
                                                  ?_fputs 050E  
                                                  _ADRESH 03EB  
                                                  _ADRESL 03EA  
                                                  _ADPREH 03F2  
                                                  _ADPREL 03F1  
                                                  _ADSTAT 03F7  
                                                  _ADUTHH 03DC  
                                                  _ADUTHL 03DB  
                                                  _ANSELA 0400  
                                                  ?_putch 0501  
                                                  _ANSELB 0408  
                                                  _ANSELC 0410  
                                                  _ANSELD 0418  
                                                  _ANSELE 0420  
                                                  _ANSELF 0428  
                                                  _U1CON0 02AB  
                                                  _U1CON1 02AC  
                                                  _U1CON2 02AD  
                                                  _U1BRGH 02AF  
                                                  _U1FIFO 02B0  
                                                  _U1BRGL 02AE  
                                                  _ODCONA 0402  
                                                  _ODCONB 040A  
                                                  _ODCONC 0412  
                                                  _RF0PPS 0229  
                                                  _ODCOND 041A  
                                                  _ODCONE 0422  
                                                  _ODCONF 042A  
                                                  i2l4410 6CFE  
                                                  i2l4412 6D02  
                                                  i2l4404 6CDC  
                                                  i2l4406 6CEC  
                                                  i2l4408 6CEE  
                                                  _INLVLA 0404  
                                                  i2l4538 6E62  
                                                  i2l4650 6BFA  
                                                  i2l4730 6812  
                                                  _INLVLB 040C  
                                                  _INLVLC 0414  
                                                  i2l4660 6C32  
                                                  i2l4652 6C0A  
                                                  i2l4732 6820  
                                                  _INLVLD 041C  
                                                  _INLVLE 0424  
                                                  i2l4670 64E2  
                                                  i2l4662 649A  
                                                  i2l4654 6C1C  
                                                  i2l4734 682E  
                                                  _INLVLF 042C  
                                                  i2l4680 6558  
                                                  i2l4672 64F2  
                                                  i2l4664 64A8  
                                                  i2l4656 6C1E  
                                                  i2l4736 685C  
                                                  i2l4682 655C  
                                                  i2l4674 6500  
                                                  i2l4666 64B8  
                                                  i2l4658 6C2E  
                                                  i2l4738 686A  
                                                  i2l4676 651C  
                                                  i2l4668 64C6  
                                                  i2l4678 6538  
                                                  _TABLAT 04F5  
                                                  _FVRCON 03D7  
                                                  _OSCFRQ 00B1  
                                   _UART1_SetErrorHandler 6E10  
                                        __end_of___xxtofl 5F12  
                                      _ADC_DefaultADI_ISR 0000  
                                            vfprintf@cfmt 0546  
                                                  ___flge 6018  
                                                  ___fleq 66CE  
                                                  ___tmul 69D8  
                                               ??___fladd 0524  
                                                  ___wmul 6D7C  
                                               ??___atdiv 0509  
                                               ??___fldiv 050B  
                                               ??___flneg 0507  
                                               ??___flmul 050B  
                                               ??___flsub 0534  
                                               ??___fltol 0507  
                                                  _efgtoa 4072  
                                                  _floorf 5996  
                                                  _memcpy 6ADC  
                                    read_prec_or_width@ap 050B  
                                                  _offset 05BA  
                                                  clear_0 6C42  
                                                  clear_1 6C4E  
                                                  clear_2 6C5A  
                                                  _temp_c 054E  
                                                  isa$std 0001  
                                                  _printf 6D2E  
                                                  pad@buf 0517  
                                                  _strcpy 6B72  
                                                  fputc@c 0505  
                                          _PMD_Initialize 6D06  
                                                  fputs@c 0512  
                                                  fputs@i 0513  
                                 FLASH_ReadWord@flashAddr 0503  
                                                  fputs@s 050E  
                                         ___fpclassifyf@e 050B  
                                         ___fpclassifyf@u 050D  
                                         ___fpclassifyf@x 0503  
                                            __mediumconst 0000  
                                                  tblptrh 04F7  
                                                  tblptrl 04F6  
                                                  tblptru 04F8  
                                        __end_of_vfprintf 6A86  
             UART1_SetTxInterruptHandler@InterruptHandler 0503  
             UART1_SetRxInterruptHandler@InterruptHandler 0503  
ADC_SetActiveClockTuningInterruptHandler@InterruptHandler 0503  
ADC_SetContext1ThresholdInterruptHandler@InterruptHandler 0503  
              ADC_SetADIInterruptHandler@InterruptHandler 0503  
                    __end_of_UART1_SetOverrunErrorHandler 6E02  
                            _UART1_SetOverrunErrorHandler 6DF4  
                               _UART1_DefaultErrorHandler 6E62  
                                              ___flge@ff1 051C  
                                              ___flge@ff2 0520  
                                         ??___fpclassifyf 0507  
                                            ___xxtofl@arg 050D  
                                            ___xxtofl@exp 050C  
                                       _SYSTEM_Initialize 6DA2  
                                            ___xxtofl@val 0503  
                                              ___fleq@ff1 0503  
                                              ___fleq@ff2 0507  
                                              __accesstop 0560  
                                 __end_of__initialization 6C6E  
                                              ___flneg@f1 0503  
                                 FLASH_ReadWord@readWordH 050A  
                                 FLASH_ReadWord@readWordL 0509  
                                      ?_SYSTEM_Initialize 0501  
                                           ___rparam_used 0001  
                                              ___fltol@f1 0503  
                                          __pcstackCOMRAM 0501  
                                     ??_SYSTEM_Initialize 0506  
                                           __end_of_fputc 649A  
                                           __end_of_fputs 6BFA  
                                           __end_of_putch 6E52  
                                  __end_of_PMD_Initialize 6D2E  
        __end_of_ADC_SetActiveClockTuningInterruptHandler 6E3A  
              ??_ADC_SetActiveClockTuningInterruptHandler 0506  
               ?_ADC_SetActiveClockTuningInterruptHandler 0503  
                _ADC_SetActiveClockTuningInterruptHandler 6E2C  
                               _UART1_FramingErrorHandler 05A8  
                            ??_ADC_SetADIInterruptHandler 0506  
                                                 ??_fputc 0509  
                               __end_of_SYSTEM_Initialize 6DC0  
                                                 ??_fputs 0512  
                                                 ??_putch 0504  
                                              __pbssBANK5 05BE  
                                              __pbssBANK6 0600  
                           ?_UART1_SetOverrunErrorHandler 0503  
                                  ?_UART1_SetErrorHandler 0503  
                                                 IVTBASEH 045E  
                                                 IVTBASEL 045D  
                                                 IVTBASEU 045F  
                                        ??_FVR_Initialize 0503  
                                                 ?___flge 051C  
                                                 ?___fleq 0503  
                                                 ?___tmul 0503  
                                                 ?___wmul 0503  
                                                 ?_efgtoa 0534  
                                                 _ADCSEL1 03FC  
                                                 _ADFLTRH 03E2  
                                                 ?_floorf 051C  
                                                 _ADFLTRL 03E1  
                                                 ?_memcpy 0503  
                                                 _ADPREVH 03E9  
                                                 _ADPREVL 03E8  
                                                 _ADSTPTH 03E0  
                                                 _ADSTPTL 03DF  
                                                 ?_printf 0598  
                                         ?_PMD_Initialize 0501  
                                       _UART1_Receive_ISR 649A  
                                                 ?_strcpy 0503  
                                          _FLASH_ReadWord 6D56  
                                                 _U1ERRIE 02B3  
                                                 _U1ERRIR 02B2  
                                      ?_UART1_Receive_ISR 0501  
                                                 _U1RXPPS 0272  
                                               ?___xxtofl 0503  
                    __end_of_ADC_DischargeSampleCapacitor 6E62  
                            _ADC_DischargeSampleCapacitor 6E5A  
                                                 _OSCCON1 00AD  
                                                 _OSCCON3 00AF  
                                                 _TBLPTRH 04F7  
                                                 _TBLPTRL 04F6  
                                                 _TBLPTRU 04F8  
                                                 _NVMADRH 0044  
                                                 _NVMADRL 0043  
                                                 _NVMADRU 0045  
                                                 _OSCTUNE 00B0  
                                                 _NVMDATL 0046  
                                                 _NVMLOCK 0042  
                                                 _SLRCONA 0403  
                                                 _SLRCONB 040B  
                                                 _SLRCONC 0413  
                                                 _SLRCOND 041B  
                                                 _SLRCONE 0423  
                                                 _SLRCONF 042B  
                                     ??_UART1_Receive_ISR 0501  
                              _ADC_ConversionComplete_ISR 05B1  
                                                 __Hparam 0000  
                                                 __Lparam 0000  
                                __end_of_UART1_Initialize 66CE  
                                                 ___fladd 4A90  
                                                 ___atdiv 621A  
                                                 ___fldiv 537A  
                                                 ___flneg 6C74  
                                                 ___flmul 4F50  
                                                 ___flsub 6B2C  
                                                 ___fltol 5F12  
                               __end_of_UART1_Receive_ISR 6564  
                                               ?_vfprintf 0592  
                                            __psmallconst 4000  
                                  __end_of_FLASH_ReadWord 6D7C  
                                                 __pcinit 6C3C  
                                                 __ramtop 4000  
                                                 __ptext0 690A  
                                                 __ptext1 6DA2  
                                                 __ptext2 661C  
                                                 __ptext3 6DD8  
                                                 __ptext4 6DE6  
                                                 __ptext5 6DF4  
                                                 __ptext6 6E02  
                                                 __ptext7 6E10  
                                                 __ptext8 6D06  
                                                 __ptext9 6778  
                                   _OSCILLATOR_Initialize 6DC0  
                                   read_prec_or_width@fmt 0509  
                                              ??___xxtofl 0507  
                                ??_PIN_MANAGER_Initialize 0503  
                                                 efgtoa@c 053A  
                                                 efgtoa@d 056B  
                                                 efgtoa@e 056F  
                                                 efgtoa@f 0536  
                                                 efgtoa@g 0582  
                                                 efgtoa@h 0579  
                                                 efgtoa@i 0577  
                                                 efgtoa@l 057D  
                                                 efgtoa@m 056D  
                                                 efgtoa@n 0586  
                                                 efgtoa@p 0562  
                                                 efgtoa@t 0564  
                                                 efgtoa@u 0588  
                                                 efgtoa@w 0571  
                           ?_ADC_DischargeSampleCapacitor 0501  
                                        _ADC_Temp_routine 5BA8  
                                    end_of_initialization 6C6E  
                                                 floorf@e 052A  
                                                 floorf@m 0526  
                                                 floorf@u 052C  
                                                 floorf@x 051C  
                                                 memcpy@d 050A  
                                                 memcpy@n 0507  
                                                 memcpy@s 050C  
                                               _PIR15bits 04BD  
                                                 fputc@fp 0507  
                     __end_of_UART1_SetTxInterruptHandler 6DE6  
                             _UART1_SetTxInterruptHandler 6DD8  
                                                 fputs@fp 0510  
                                      _read_prec_or_width 6302  
                          ??_UART1_SetOverrunErrorHandler 0506  
                                       __end_of_vfpfcnvrt 5996  
                                              efgtoa@mode 0569  
                                              efgtoa@sign 0581  
                                                 postdec2 04DD  
                                     ?_read_prec_or_width 0509  
                                                 postinc0 04EE  
                                                 postinc1 04E6  
                                                 postinc2 04DE  
                                        vfpfcnvrt@convarg 053F  
                                              ??_vfprintf 0546  
                                       UART1_Write@txData 0503  
                                     _UART1_RxDataHandler 6CDC  
                                                 strcpy@d 0509  
                                                 strcpy@s 0507  
                                         ?_FLASH_ReadWord 0503  
                                ?_ADC_GetSingleConversion 0503  
                                               _UART_flag 055B  
                                             ___fladd@grs 052B  
                      __end_of_ADC_SetADIInterruptHandler 6E48  
                              _ADC_SetADIInterruptHandler 6E3A  
                                           ___xxtofl@sign 050B  
                                    ??_read_prec_or_width 050D  
                                             ___fldiv@grs 0516  
                                             ___fldiv@rem 050F  
                                             _ADCSEL1bits 03FC  
                                    ?_UART1_RxDataHandler 0501  
                                             ___flmul@grs 0511  
                            __end_of_INTERRUPT_Initialize 6E6C  
                                          __end_of___flge 611C  
                                          __end_of___fleq 6778  
                                          __end_of___tmul 6A30  
                                             vfpfcnvrt@ap 0590  
                                             vfpfcnvrt@cp 0544  
                                             vfpfcnvrt@fp 058C  
                                          __end_of___wmul 6DA2  
                                          __end_of_efgtoa 4A90  
                                          _ADC_Initialize 6564  
                                          __end_of_floorf 5BA8  
                                          __end_of_memcpy 6B2C  
                                  ?_OSCILLATOR_Initialize 0501  
                                              floorf@F526 05BE  
                                          __end_of_printf 6D56  
                                          __end_of_strcpy 6BB6  
                                     start_initialization 6C3C  
                                             __end_of_pad 690A  
                                 ??_UART1_SetErrorHandler 0506  
                                   ??_UART1_RxDataHandler 0501  
                                             putch@txData 0504  
                                              ivt0x8_base 0008  
                                           _uart1RxBuffer 0554  
                                   __end_of___fpclassifyf 621A  
                                           _uart1TxBuffer 0558  
                                             vfprintf@fmt 0594  
                         __end_of_ADC_GetSingleConversion 6CDC  
                                                ??___flge 0524  
                                                ??___fleq 050B  
                                        ??_PMD_Initialize 0503  
                                                ??___tmul 0509  
                                                ??___wmul 0507  
        __end_of_ADC_SetContext1ThresholdInterruptHandler 6E2C  
              ??_ADC_SetContext1ThresholdInterruptHandler 0506  
               ?_ADC_SetContext1ThresholdInterruptHandler 0503  
                _ADC_SetContext1ThresholdInterruptHandler 6E1E  
                                                ??_efgtoa 053B  
                                  __end_of_ADC_Initialize 661C  
                                                ??_floorf 0520  
                                                ??_memcpy 0509  
                                                ??_printf 0548  
                                          ___tmul@product 0509  
                                                ??_strcpy 0507  
                                               ___fladd@a 0520  
                                               ___fladd@b 051C  
                                               ___fldiv@a 0507  
                                               ___fldiv@b 0503  
                                               ___flmul@a 0507  
                                               ___flmul@b 0503  
                                             __pbssCOMRAM 054E  
                                               ___flsub@a 0530  
                                               ___flsub@b 052C  
                                      _UART1_ErrorHandler 05A2  
                                           __pcstackBANK5 0560  
                                _UART1_RxInterruptHandler 05B7  
                            fp__UART1_DefaultErrorHandler 0000  
                            ?_UART1_SetRxInterruptHandler 0503  
                                               __pnvBANK5 05A2  
                                             _efgtoa$1814 0566  
                                  _PIN_MANAGER_Initialize 6778  
                                       ?_UART1_Initialize 0501  
                    __end_of_UART1_SetFramingErrorHandler 6E10  
                            _UART1_SetFramingErrorHandler 6E02  
                                                ?___fladd 051C  
                                                ?___atdiv 0503  
                                                ?___fldiv 0503  
                                                ?___flneg 0503  
                                                ?___flmul 0503  
                                                ?___flsub 052C  
                                                ?___fltol 0503  
                                      ??_UART1_Initialize 0506  
                                __end_of_ADC_Temp_routine 5D5E  
                                         ?_ADC_Initialize 0501  
                                               _bufferRAM 3700  
                                        _uart1RxLastError 0551  
                                           ??_UART1_Write 0503  
                            ??_INTERRUPT_InterruptManager 0501  
                                             __smallconst 4000  
                                                _ADC_MEAS 05CE  
                     fp__UART1_DefaultOverrunErrorHandler 0000  
                __end_of_UART1_DefaultOverrunErrorHandler 6E6E  
                      ??_UART1_DefaultOverrunErrorHandler 0501  
                       ?_UART1_DefaultOverrunErrorHandler 0501  
                        _UART1_DefaultOverrunErrorHandler 6E6C  
                                                _ADCPbits 03D8  
                                             _U1ERRIRbits 02B2  
                                    _INTERRUPT_Initialize 6E68  
                                          ___wmul@product 0507  
                   UART1_SetErrorHandler@interruptHandler 0503  
                                                _LATFbits 04C3  
                                                _PIE4bits 04A2  
                           ??_UART1_SetRxInterruptHandler 0506  
                                                i2u410_48 653E  
                                                i2u403_40 6C0A  
                                                i2u411_40 6820  
                                                i2u410_49 6554  
                                                i2u403_41 6C06  
                                                i2u411_41 681C  
                                                i2u404_40 6C2E  
                                                i2u412_40 682E  
                                                i2u404_41 6C2A  
                                                i2u412_41 682A  
                                                i2u405_40 64B8  
                                                i2u405_41 64B4  
                                                i2u414_40 685C  
                                                i2u413_48 6834  
                                                i2u414_41 6858  
                                                i2u413_49 684A  
                                                i2u407_40 64F2  
                                                i2u406_48 64CC  
                                                i2u415_40 686A  
                                                i2u407_41 64EE  
                                                i2u406_49 64E2  
                                                i2u415_41 6866  
                                                i2u409_40 6538  
                                                i2u408_48 6506  
                                                i2u416_48 6870  
                                                i2u409_41 6534  
                                                i2u408_49 651C  
                                                i2u416_49 6886  
                                                _PIR1bits 04AF  
                                                _PIR2bits 04B0  
                                                i2u382_40 6CFE  
                                                i2u382_41 6CFA  
                                                _PIR4bits 04B2  
                                        ??_FLASH_ReadWord 0507  
                               _ADC_ActiveClockTuning_ISR 05AB  
                        _ADC_DefaultActiveClockTuning_ISR 0000  
                              __end_of_UART1_Transmit_ISR 6C3C  
                           ?_UART1_SetFramingErrorHandler 0503  
                          ADC_GetSingleConversion@channel 0507  
                                               _vfpfcnvrt 5714  
                                              _ADCON0bits 03F3  
                                              _ADCON1bits 03F4  
                                              _ADCON2bits 03F5  
                                              _ADCON3bits 03F6  
                                       ___wmul@multiplier 0503  
                                             _float_TempC 05C6  
                             ?_ADC_SetADIInterruptHandler 0503  
                                     ___tmul@multiplicand 0506  
                                     __end_of_UART1_Write 6ADC  
                                              vfpfcnvrt@c 0543  
                                             _INTCON0bits 04D6  
                                   ?_INTERRUPT_Initialize 0501  
                                    fp__UART1_Receive_ISR 0000  
                                  _uart1TxBufferRemaining 0557  
                                            _uart1RxCount 0552  
                                              _ADSTATbits 03F7  
                                                __Hrparam 0000  
                                               memcpy@tmp 0509  
                                              vfprintf@ap 0596  
                                                __Lrparam 0000  
                                              vfprintf@fp 0592  
                                 ??_OSCILLATOR_Initialize 0503  
                                              ?_vfpfcnvrt 058C  
                                      ___fpclassifyf@F465 05C2  
                                                ___xxtofl 5D5E  
                               _ADC_Context1Thereshld_ISR 05AE  
                                                __pivt0x8 0008  
                                                __ptext10 6DC0  
                                                __ptext11 6E68  
                                                __ptext20 6A30  
                                                __ptext12 6E52  
                                                __ptext21 5714  
                                                __ptext13 6564  
                                                __ptext30 6A86  
                                                __ptext22 6302  
                                                __ptext14 6E1E  
                                                __ptext31 6ADC  
                                                __ptext23 6D7C  
                                                __ptext15 6E2C  
                                                __ptext40 6018  
                                                __ptext32 6972  
                                                __ptext24 4072  
                                                __ptext16 6E3A  
                                                __ptext41 66CE  
                                                __ptext33 5996  
                                                __ptext25 6B72  
                                                __ptext17 6D56  
                                                __ptext50 649A  
                                                __ptext42 537A  
                                                __ptext34 611C  
                                                __ptext26 6890  
                                                __ptext18 5BA8  
                                                __ptext51 6E6C  
                                                __ptext43 5D5E  
                                                __ptext35 5F12  
                                                __ptext27 6BB6  
                                                __ptext19 6D2E  
                                                __ptext52 6E6E  
                                                __ptext44 69D8  
                                                __ptext36 6B2C  
                                                __ptext28 63D0  
                                                __ptext53 6E62  
                                                __ptext45 621A  
                                                __ptext37 4A90  
                                                __ptext29 6E48  
                                                __ptext54 6CDC  
                                                __ptext46 6CAC  
                                                __ptext38 6C74  
                                                __ptext55 0000  
                                                __ptext47 6E5A  
                                                __ptext39 4F50  
                                                __ptext48 680A  
                                                __ptext49 6BFA  
                           __end_of_UART1_SetErrorHandler 6E1E  
                                              strcpy@dest 0503  
                                                efgtoa@fp 0534  
                                                efgtoa@ne 0560  
                                                efgtoa@pp 0568  
                                                efgtoa@ou 0573  
                               _UART1_OverrunErrorHandler 05A5  
            UART1_SetOverrunErrorHandler@interruptHandler 0503  
                                                isa$xinst 0000  
                              ?_UART1_DefaultErrorHandler 0501  
                                                _vfprintf 6A30  
                      __end_of_INTERRUPT_InterruptManager 6890  
                              _INTERRUPT_InterruptManager 680A  
                                               printf@fmt 0598  
                                             _UART1_Write 6A86  
                                   fp__UART1_Transmit_ISR 0000  
                          ??_UART1_SetFramingErrorHandler 0506  
                             __end_of_UART1_RxDataHandler 6D06  
                                             _uart1RxHead 0556  
                                             _uart1TxHead 055A  
                                             _NVMCON0bits 0040  
                                             _uart1RxTail 0555  
                                             _NVMCON1bits 0041  
                                             _uart1TxTail 0559  
                                                memcpy@d1 0503  
                                              _FVRCONbits 03D7  
                                                memcpy@s1 0505  
                                  ??_INTERRUPT_Initialize 0503  
                                                intlevel2 0000  
                                 ?_PIN_MANAGER_Initialize 0501  
                                               strcpy@src 0505  
                                        ??_ADC_Initialize 0506  
                                     _uart1RxStatusBuffer 0553  
                                             efgtoa@nmode 056A  
                                                printf@ap 0548  
                                       ___tmul@multiplier 0503  
            UART1_SetFramingErrorHandler@interruptHandler 0503  
                       __end_of_UART1_DefaultErrorHandler 6E68  
                                       ?_ADC_Temp_routine 0501  
                                             ??_vfpfcnvrt 053D  
                                      ??_ADC_Temp_routine 054A  
                                          _FVR_Initialize 6E52  
                                 _ADC_GetSingleConversion 6CAC  
                                        ___atdiv@dividend 0503  
                                _UART1_TxInterruptHandler 05B4  
                                           ___fladd@signs 0528  
                          __end_of_PIN_MANAGER_Initialize 680A  
                                            ___fladd@aexp 0529  
                                            ___fladd@bexp 052A  
                        _ADC_DefaultContext1Threshold_ISR 0000  
                                         ___atdiv@divisor 0506  
                                         ___atdiv@counter 0509  
                            ?_UART1_SetTxInterruptHandler 0503  
                          ??_ADC_DischargeSampleCapacitor 0503  
                                            ___atdiv@sign 050A  
